
bld/src.o:     file format elf32-littlearm


Disassembly of section .text:

09000000 <hash_sequence>:
 9000000:	b570      	push	{r4, r5, r6, lr}
 9000002:	2900      	cmp	r1, #0
 9000004:	d023      	beq.n	900004e <hash_sequence+0x4e>
 9000006:	0089      	lsls	r1, r1, #2
 9000008:	0004      	movs	r4, r0
 900000a:	1845      	adds	r5, r0, r1
 900000c:	0010      	movs	r0, r2
 900000e:	0883      	lsrs	r3, r0, #2
 9000010:	0181      	lsls	r1, r0, #6
 9000012:	18c9      	adds	r1, r1, r3
 9000014:	4b0f      	ldr	r3, [pc, #60]	@ (9000054 <hash_sequence+0x54>)
 9000016:	469c      	mov	ip, r3
 9000018:	cc04      	ldmia	r4!, {r2}
 900001a:	0093      	lsls	r3, r2, #2
 900001c:	189b      	adds	r3, r3, r2
 900001e:	00de      	lsls	r6, r3, #3
 9000020:	1af6      	subs	r6, r6, r3
 9000022:	0176      	lsls	r6, r6, #5
 9000024:	1ab6      	subs	r6, r6, r2
 9000026:	0276      	lsls	r6, r6, #9
 9000028:	1ab6      	subs	r6, r6, r2
 900002a:	00b3      	lsls	r3, r6, #2
 900002c:	1b9b      	subs	r3, r3, r6
 900002e:	011e      	lsls	r6, r3, #4
 9000030:	199b      	adds	r3, r3, r6
 9000032:	00db      	lsls	r3, r3, #3
 9000034:	1a9b      	subs	r3, r3, r2
 9000036:	009b      	lsls	r3, r3, #2
 9000038:	1a9b      	subs	r3, r3, r2
 900003a:	009b      	lsls	r3, r3, #2
 900003c:	4461      	add	r1, ip
 900003e:	189b      	adds	r3, r3, r2
 9000040:	18c9      	adds	r1, r1, r3
 9000042:	4048      	eors	r0, r1
 9000044:	42a5      	cmp	r5, r4
 9000046:	d1e2      	bne.n	900000e <hash_sequence+0xe>
 9000048:	bc70      	pop	{r4, r5, r6}
 900004a:	bc02      	pop	{r1}
 900004c:	4708      	bx	r1
 900004e:	0010      	movs	r0, r2
 9000050:	e7fa      	b.n	9000048 <hash_sequence+0x48>
 9000052:	46c0      	nop			@ (mov r8, r8)
 9000054:	9e3779c4 	.word	0x9e3779c4

09000058 <daily_events_hash>:
 9000058:	22a6      	movs	r2, #166	@ 0xa6
 900005a:	b510      	push	{r4, lr}
 900005c:	4b03      	ldr	r3, [pc, #12]	@ (900006c <daily_events_hash+0x14>)
 900005e:	00d2      	lsls	r2, r2, #3
 9000060:	589a      	ldr	r2, [r3, r2]
 9000062:	f7ff fffe 	bl	9000000 <hash_sequence>
 9000066:	bc10      	pop	{r4}
 9000068:	bc02      	pop	{r1}
 900006a:	4708      	bx	r1
 900006c:	00000000 	.word	0x00000000

09000070 <tile_hash_by_position>:
 9000070:	b510      	push	{r4, lr}
 9000072:	b084      	sub	sp, #16
 9000074:	9000      	str	r0, [sp, #0]
 9000076:	9101      	str	r1, [sp, #4]
 9000078:	4668      	mov	r0, sp
 900007a:	2104      	movs	r1, #4
 900007c:	9202      	str	r2, [sp, #8]
 900007e:	9303      	str	r3, [sp, #12]
 9000080:	f7ff fffe 	bl	9000058 <daily_events_hash>
 9000084:	0404      	lsls	r4, r0, #16
 9000086:	0c24      	lsrs	r4, r4, #16
 9000088:	0022      	movs	r2, r4
 900008a:	2004      	movs	r0, #4
 900008c:	4907      	ldr	r1, [pc, #28]	@ (90000ac <tile_hash_by_position+0x3c>)
 900008e:	4b08      	ldr	r3, [pc, #32]	@ (90000b0 <tile_hash_by_position+0x40>)
 9000090:	f000 f8d2 	bl	9000238 <daily_events_proceed+0x80>
 9000094:	0020      	movs	r0, r4
 9000096:	4b07      	ldr	r3, [pc, #28]	@ (90000b4 <tile_hash_by_position+0x44>)
 9000098:	9906      	ldr	r1, [sp, #24]
 900009a:	f000 f8cd 	bl	9000238 <daily_events_proceed+0x80>
 900009e:	0408      	lsls	r0, r1, #16
 90000a0:	0c00      	lsrs	r0, r0, #16
 90000a2:	b004      	add	sp, #16
 90000a4:	bc10      	pop	{r4}
 90000a6:	bc02      	pop	{r1}
 90000a8:	4708      	bx	r1
 90000aa:	46c0      	nop			@ (mov r8, r8)
	...

090000b8 <daily_events_new_seed>:
 90000b8:	b570      	push	{r4, r5, r6, lr}
 90000ba:	4d0a      	ldr	r5, [pc, #40]	@ (90000e4 <daily_events_new_seed+0x2c>)
 90000bc:	f000 f8be 	bl	900023c <daily_events_proceed+0x84>
 90000c0:	0004      	movs	r4, r0
 90000c2:	f000 f8bb 	bl	900023c <daily_events_proceed+0x84>
 90000c6:	22a6      	movs	r2, #166	@ 0xa6
 90000c8:	4b07      	ldr	r3, [pc, #28]	@ (90000e8 <daily_events_new_seed+0x30>)
 90000ca:	0424      	lsls	r4, r4, #16
 90000cc:	4304      	orrs	r4, r0
 90000ce:	00d2      	lsls	r2, r2, #3
 90000d0:	509c      	str	r4, [r3, r2]
 90000d2:	3a08      	subs	r2, #8
 90000d4:	1898      	adds	r0, r3, r2
 90000d6:	4b05      	ldr	r3, [pc, #20]	@ (90000ec <daily_events_new_seed+0x34>)
 90000d8:	f000 f8ae 	bl	9000238 <daily_events_proceed+0x80>
 90000dc:	bc70      	pop	{r4, r5, r6}
 90000de:	bc01      	pop	{r0}
 90000e0:	4700      	bx	r0
 90000e2:	46c0      	nop			@ (mov r8, r8)
	...

090000f0 <daily_events_reset>:
 90000f0:	4809      	ldr	r0, [pc, #36]	@ (9000118 <daily_events_reset+0x28>)
 90000f2:	b510      	push	{r4, lr}
 90000f4:	0004      	movs	r4, r0
 90000f6:	2300      	movs	r3, #0
 90000f8:	2200      	movs	r2, #0
 90000fa:	3c3c      	subs	r4, #60	@ 0x3c
 90000fc:	3cff      	subs	r4, #255	@ 0xff
 90000fe:	18c1      	adds	r1, r0, r3
 9000100:	700a      	strb	r2, [r1, #0]
 9000102:	1919      	adds	r1, r3, r4
 9000104:	3301      	adds	r3, #1
 9000106:	700a      	strb	r2, [r1, #0]
 9000108:	2b10      	cmp	r3, #16
 900010a:	d1f8      	bne.n	90000fe <daily_events_reset+0xe>
 900010c:	4b03      	ldr	r3, [pc, #12]	@ (900011c <daily_events_reset+0x2c>)
 900010e:	f000 f893 	bl	9000238 <daily_events_proceed+0x80>
 9000112:	bc10      	pop	{r4}
 9000114:	bc01      	pop	{r0}
 9000116:	4700      	bx	r0
 9000118:	0000053b 	.word	0x0000053b
 900011c:	00000000 	.word	0x00000000

09000120 <dungeon_hash>:
 9000120:	b500      	push	{lr}
 9000122:	b083      	sub	sp, #12
 9000124:	9001      	str	r0, [sp, #4]
 9000126:	2101      	movs	r1, #1
 9000128:	a801      	add	r0, sp, #4
 900012a:	f7ff fffe 	bl	9000058 <daily_events_hash>
 900012e:	0400      	lsls	r0, r0, #16
 9000130:	4b04      	ldr	r3, [pc, #16]	@ (9000144 <dungeon_hash+0x24>)
 9000132:	217f      	movs	r1, #127	@ 0x7f
 9000134:	0c00      	lsrs	r0, r0, #16
 9000136:	f000 f87f 	bl	9000238 <daily_events_proceed+0x80>
 900013a:	0408      	lsls	r0, r1, #16
 900013c:	0c00      	lsrs	r0, r0, #16
 900013e:	b003      	add	sp, #12
 9000140:	bc02      	pop	{r1}
 9000142:	4708      	bx	r1
 9000144:	00000000 	.word	0x00000000

09000148 <dungeon_flag_check>:
 9000148:	0002      	movs	r2, r0
 900014a:	b510      	push	{r4, lr}
 900014c:	490a      	ldr	r1, [pc, #40]	@ (9000178 <dungeon_flag_check+0x30>)
 900014e:	0004      	movs	r4, r0
 9000150:	4b0a      	ldr	r3, [pc, #40]	@ (900017c <dungeon_flag_check+0x34>)
 9000152:	2004      	movs	r0, #4
 9000154:	f000 f870 	bl	9000238 <daily_events_proceed+0x80>
 9000158:	2001      	movs	r0, #1
 900015a:	2c7f      	cmp	r4, #127	@ 0x7f
 900015c:	dd02      	ble.n	9000164 <dungeon_flag_check+0x1c>
 900015e:	bc10      	pop	{r4}
 9000160:	bc02      	pop	{r1}
 9000162:	4708      	bx	r1
 9000164:	2380      	movs	r3, #128	@ 0x80
 9000166:	015b      	lsls	r3, r3, #5
 9000168:	18e0      	adds	r0, r4, r3
 900016a:	0400      	lsls	r0, r0, #16
 900016c:	4b04      	ldr	r3, [pc, #16]	@ (9000180 <dungeon_flag_check+0x38>)
 900016e:	0c00      	lsrs	r0, r0, #16
 9000170:	f000 f862 	bl	9000238 <daily_events_proceed+0x80>
 9000174:	e7f3      	b.n	900015e <dungeon_flag_check+0x16>
 9000176:	46c0      	nop			@ (mov r8, r8)
 9000178:	00000010 	.word	0x00000010
	...

09000184 <dungeon_flag_set>:
 9000184:	b510      	push	{r4, lr}
 9000186:	0002      	movs	r2, r0
 9000188:	0004      	movs	r4, r0
 900018a:	4908      	ldr	r1, [pc, #32]	@ (90001ac <dungeon_flag_set+0x28>)
 900018c:	2004      	movs	r0, #4
 900018e:	4b08      	ldr	r3, [pc, #32]	@ (90001b0 <dungeon_flag_set+0x2c>)
 9000190:	f000 f852 	bl	9000238 <daily_events_proceed+0x80>
 9000194:	2380      	movs	r3, #128	@ 0x80
 9000196:	015b      	lsls	r3, r3, #5
 9000198:	18e0      	adds	r0, r4, r3
 900019a:	0400      	lsls	r0, r0, #16
 900019c:	4b05      	ldr	r3, [pc, #20]	@ (90001b4 <dungeon_flag_set+0x30>)
 900019e:	0c00      	lsrs	r0, r0, #16
 90001a0:	f000 f84a 	bl	9000238 <daily_events_proceed+0x80>
 90001a4:	bc10      	pop	{r4}
 90001a6:	bc01      	pop	{r0}
 90001a8:	4700      	bx	r0
 90001aa:	46c0      	nop			@ (mov r8, r8)
 90001ac:	00000028 	.word	0x00000028
	...

090001b8 <daily_events_proceed>:
 90001b8:	b5f0      	push	{r4, r5, r6, r7, lr}
 90001ba:	46c6      	mov	lr, r8
 90001bc:	b500      	push	{lr}
 90001be:	b084      	sub	sp, #16
 90001c0:	4b17      	ldr	r3, [pc, #92]	@ (9000220 <daily_events_proceed+0x68>)
 90001c2:	a802      	add	r0, sp, #8
 90001c4:	f000 f838 	bl	9000238 <daily_events_proceed+0x80>
 90001c8:	4c16      	ldr	r4, [pc, #88]	@ (9000224 <daily_events_proceed+0x6c>)
 90001ca:	a802      	add	r0, sp, #8
 90001cc:	f000 f835 	bl	900023a <daily_events_proceed+0x82>
 90001d0:	0006      	movs	r6, r0
 90001d2:	4815      	ldr	r0, [pc, #84]	@ (9000228 <daily_events_proceed+0x70>)
 90001d4:	000f      	movs	r7, r1
 90001d6:	2500      	movs	r5, #0
 90001d8:	f000 f82f 	bl	900023a <daily_events_proceed+0x82>
 90001dc:	4c13      	ldr	r4, [pc, #76]	@ (900022c <daily_events_proceed+0x74>)
 90001de:	1824      	adds	r4, r4, r0
 90001e0:	414d      	adcs	r5, r1
 90001e2:	0022      	movs	r2, r4
 90001e4:	002b      	movs	r3, r5
 90001e6:	9400      	str	r4, [sp, #0]
 90001e8:	9501      	str	r5, [sp, #4]
 90001ea:	1b92      	subs	r2, r2, r6
 90001ec:	41bb      	sbcs	r3, r7
 90001ee:	2004      	movs	r0, #4
 90001f0:	490f      	ldr	r1, [pc, #60]	@ (9000230 <daily_events_proceed+0x78>)
 90001f2:	4c10      	ldr	r4, [pc, #64]	@ (9000234 <daily_events_proceed+0x7c>)
 90001f4:	f000 f821 	bl	900023a <daily_events_proceed+0x82>
 90001f8:	9b01      	ldr	r3, [sp, #4]
 90001fa:	42bb      	cmp	r3, r7
 90001fc:	d905      	bls.n	900020a <daily_events_proceed+0x52>
 90001fe:	b004      	add	sp, #16
 9000200:	bc80      	pop	{r7}
 9000202:	46b8      	mov	r8, r7
 9000204:	bcf0      	pop	{r4, r5, r6, r7}
 9000206:	bc01      	pop	{r0}
 9000208:	4700      	bx	r0
 900020a:	9b00      	ldr	r3, [sp, #0]
 900020c:	9c01      	ldr	r4, [sp, #4]
 900020e:	42bc      	cmp	r4, r7
 9000210:	d101      	bne.n	9000216 <daily_events_proceed+0x5e>
 9000212:	42b3      	cmp	r3, r6
 9000214:	d8f3      	bhi.n	90001fe <daily_events_proceed+0x46>
 9000216:	f7ff fffe 	bl	90000b8 <daily_events_new_seed>
 900021a:	f7ff fffe 	bl	90000f0 <daily_events_reset>
 900021e:	e7ee      	b.n	90001fe <daily_events_proceed+0x46>
	...
 9000228:	00000528 	.word	0x00000528
 900022c:	00015180 	.word	0x00015180
 9000230:	00000040 	.word	0x00000040
 9000234:	00000000 	.word	0x00000000
 9000238:	4718      	bx	r3
 900023a:	4720      	bx	r4
 900023c:	4728      	bx	r5
 900023e:	46c0      	nop			@ (mov r8, r8)

09000240 <fata_morgana_index_by_block>:
 9000240:	4bc2      	ldr	r3, [pc, #776]	@ (900054c <fata_morgana_index_by_block+0x30c>)
 9000242:	0002      	movs	r2, r0
 9000244:	b510      	push	{r4, lr}
 9000246:	4298      	cmp	r0, r3
 9000248:	d900      	bls.n	900024c <fata_morgana_index_by_block+0xc>
 900024a:	e080      	b.n	900034e <fata_morgana_index_by_block+0x10e>
 900024c:	4bc0      	ldr	r3, [pc, #768]	@ (9000550 <fata_morgana_index_by_block+0x310>)
 900024e:	4298      	cmp	r0, r3
 9000250:	d900      	bls.n	9000254 <fata_morgana_index_by_block+0x14>
 9000252:	e06f      	b.n	9000334 <fata_morgana_index_by_block+0xf4>
 9000254:	4bbf      	ldr	r3, [pc, #764]	@ (9000554 <fata_morgana_index_by_block+0x314>)
 9000256:	4298      	cmp	r0, r3
 9000258:	d900      	bls.n	900025c <fata_morgana_index_by_block+0x1c>
 900025a:	e12a      	b.n	90004b2 <fata_morgana_index_by_block+0x272>
 900025c:	4bbe      	ldr	r3, [pc, #760]	@ (9000558 <fata_morgana_index_by_block+0x318>)
 900025e:	4298      	cmp	r0, r3
 9000260:	d85b      	bhi.n	900031a <fata_morgana_index_by_block+0xda>
 9000262:	4bbe      	ldr	r3, [pc, #760]	@ (900055c <fata_morgana_index_by_block+0x31c>)
 9000264:	4298      	cmp	r0, r3
 9000266:	d847      	bhi.n	90002f8 <fata_morgana_index_by_block+0xb8>
 9000268:	4bbd      	ldr	r3, [pc, #756]	@ (9000560 <fata_morgana_index_by_block+0x320>)
 900026a:	4298      	cmp	r0, r3
 900026c:	d830      	bhi.n	90002d0 <fata_morgana_index_by_block+0x90>
 900026e:	3b8e      	subs	r3, #142	@ 0x8e
 9000270:	4298      	cmp	r0, r3
 9000272:	d21b      	bcs.n	90002ac <fata_morgana_index_by_block+0x6c>
 9000274:	4bbb      	ldr	r3, [pc, #748]	@ (9000564 <fata_morgana_index_by_block+0x324>)
 9000276:	4298      	cmp	r0, r3
 9000278:	d90e      	bls.n	9000298 <fata_morgana_index_by_block+0x58>
 900027a:	2101      	movs	r1, #1
 900027c:	4bba      	ldr	r3, [pc, #744]	@ (9000568 <fata_morgana_index_by_block+0x328>)
 900027e:	18c3      	adds	r3, r0, r3
 9000280:	041b      	lsls	r3, r3, #16
 9000282:	0c1b      	lsrs	r3, r3, #16
 9000284:	4099      	lsls	r1, r3
 9000286:	000b      	movs	r3, r1
 9000288:	49b8      	ldr	r1, [pc, #736]	@ (900056c <fata_morgana_index_by_block+0x32c>)
 900028a:	420b      	tst	r3, r1
 900028c:	d000      	beq.n	9000290 <fata_morgana_index_by_block+0x50>
 900028e:	e1af      	b.n	90005f0 <fata_morgana_index_by_block+0x3b0>
 9000290:	49b7      	ldr	r1, [pc, #732]	@ (9000570 <fata_morgana_index_by_block+0x330>)
 9000292:	420b      	tst	r3, r1
 9000294:	d000      	beq.n	9000298 <fata_morgana_index_by_block+0x58>
 9000296:	e157      	b.n	9000548 <fata_morgana_index_by_block+0x308>
 9000298:	2001      	movs	r0, #1
 900029a:	49b6      	ldr	r1, [pc, #728]	@ (9000574 <fata_morgana_index_by_block+0x334>)
 900029c:	4bb6      	ldr	r3, [pc, #728]	@ (9000578 <fata_morgana_index_by_block+0x338>)
 900029e:	f000 f9a9 	bl	90005f4 <fata_morgana_index_by_block+0x3b4>
 90002a2:	2001      	movs	r0, #1
 90002a4:	4240      	negs	r0, r0
 90002a6:	bc10      	pop	{r4}
 90002a8:	bc02      	pop	{r1}
 90002aa:	4708      	bx	r1
 90002ac:	4bb3      	ldr	r3, [pc, #716]	@ (900057c <fata_morgana_index_by_block+0x33c>)
 90002ae:	18c3      	adds	r3, r0, r3
 90002b0:	041b      	lsls	r3, r3, #16
 90002b2:	0c1b      	lsrs	r3, r3, #16
 90002b4:	2b06      	cmp	r3, #6
 90002b6:	d8ef      	bhi.n	9000298 <fata_morgana_index_by_block+0x58>
 90002b8:	2101      	movs	r1, #1
 90002ba:	4099      	lsls	r1, r3
 90002bc:	000b      	movs	r3, r1
 90002be:	2155      	movs	r1, #85	@ 0x55
 90002c0:	2000      	movs	r0, #0
 90002c2:	4219      	tst	r1, r3
 90002c4:	d1ef      	bne.n	90002a6 <fata_morgana_index_by_block+0x66>
 90002c6:	392b      	subs	r1, #43	@ 0x2b
 90002c8:	3001      	adds	r0, #1
 90002ca:	4219      	tst	r1, r3
 90002cc:	d1eb      	bne.n	90002a6 <fata_morgana_index_by_block+0x66>
 90002ce:	e7e3      	b.n	9000298 <fata_morgana_index_by_block+0x58>
 90002d0:	2101      	movs	r1, #1
 90002d2:	4bab      	ldr	r3, [pc, #684]	@ (9000580 <fata_morgana_index_by_block+0x340>)
 90002d4:	18c3      	adds	r3, r0, r3
 90002d6:	0008      	movs	r0, r1
 90002d8:	041b      	lsls	r3, r3, #16
 90002da:	0c1b      	lsrs	r3, r3, #16
 90002dc:	4098      	lsls	r0, r3
 90002de:	24aa      	movs	r4, #170	@ 0xaa
 90002e0:	0003      	movs	r3, r0
 90002e2:	2002      	movs	r0, #2
 90002e4:	421c      	tst	r4, r3
 90002e6:	d1de      	bne.n	90002a6 <fata_morgana_index_by_block+0x66>
 90002e8:	3c56      	subs	r4, #86	@ 0x56
 90002ea:	3001      	adds	r0, #1
 90002ec:	421c      	tst	r4, r3
 90002ee:	d1da      	bne.n	90002a6 <fata_morgana_index_by_block+0x66>
 90002f0:	3802      	subs	r0, #2
 90002f2:	4219      	tst	r1, r3
 90002f4:	d1d7      	bne.n	90002a6 <fata_morgana_index_by_block+0x66>
 90002f6:	e7cf      	b.n	9000298 <fata_morgana_index_by_block+0x58>
 90002f8:	2101      	movs	r1, #1
 90002fa:	4ba2      	ldr	r3, [pc, #648]	@ (9000584 <fata_morgana_index_by_block+0x344>)
 90002fc:	18c3      	adds	r3, r0, r3
 90002fe:	0008      	movs	r0, r1
 9000300:	041b      	lsls	r3, r3, #16
 9000302:	0c1b      	lsrs	r3, r3, #16
 9000304:	4098      	lsls	r0, r3
 9000306:	24aa      	movs	r4, #170	@ 0xaa
 9000308:	0003      	movs	r3, r0
 900030a:	2004      	movs	r0, #4
 900030c:	421c      	tst	r4, r3
 900030e:	d1ca      	bne.n	90002a6 <fata_morgana_index_by_block+0x66>
 9000310:	2454      	movs	r4, #84	@ 0x54
 9000312:	2005      	movs	r0, #5
 9000314:	421c      	tst	r4, r3
 9000316:	d1c6      	bne.n	90002a6 <fata_morgana_index_by_block+0x66>
 9000318:	e7ea      	b.n	90002f0 <fata_morgana_index_by_block+0xb0>
 900031a:	2101      	movs	r1, #1
 900031c:	4b9a      	ldr	r3, [pc, #616]	@ (9000588 <fata_morgana_index_by_block+0x348>)
 900031e:	18c3      	adds	r3, r0, r3
 9000320:	0008      	movs	r0, r1
 9000322:	041b      	lsls	r3, r3, #16
 9000324:	0c1b      	lsrs	r3, r3, #16
 9000326:	4098      	lsls	r0, r3
 9000328:	24aa      	movs	r4, #170	@ 0xaa
 900032a:	0003      	movs	r3, r0
 900032c:	2006      	movs	r0, #6
 900032e:	421c      	tst	r4, r3
 9000330:	d1b9      	bne.n	90002a6 <fata_morgana_index_by_block+0x66>
 9000332:	e7d9      	b.n	90002e8 <fata_morgana_index_by_block+0xa8>
 9000334:	2101      	movs	r1, #1
 9000336:	4b95      	ldr	r3, [pc, #596]	@ (900058c <fata_morgana_index_by_block+0x34c>)
 9000338:	18c3      	adds	r3, r0, r3
 900033a:	0008      	movs	r0, r1
 900033c:	041b      	lsls	r3, r3, #16
 900033e:	0c1b      	lsrs	r3, r3, #16
 9000340:	4098      	lsls	r0, r3
 9000342:	24aa      	movs	r4, #170	@ 0xaa
 9000344:	0003      	movs	r3, r0
 9000346:	2010      	movs	r0, #16
 9000348:	421c      	tst	r4, r3
 900034a:	d1ac      	bne.n	90002a6 <fata_morgana_index_by_block+0x66>
 900034c:	e7cc      	b.n	90002e8 <fata_morgana_index_by_block+0xa8>
 900034e:	4b90      	ldr	r3, [pc, #576]	@ (9000590 <fata_morgana_index_by_block+0x350>)
 9000350:	4298      	cmp	r0, r3
 9000352:	d85b      	bhi.n	900040c <fata_morgana_index_by_block+0x1cc>
 9000354:	4b8f      	ldr	r3, [pc, #572]	@ (9000594 <fata_morgana_index_by_block+0x354>)
 9000356:	4298      	cmp	r0, r3
 9000358:	d84a      	bhi.n	90003f0 <fata_morgana_index_by_block+0x1b0>
 900035a:	4b8f      	ldr	r3, [pc, #572]	@ (9000598 <fata_morgana_index_by_block+0x358>)
 900035c:	4298      	cmp	r0, r3
 900035e:	d834      	bhi.n	90003ca <fata_morgana_index_by_block+0x18a>
 9000360:	4b8e      	ldr	r3, [pc, #568]	@ (900059c <fata_morgana_index_by_block+0x35c>)
 9000362:	4298      	cmp	r0, r3
 9000364:	d823      	bhi.n	90003ae <fata_morgana_index_by_block+0x16e>
 9000366:	4b8e      	ldr	r3, [pc, #568]	@ (90005a0 <fata_morgana_index_by_block+0x360>)
 9000368:	4298      	cmp	r0, r3
 900036a:	d912      	bls.n	9000392 <fata_morgana_index_by_block+0x152>
 900036c:	2101      	movs	r1, #1
 900036e:	4b8d      	ldr	r3, [pc, #564]	@ (90005a4 <fata_morgana_index_by_block+0x364>)
 9000370:	18c3      	adds	r3, r0, r3
 9000372:	0008      	movs	r0, r1
 9000374:	041b      	lsls	r3, r3, #16
 9000376:	0c1b      	lsrs	r3, r3, #16
 9000378:	4098      	lsls	r0, r3
 900037a:	24aa      	movs	r4, #170	@ 0xaa
 900037c:	0003      	movs	r3, r0
 900037e:	2014      	movs	r0, #20
 9000380:	421c      	tst	r4, r3
 9000382:	d000      	beq.n	9000386 <fata_morgana_index_by_block+0x146>
 9000384:	e78f      	b.n	90002a6 <fata_morgana_index_by_block+0x66>
 9000386:	2454      	movs	r4, #84	@ 0x54
 9000388:	2015      	movs	r0, #21
 900038a:	421c      	tst	r4, r3
 900038c:	d000      	beq.n	9000390 <fata_morgana_index_by_block+0x150>
 900038e:	e78a      	b.n	90002a6 <fata_morgana_index_by_block+0x66>
 9000390:	e7ae      	b.n	90002f0 <fata_morgana_index_by_block+0xb0>
 9000392:	2101      	movs	r1, #1
 9000394:	0008      	movs	r0, r1
 9000396:	4b84      	ldr	r3, [pc, #528]	@ (90005a8 <fata_morgana_index_by_block+0x368>)
 9000398:	18d3      	adds	r3, r2, r3
 900039a:	041b      	lsls	r3, r3, #16
 900039c:	0c1b      	lsrs	r3, r3, #16
 900039e:	4098      	lsls	r0, r3
 90003a0:	24aa      	movs	r4, #170	@ 0xaa
 90003a2:	0003      	movs	r3, r0
 90003a4:	2012      	movs	r0, #18
 90003a6:	421c      	tst	r4, r3
 90003a8:	d000      	beq.n	90003ac <fata_morgana_index_by_block+0x16c>
 90003aa:	e77c      	b.n	90002a6 <fata_morgana_index_by_block+0x66>
 90003ac:	e79c      	b.n	90002e8 <fata_morgana_index_by_block+0xa8>
 90003ae:	2101      	movs	r1, #1
 90003b0:	0008      	movs	r0, r1
 90003b2:	4b7e      	ldr	r3, [pc, #504]	@ (90005ac <fata_morgana_index_by_block+0x36c>)
 90003b4:	18d3      	adds	r3, r2, r3
 90003b6:	041b      	lsls	r3, r3, #16
 90003b8:	0c1b      	lsrs	r3, r3, #16
 90003ba:	4098      	lsls	r0, r3
 90003bc:	24aa      	movs	r4, #170	@ 0xaa
 90003be:	0003      	movs	r3, r0
 90003c0:	2016      	movs	r0, #22
 90003c2:	421c      	tst	r4, r3
 90003c4:	d000      	beq.n	90003c8 <fata_morgana_index_by_block+0x188>
 90003c6:	e76e      	b.n	90002a6 <fata_morgana_index_by_block+0x66>
 90003c8:	e78e      	b.n	90002e8 <fata_morgana_index_by_block+0xa8>
 90003ca:	2101      	movs	r1, #1
 90003cc:	4b78      	ldr	r3, [pc, #480]	@ (90005b0 <fata_morgana_index_by_block+0x370>)
 90003ce:	18c3      	adds	r3, r0, r3
 90003d0:	0008      	movs	r0, r1
 90003d2:	041b      	lsls	r3, r3, #16
 90003d4:	0c1b      	lsrs	r3, r3, #16
 90003d6:	4098      	lsls	r0, r3
 90003d8:	24aa      	movs	r4, #170	@ 0xaa
 90003da:	0003      	movs	r3, r0
 90003dc:	2018      	movs	r0, #24
 90003de:	421c      	tst	r4, r3
 90003e0:	d000      	beq.n	90003e4 <fata_morgana_index_by_block+0x1a4>
 90003e2:	e760      	b.n	90002a6 <fata_morgana_index_by_block+0x66>
 90003e4:	2454      	movs	r4, #84	@ 0x54
 90003e6:	2019      	movs	r0, #25
 90003e8:	421c      	tst	r4, r3
 90003ea:	d000      	beq.n	90003ee <fata_morgana_index_by_block+0x1ae>
 90003ec:	e75b      	b.n	90002a6 <fata_morgana_index_by_block+0x66>
 90003ee:	e77f      	b.n	90002f0 <fata_morgana_index_by_block+0xb0>
 90003f0:	2101      	movs	r1, #1
 90003f2:	0008      	movs	r0, r1
 90003f4:	4b6f      	ldr	r3, [pc, #444]	@ (90005b4 <fata_morgana_index_by_block+0x374>)
 90003f6:	18d3      	adds	r3, r2, r3
 90003f8:	041b      	lsls	r3, r3, #16
 90003fa:	0c1b      	lsrs	r3, r3, #16
 90003fc:	4098      	lsls	r0, r3
 90003fe:	24aa      	movs	r4, #170	@ 0xaa
 9000400:	0003      	movs	r3, r0
 9000402:	201a      	movs	r0, #26
 9000404:	421c      	tst	r4, r3
 9000406:	d000      	beq.n	900040a <fata_morgana_index_by_block+0x1ca>
 9000408:	e74d      	b.n	90002a6 <fata_morgana_index_by_block+0x66>
 900040a:	e76d      	b.n	90002e8 <fata_morgana_index_by_block+0xa8>
 900040c:	4b6a      	ldr	r3, [pc, #424]	@ (90005b8 <fata_morgana_index_by_block+0x378>)
 900040e:	4298      	cmp	r0, r3
 9000410:	d834      	bhi.n	900047c <fata_morgana_index_by_block+0x23c>
 9000412:	4b6a      	ldr	r3, [pc, #424]	@ (90005bc <fata_morgana_index_by_block+0x37c>)
 9000414:	4298      	cmp	r0, r3
 9000416:	d823      	bhi.n	9000460 <fata_morgana_index_by_block+0x220>
 9000418:	4b69      	ldr	r3, [pc, #420]	@ (90005c0 <fata_morgana_index_by_block+0x380>)
 900041a:	4298      	cmp	r0, r3
 900041c:	d912      	bls.n	9000444 <fata_morgana_index_by_block+0x204>
 900041e:	2101      	movs	r1, #1
 9000420:	4b68      	ldr	r3, [pc, #416]	@ (90005c4 <fata_morgana_index_by_block+0x384>)
 9000422:	18c3      	adds	r3, r0, r3
 9000424:	0008      	movs	r0, r1
 9000426:	041b      	lsls	r3, r3, #16
 9000428:	0c1b      	lsrs	r3, r3, #16
 900042a:	4098      	lsls	r0, r3
 900042c:	24aa      	movs	r4, #170	@ 0xaa
 900042e:	0003      	movs	r3, r0
 9000430:	201e      	movs	r0, #30
 9000432:	421c      	tst	r4, r3
 9000434:	d000      	beq.n	9000438 <fata_morgana_index_by_block+0x1f8>
 9000436:	e736      	b.n	90002a6 <fata_morgana_index_by_block+0x66>
 9000438:	2454      	movs	r4, #84	@ 0x54
 900043a:	201f      	movs	r0, #31
 900043c:	421c      	tst	r4, r3
 900043e:	d000      	beq.n	9000442 <fata_morgana_index_by_block+0x202>
 9000440:	e731      	b.n	90002a6 <fata_morgana_index_by_block+0x66>
 9000442:	e755      	b.n	90002f0 <fata_morgana_index_by_block+0xb0>
 9000444:	2101      	movs	r1, #1
 9000446:	0008      	movs	r0, r1
 9000448:	4b5f      	ldr	r3, [pc, #380]	@ (90005c8 <fata_morgana_index_by_block+0x388>)
 900044a:	18d3      	adds	r3, r2, r3
 900044c:	041b      	lsls	r3, r3, #16
 900044e:	0c1b      	lsrs	r3, r3, #16
 9000450:	4098      	lsls	r0, r3
 9000452:	24aa      	movs	r4, #170	@ 0xaa
 9000454:	0003      	movs	r3, r0
 9000456:	201c      	movs	r0, #28
 9000458:	421c      	tst	r4, r3
 900045a:	d000      	beq.n	900045e <fata_morgana_index_by_block+0x21e>
 900045c:	e723      	b.n	90002a6 <fata_morgana_index_by_block+0x66>
 900045e:	e743      	b.n	90002e8 <fata_morgana_index_by_block+0xa8>
 9000460:	2101      	movs	r1, #1
 9000462:	0008      	movs	r0, r1
 9000464:	4b59      	ldr	r3, [pc, #356]	@ (90005cc <fata_morgana_index_by_block+0x38c>)
 9000466:	18d3      	adds	r3, r2, r3
 9000468:	041b      	lsls	r3, r3, #16
 900046a:	0c1b      	lsrs	r3, r3, #16
 900046c:	4098      	lsls	r0, r3
 900046e:	24aa      	movs	r4, #170	@ 0xaa
 9000470:	0003      	movs	r3, r0
 9000472:	2020      	movs	r0, #32
 9000474:	421c      	tst	r4, r3
 9000476:	d000      	beq.n	900047a <fata_morgana_index_by_block+0x23a>
 9000478:	e715      	b.n	90002a6 <fata_morgana_index_by_block+0x66>
 900047a:	e735      	b.n	90002e8 <fata_morgana_index_by_block+0xa8>
 900047c:	4b54      	ldr	r3, [pc, #336]	@ (90005d0 <fata_morgana_index_by_block+0x390>)
 900047e:	18c3      	adds	r3, r0, r3
 9000480:	041b      	lsls	r3, r3, #16
 9000482:	0c1b      	lsrs	r3, r3, #16
 9000484:	2b08      	cmp	r3, #8
 9000486:	d900      	bls.n	900048a <fata_morgana_index_by_block+0x24a>
 9000488:	e706      	b.n	9000298 <fata_morgana_index_by_block+0x58>
 900048a:	2101      	movs	r1, #1
 900048c:	0008      	movs	r0, r1
 900048e:	4098      	lsls	r0, r3
 9000490:	24aa      	movs	r4, #170	@ 0xaa
 9000492:	0003      	movs	r3, r0
 9000494:	0064      	lsls	r4, r4, #1
 9000496:	2023      	movs	r0, #35	@ 0x23
 9000498:	4223      	tst	r3, r4
 900049a:	d000      	beq.n	900049e <fata_morgana_index_by_block+0x25e>
 900049c:	e703      	b.n	90002a6 <fata_morgana_index_by_block+0x66>
 900049e:	3caa      	subs	r4, #170	@ 0xaa
 90004a0:	3801      	subs	r0, #1
 90004a2:	421c      	tst	r4, r3
 90004a4:	d000      	beq.n	90004a8 <fata_morgana_index_by_block+0x268>
 90004a6:	e6fe      	b.n	90002a6 <fata_morgana_index_by_block+0x66>
 90004a8:	3801      	subs	r0, #1
 90004aa:	4219      	tst	r1, r3
 90004ac:	d000      	beq.n	90004b0 <fata_morgana_index_by_block+0x270>
 90004ae:	e6fa      	b.n	90002a6 <fata_morgana_index_by_block+0x66>
 90004b0:	e6f2      	b.n	9000298 <fata_morgana_index_by_block+0x58>
 90004b2:	4b48      	ldr	r3, [pc, #288]	@ (90005d4 <fata_morgana_index_by_block+0x394>)
 90004b4:	4298      	cmp	r0, r3
 90004b6:	d818      	bhi.n	90004ea <fata_morgana_index_by_block+0x2aa>
 90004b8:	4b47      	ldr	r3, [pc, #284]	@ (90005d8 <fata_morgana_index_by_block+0x398>)
 90004ba:	4298      	cmp	r0, r3
 90004bc:	d836      	bhi.n	900052c <fata_morgana_index_by_block+0x2ec>
 90004be:	4b47      	ldr	r3, [pc, #284]	@ (90005dc <fata_morgana_index_by_block+0x39c>)
 90004c0:	4298      	cmp	r0, r3
 90004c2:	d925      	bls.n	9000510 <fata_morgana_index_by_block+0x2d0>
 90004c4:	2101      	movs	r1, #1
 90004c6:	4b46      	ldr	r3, [pc, #280]	@ (90005e0 <fata_morgana_index_by_block+0x3a0>)
 90004c8:	18c3      	adds	r3, r0, r3
 90004ca:	0008      	movs	r0, r1
 90004cc:	041b      	lsls	r3, r3, #16
 90004ce:	0c1b      	lsrs	r3, r3, #16
 90004d0:	4098      	lsls	r0, r3
 90004d2:	24aa      	movs	r4, #170	@ 0xaa
 90004d4:	0003      	movs	r3, r0
 90004d6:	200a      	movs	r0, #10
 90004d8:	421c      	tst	r4, r3
 90004da:	d000      	beq.n	90004de <fata_morgana_index_by_block+0x29e>
 90004dc:	e6e3      	b.n	90002a6 <fata_morgana_index_by_block+0x66>
 90004de:	2454      	movs	r4, #84	@ 0x54
 90004e0:	200b      	movs	r0, #11
 90004e2:	421c      	tst	r4, r3
 90004e4:	d000      	beq.n	90004e8 <fata_morgana_index_by_block+0x2a8>
 90004e6:	e6de      	b.n	90002a6 <fata_morgana_index_by_block+0x66>
 90004e8:	e702      	b.n	90002f0 <fata_morgana_index_by_block+0xb0>
 90004ea:	2101      	movs	r1, #1
 90004ec:	4b3d      	ldr	r3, [pc, #244]	@ (90005e4 <fata_morgana_index_by_block+0x3a4>)
 90004ee:	18c3      	adds	r3, r0, r3
 90004f0:	0008      	movs	r0, r1
 90004f2:	041b      	lsls	r3, r3, #16
 90004f4:	0c1b      	lsrs	r3, r3, #16
 90004f6:	4098      	lsls	r0, r3
 90004f8:	24aa      	movs	r4, #170	@ 0xaa
 90004fa:	0003      	movs	r3, r0
 90004fc:	200e      	movs	r0, #14
 90004fe:	421c      	tst	r4, r3
 9000500:	d000      	beq.n	9000504 <fata_morgana_index_by_block+0x2c4>
 9000502:	e6d0      	b.n	90002a6 <fata_morgana_index_by_block+0x66>
 9000504:	2454      	movs	r4, #84	@ 0x54
 9000506:	200f      	movs	r0, #15
 9000508:	421c      	tst	r4, r3
 900050a:	d000      	beq.n	900050e <fata_morgana_index_by_block+0x2ce>
 900050c:	e6cb      	b.n	90002a6 <fata_morgana_index_by_block+0x66>
 900050e:	e6ef      	b.n	90002f0 <fata_morgana_index_by_block+0xb0>
 9000510:	2101      	movs	r1, #1
 9000512:	0008      	movs	r0, r1
 9000514:	4b34      	ldr	r3, [pc, #208]	@ (90005e8 <fata_morgana_index_by_block+0x3a8>)
 9000516:	18d3      	adds	r3, r2, r3
 9000518:	041b      	lsls	r3, r3, #16
 900051a:	0c1b      	lsrs	r3, r3, #16
 900051c:	4098      	lsls	r0, r3
 900051e:	24aa      	movs	r4, #170	@ 0xaa
 9000520:	0003      	movs	r3, r0
 9000522:	2008      	movs	r0, #8
 9000524:	421c      	tst	r4, r3
 9000526:	d000      	beq.n	900052a <fata_morgana_index_by_block+0x2ea>
 9000528:	e6bd      	b.n	90002a6 <fata_morgana_index_by_block+0x66>
 900052a:	e6dd      	b.n	90002e8 <fata_morgana_index_by_block+0xa8>
 900052c:	2101      	movs	r1, #1
 900052e:	0008      	movs	r0, r1
 9000530:	4b2e      	ldr	r3, [pc, #184]	@ (90005ec <fata_morgana_index_by_block+0x3ac>)
 9000532:	18d3      	adds	r3, r2, r3
 9000534:	041b      	lsls	r3, r3, #16
 9000536:	0c1b      	lsrs	r3, r3, #16
 9000538:	4098      	lsls	r0, r3
 900053a:	24aa      	movs	r4, #170	@ 0xaa
 900053c:	0003      	movs	r3, r0
 900053e:	200c      	movs	r0, #12
 9000540:	421c      	tst	r4, r3
 9000542:	d000      	beq.n	9000546 <fata_morgana_index_by_block+0x306>
 9000544:	e6af      	b.n	90002a6 <fata_morgana_index_by_block+0x66>
 9000546:	e6cf      	b.n	90002e8 <fata_morgana_index_by_block+0xa8>
 9000548:	2024      	movs	r0, #36	@ 0x24
 900054a:	e6ac      	b.n	90002a6 <fata_morgana_index_by_block+0x66>
 900054c:	00000366 	.word	0x00000366
 9000550:	0000035e 	.word	0x0000035e
 9000554:	0000033e 	.word	0x0000033e
 9000558:	00000336 	.word	0x00000336
 900055c:	0000032e 	.word	0x0000032e
 9000560:	00000326 	.word	0x00000326
 9000564:	00000285 	.word	0x00000285
 9000568:	fffffd7a 	.word	0xfffffd7a
 900056c:	00028202 	.word	0x00028202
 9000570:	00014101 	.word	0x00014101
 9000574:	00000060 	.word	0x00000060
 9000578:	00000000 	.word	0x00000000
 900057c:	fffffce0 	.word	0xfffffce0
 9000580:	fffffcd9 	.word	0xfffffcd9
 9000584:	fffffcd1 	.word	0xfffffcd1
 9000588:	fffffcc9 	.word	0xfffffcc9
 900058c:	fffffca1 	.word	0xfffffca1
 9000590:	0000038e 	.word	0x0000038e
 9000594:	00000386 	.word	0x00000386
 9000598:	0000037e 	.word	0x0000037e
 900059c:	00000376 	.word	0x00000376
 90005a0:	0000036e 	.word	0x0000036e
 90005a4:	fffffc91 	.word	0xfffffc91
 90005a8:	fffffc99 	.word	0xfffffc99
 90005ac:	fffffc89 	.word	0xfffffc89
 90005b0:	fffffc81 	.word	0xfffffc81
 90005b4:	fffffc79 	.word	0xfffffc79
 90005b8:	000003a6 	.word	0x000003a6
 90005bc:	0000039e 	.word	0x0000039e
 90005c0:	00000396 	.word	0x00000396
 90005c4:	fffffc69 	.word	0xfffffc69
 90005c8:	fffffc71 	.word	0xfffffc71
 90005cc:	fffffc61 	.word	0xfffffc61
 90005d0:	fffffc59 	.word	0xfffffc59
 90005d4:	00000356 	.word	0x00000356
 90005d8:	0000034e 	.word	0x0000034e
 90005dc:	00000346 	.word	0x00000346
 90005e0:	fffffcb9 	.word	0xfffffcb9
 90005e4:	fffffca9 	.word	0xfffffca9
 90005e8:	fffffcc1 	.word	0xfffffcc1
 90005ec:	fffffcb1 	.word	0xfffffcb1
 90005f0:	2025      	movs	r0, #37	@ 0x25
 90005f2:	e658      	b.n	90002a6 <fata_morgana_index_by_block+0x66>
 90005f4:	4718      	bx	r3
 90005f6:	46c0      	nop			@ (mov r8, r8)

090005f8 <fata_morgana_setmaptiles.constprop.0>:
 90005f8:	b5f0      	push	{r4, r5, r6, r7, lr}
 90005fa:	46de      	mov	lr, fp
 90005fc:	4657      	mov	r7, sl
 90005fe:	464e      	mov	r6, r9
 9000600:	4645      	mov	r5, r8
 9000602:	b5e0      	push	{r5, r6, r7, lr}
 9000604:	4b49      	ldr	r3, [pc, #292]	@ (900072c <fata_morgana_setmaptiles.constprop.0+0x134>)
 9000606:	681a      	ldr	r2, [r3, #0]
 9000608:	4b49      	ldr	r3, [pc, #292]	@ (9000730 <fata_morgana_setmaptiles.constprop.0+0x138>)
 900060a:	8892      	ldrh	r2, [r2, #4]
 900060c:	b085      	sub	sp, #20
 900060e:	429a      	cmp	r2, r3
 9000610:	d008      	beq.n	9000624 <fata_morgana_setmaptiles.constprop.0+0x2c>
 9000612:	b005      	add	sp, #20
 9000614:	bcf0      	pop	{r4, r5, r6, r7}
 9000616:	46bb      	mov	fp, r7
 9000618:	46b2      	mov	sl, r6
 900061a:	46a9      	mov	r9, r5
 900061c:	46a0      	mov	r8, r4
 900061e:	bcf0      	pop	{r4, r5, r6, r7}
 9000620:	bc01      	pop	{r0}
 9000622:	4700      	bx	r0
 9000624:	ab02      	add	r3, sp, #8
 9000626:	ad03      	add	r5, sp, #12
 9000628:	1d99      	adds	r1, r3, #6
 900062a:	0028      	movs	r0, r5
 900062c:	4b41      	ldr	r3, [pc, #260]	@ (9000734 <fata_morgana_setmaptiles.constprop.0+0x13c>)
 900062e:	f000 f8b5 	bl	900079c <fata_morgana_update_blocks_dont_redraw+0x40>
 9000632:	4b41      	ldr	r3, [pc, #260]	@ (9000738 <fata_morgana_setmaptiles.constprop.0+0x140>)
 9000634:	9301      	str	r3, [sp, #4]
 9000636:	681b      	ldr	r3, [r3, #0]
 9000638:	4699      	mov	r9, r3
 900063a:	2b00      	cmp	r3, #0
 900063c:	d0e9      	beq.n	9000612 <fata_morgana_setmaptiles.constprop.0+0x1a>
 900063e:	2302      	movs	r3, #2
 9000640:	5ee9      	ldrsh	r1, [r5, r3]
 9000642:	2200      	movs	r2, #0
 9000644:	5eab      	ldrsh	r3, [r5, r2]
 9000646:	2208      	movs	r2, #8
 9000648:	4252      	negs	r2, r2
 900064a:	4690      	mov	r8, r2
 900064c:	4498      	add	r8, r3
 900064e:	4b3b      	ldr	r3, [pc, #236]	@ (900073c <fata_morgana_setmaptiles.constprop.0+0x144>)
 9000650:	000c      	movs	r4, r1
 9000652:	464e      	mov	r6, r9
 9000654:	2000      	movs	r0, #0
 9000656:	469c      	mov	ip, r3
 9000658:	3c08      	subs	r4, #8
 900065a:	1832      	adds	r2, r6, r0
 900065c:	0fd3      	lsrs	r3, r2, #31
 900065e:	189b      	adds	r3, r3, r2
 9000660:	105b      	asrs	r3, r3, #1
 9000662:	005a      	lsls	r2, r3, #1
 9000664:	18d2      	adds	r2, r2, r3
 9000666:	0052      	lsls	r2, r2, #1
 9000668:	4692      	mov	sl, r2
 900066a:	44e2      	add	sl, ip
 900066c:	4657      	mov	r7, sl
 900066e:	887f      	ldrh	r7, [r7, #2]
 9000670:	42a7      	cmp	r7, r4
 9000672:	db59      	blt.n	9000728 <fata_morgana_setmaptiles.constprop.0+0x130>
 9000674:	d054      	beq.n	9000720 <fata_morgana_setmaptiles.constprop.0+0x128>
 9000676:	001e      	movs	r6, r3
 9000678:	42b0      	cmp	r0, r6
 900067a:	d1ee      	bne.n	900065a <fata_morgana_setmaptiles.constprop.0+0x62>
 900067c:	45b1      	cmp	r9, r6
 900067e:	ddc8      	ble.n	9000612 <fata_morgana_setmaptiles.constprop.0+0x1a>
 9000680:	0073      	lsls	r3, r6, #1
 9000682:	199b      	adds	r3, r3, r6
 9000684:	005b      	lsls	r3, r3, #1
 9000686:	4463      	add	r3, ip
 9000688:	001c      	movs	r4, r3
 900068a:	4b2d      	ldr	r3, [pc, #180]	@ (9000740 <fata_morgana_setmaptiles.constprop.0+0x148>)
 900068c:	469a      	mov	sl, r3
 900068e:	4b2d      	ldr	r3, [pc, #180]	@ (9000744 <fata_morgana_setmaptiles.constprop.0+0x14c>)
 9000690:	4698      	mov	r8, r3
 9000692:	4b2d      	ldr	r3, [pc, #180]	@ (9000748 <fata_morgana_setmaptiles.constprop.0+0x150>)
 9000694:	4699      	mov	r9, r3
 9000696:	e007      	b.n	90006a8 <fata_morgana_setmaptiles.constprop.0+0xb0>
 9000698:	9b01      	ldr	r3, [sp, #4]
 900069a:	681b      	ldr	r3, [r3, #0]
 900069c:	3601      	adds	r6, #1
 900069e:	3406      	adds	r4, #6
 90006a0:	429e      	cmp	r6, r3
 90006a2:	dab6      	bge.n	9000612 <fata_morgana_setmaptiles.constprop.0+0x1a>
 90006a4:	2302      	movs	r3, #2
 90006a6:	5ee9      	ldrsh	r1, [r5, r3]
 90006a8:	000a      	movs	r2, r1
 90006aa:	8863      	ldrh	r3, [r4, #2]
 90006ac:	3208      	adds	r2, #8
 90006ae:	4293      	cmp	r3, r2
 90006b0:	dcaf      	bgt.n	9000612 <fata_morgana_setmaptiles.constprop.0+0x1a>
 90006b2:	2700      	movs	r7, #0
 90006b4:	5fea      	ldrsh	r2, [r5, r7]
 90006b6:	2708      	movs	r7, #8
 90006b8:	46bc      	mov	ip, r7
 90006ba:	8820      	ldrh	r0, [r4, #0]
 90006bc:	4494      	add	ip, r2
 90006be:	4560      	cmp	r0, ip
 90006c0:	dcea      	bgt.n	9000698 <fata_morgana_setmaptiles.constprop.0+0xa0>
 90006c2:	1a12      	subs	r2, r2, r0
 90006c4:	1acb      	subs	r3, r1, r3
 90006c6:	0011      	movs	r1, r2
 90006c8:	4351      	muls	r1, r2
 90006ca:	000a      	movs	r2, r1
 90006cc:	4693      	mov	fp, r2
 90006ce:	0019      	movs	r1, r3
 90006d0:	4359      	muls	r1, r3
 90006d2:	88a0      	ldrh	r0, [r4, #4]
 90006d4:	448b      	add	fp, r1
 90006d6:	f000 f864 	bl	90007a2 <fata_morgana_update_blocks_dont_redraw+0x46>
 90006da:	465b      	mov	r3, fp
 90006dc:	2200      	movs	r2, #0
 90006de:	2b09      	cmp	r3, #9
 90006e0:	dd06      	ble.n	90006f0 <fata_morgana_setmaptiles.constprop.0+0xf8>
 90006e2:	3201      	adds	r2, #1
 90006e4:	2b10      	cmp	r3, #16
 90006e6:	dd03      	ble.n	90006f0 <fata_morgana_setmaptiles.constprop.0+0xf8>
 90006e8:	3202      	adds	r2, #2
 90006ea:	2b19      	cmp	r3, #25
 90006ec:	dc00      	bgt.n	90006f0 <fata_morgana_setmaptiles.constprop.0+0xf8>
 90006ee:	3a01      	subs	r2, #1
 90006f0:	0083      	lsls	r3, r0, #2
 90006f2:	1818      	adds	r0, r3, r0
 90006f4:	4643      	mov	r3, r8
 90006f6:	1882      	adds	r2, r0, r2
 90006f8:	0040      	lsls	r0, r0, #1
 90006fa:	4440      	add	r0, r8
 90006fc:	0052      	lsls	r2, r2, #1
 90006fe:	5ad2      	ldrh	r2, [r2, r3]
 9000700:	8903      	ldrh	r3, [r0, #8]
 9000702:	431a      	orrs	r2, r3
 9000704:	2302      	movs	r3, #2
 9000706:	5ee1      	ldrsh	r1, [r4, r3]
 9000708:	2300      	movs	r3, #0
 900070a:	5ee0      	ldrsh	r0, [r4, r3]
 900070c:	f000 f848 	bl	90007a0 <fata_morgana_update_blocks_dont_redraw+0x44>
 9000710:	2302      	movs	r3, #2
 9000712:	5ee1      	ldrsh	r1, [r4, r3]
 9000714:	2300      	movs	r3, #0
 9000716:	5ee0      	ldrsh	r0, [r4, r3]
 9000718:	4b0c      	ldr	r3, [pc, #48]	@ (900074c <fata_morgana_setmaptiles.constprop.0+0x154>)
 900071a:	f000 f83f 	bl	900079c <fata_morgana_update_blocks_dont_redraw+0x40>
 900071e:	e7bb      	b.n	9000698 <fata_morgana_setmaptiles.constprop.0+0xa0>
 9000720:	4667      	mov	r7, ip
 9000722:	5aba      	ldrh	r2, [r7, r2]
 9000724:	4542      	cmp	r2, r8
 9000726:	daa6      	bge.n	9000676 <fata_morgana_setmaptiles.constprop.0+0x7e>
 9000728:	1c58      	adds	r0, r3, #1
 900072a:	e7a5      	b.n	9000678 <fata_morgana_setmaptiles.constprop.0+0x80>
 900072c:	00000000 	.word	0x00000000
 9000730:	00001503 	.word	0x00001503
	...

09000750 <do_fata_morgana>:
 9000750:	b510      	push	{r4, lr}
 9000752:	f7ff ff51 	bl	90005f8 <fata_morgana_setmaptiles.constprop.0>
 9000756:	bc10      	pop	{r4}
 9000758:	bc01      	pop	{r0}
 900075a:	4700      	bx	r0

0900075c <fata_morgana_update_blocks_dont_redraw>:
 900075c:	b510      	push	{r4, lr}
 900075e:	b082      	sub	sp, #8
 9000760:	f7ff ff4a 	bl	90005f8 <fata_morgana_setmaptiles.constprop.0>
 9000764:	466b      	mov	r3, sp
 9000766:	a801      	add	r0, sp, #4
 9000768:	1d99      	adds	r1, r3, #6
 900076a:	4b09      	ldr	r3, [pc, #36]	@ (9000790 <fata_morgana_update_blocks_dont_redraw+0x34>)
 900076c:	f000 f816 	bl	900079c <fata_morgana_update_blocks_dont_redraw+0x40>
 9000770:	466b      	mov	r3, sp
 9000772:	2206      	movs	r2, #6
 9000774:	5e9b      	ldrsh	r3, [r3, r2]
 9000776:	466a      	mov	r2, sp
 9000778:	2004      	movs	r0, #4
 900077a:	2104      	movs	r1, #4
 900077c:	5e52      	ldrsh	r2, [r2, r1]
 900077e:	4c05      	ldr	r4, [pc, #20]	@ (9000794 <fata_morgana_update_blocks_dont_redraw+0x38>)
 9000780:	4905      	ldr	r1, [pc, #20]	@ (9000798 <fata_morgana_update_blocks_dont_redraw+0x3c>)
 9000782:	f000 f80c 	bl	900079e <fata_morgana_update_blocks_dont_redraw+0x42>
 9000786:	b002      	add	sp, #8
 9000788:	bc10      	pop	{r4}
 900078a:	bc01      	pop	{r0}
 900078c:	4700      	bx	r0
 900078e:	46c0      	nop			@ (mov r8, r8)
	...
 9000798:	00000090 	.word	0x00000090
 900079c:	4718      	bx	r3
 900079e:	4720      	bx	r4
 90007a0:	4748      	bx	r9
 90007a2:	4750      	bx	sl

090007a4 <egg_warm_update>:
 90007a4:	b510      	push	{r4, lr}
 90007a6:	b082      	sub	sp, #8
 90007a8:	466b      	mov	r3, sp
 90007aa:	a801      	add	r0, sp, #4
 90007ac:	1d99      	adds	r1, r3, #6
 90007ae:	4b15      	ldr	r3, [pc, #84]	@ (9000804 <egg_warm_update+0x60>)
 90007b0:	f000 f834 	bl	900081c <egg_warm_update+0x78>
 90007b4:	466b      	mov	r3, sp
 90007b6:	2106      	movs	r1, #6
 90007b8:	5e59      	ldrsh	r1, [r3, r1]
 90007ba:	466b      	mov	r3, sp
 90007bc:	2004      	movs	r0, #4
 90007be:	5e18      	ldrsh	r0, [r3, r0]
 90007c0:	4b11      	ldr	r3, [pc, #68]	@ (9000808 <egg_warm_update+0x64>)
 90007c2:	f000 f82b 	bl	900081c <egg_warm_update+0x78>
 90007c6:	4b11      	ldr	r3, [pc, #68]	@ (900080c <egg_warm_update+0x68>)
 90007c8:	0004      	movs	r4, r0
 90007ca:	4811      	ldr	r0, [pc, #68]	@ (9000810 <egg_warm_update+0x6c>)
 90007cc:	f000 f826 	bl	900081c <egg_warm_update+0x78>
 90007d0:	4a10      	ldr	r2, [pc, #64]	@ (9000814 <egg_warm_update+0x70>)
 90007d2:	4694      	mov	ip, r2
 90007d4:	4b10      	ldr	r3, [pc, #64]	@ (9000818 <egg_warm_update+0x74>)
 90007d6:	681b      	ldr	r3, [r3, #0]
 90007d8:	889b      	ldrh	r3, [r3, #4]
 90007da:	4463      	add	r3, ip
 90007dc:	2b00      	cmp	r3, #0
 90007de:	d103      	bne.n	90007e8 <egg_warm_update+0x44>
 90007e0:	0624      	lsls	r4, r4, #24
 90007e2:	0e24      	lsrs	r4, r4, #24
 90007e4:	2c28      	cmp	r4, #40	@ 0x28
 90007e6:	d008      	beq.n	90007fa <egg_warm_update+0x56>
 90007e8:	8803      	ldrh	r3, [r0, #0]
 90007ea:	2b00      	cmp	r3, #0
 90007ec:	d001      	beq.n	90007f2 <egg_warm_update+0x4e>
 90007ee:	3b01      	subs	r3, #1
 90007f0:	8003      	strh	r3, [r0, #0]
 90007f2:	b002      	add	sp, #8
 90007f4:	bc10      	pop	{r4}
 90007f6:	bc01      	pop	{r0}
 90007f8:	4700      	bx	r0
 90007fa:	23fa      	movs	r3, #250	@ 0xfa
 90007fc:	009b      	lsls	r3, r3, #2
 90007fe:	8003      	strh	r3, [r0, #0]
 9000800:	e7f7      	b.n	90007f2 <egg_warm_update+0x4e>
 9000802:	46c0      	nop			@ (mov r8, r8)
	...
 9000810:	000050ce 	.word	0x000050ce
 9000814:	fffff9fd 	.word	0xfffff9fd
 9000818:	00000000 	.word	0x00000000
 900081c:	4718      	bx	r3
 900081e:	46c0      	nop			@ (mov r8, r8)

09000820 <player_step_force_on_cloud>:
 9000820:	b570      	push	{r4, r5, r6, lr}
 9000822:	4b0e      	ldr	r3, [pc, #56]	@ (900085c <player_step_force_on_cloud+0x3c>)
 9000824:	f000 f84c 	bl	90008c0 <player_step_on_behavior+0x50>
 9000828:	1e04      	subs	r4, r0, #0
 900082a:	d005      	beq.n	9000838 <player_step_force_on_cloud+0x18>
 900082c:	2206      	movs	r2, #6
 900082e:	4b0c      	ldr	r3, [pc, #48]	@ (9000860 <player_step_force_on_cloud+0x40>)
 9000830:	781b      	ldrb	r3, [r3, #0]
 9000832:	421a      	tst	r2, r3
 9000834:	d004      	beq.n	9000840 <player_step_force_on_cloud+0x20>
 9000836:	2400      	movs	r4, #0
 9000838:	0020      	movs	r0, r4
 900083a:	bc70      	pop	{r4, r5, r6}
 900083c:	bc02      	pop	{r1}
 900083e:	4708      	bx	r1
 9000840:	4d08      	ldr	r5, [pc, #32]	@ (9000864 <player_step_force_on_cloud+0x44>)
 9000842:	2100      	movs	r1, #0
 9000844:	0028      	movs	r0, r5
 9000846:	4b08      	ldr	r3, [pc, #32]	@ (9000868 <player_step_force_on_cloud+0x48>)
 9000848:	f000 f83a 	bl	90008c0 <player_step_on_behavior+0x50>
 900084c:	0006      	movs	r6, r0
 900084e:	4b07      	ldr	r3, [pc, #28]	@ (900086c <player_step_force_on_cloud+0x4c>)
 9000850:	f000 f836 	bl	90008c0 <player_step_on_behavior+0x50>
 9000854:	0030      	movs	r0, r6
 9000856:	f000 f834 	bl	90008c2 <player_step_on_behavior+0x52>
 900085a:	e7ed      	b.n	9000838 <player_step_force_on_cloud+0x18>
	...

09000870 <player_step_on_behavior>:
 9000870:	b500      	push	{lr}
 9000872:	b083      	sub	sp, #12
 9000874:	466b      	mov	r3, sp
 9000876:	a801      	add	r0, sp, #4
 9000878:	1d99      	adds	r1, r3, #6
 900087a:	4b0e      	ldr	r3, [pc, #56]	@ (90008b4 <player_step_on_behavior+0x44>)
 900087c:	f000 f820 	bl	90008c0 <player_step_on_behavior+0x50>
 9000880:	466b      	mov	r3, sp
 9000882:	2106      	movs	r1, #6
 9000884:	5e59      	ldrsh	r1, [r3, r1]
 9000886:	466b      	mov	r3, sp
 9000888:	2004      	movs	r0, #4
 900088a:	5e18      	ldrsh	r0, [r3, r0]
 900088c:	4b0a      	ldr	r3, [pc, #40]	@ (90008b8 <player_step_on_behavior+0x48>)
 900088e:	f000 f817 	bl	90008c0 <player_step_on_behavior+0x50>
 9000892:	0600      	lsls	r0, r0, #24
 9000894:	4b09      	ldr	r3, [pc, #36]	@ (90008bc <player_step_on_behavior+0x4c>)
 9000896:	0e00      	lsrs	r0, r0, #24
 9000898:	f000 f812 	bl	90008c0 <player_step_on_behavior+0x50>
 900089c:	2800      	cmp	r0, #0
 900089e:	d004      	beq.n	90008aa <player_step_on_behavior+0x3a>
 90008a0:	6903      	ldr	r3, [r0, #16]
 90008a2:	2b00      	cmp	r3, #0
 90008a4:	d004      	beq.n	90008b0 <player_step_on_behavior+0x40>
 90008a6:	f000 f80b 	bl	90008c0 <player_step_on_behavior+0x50>
 90008aa:	b003      	add	sp, #12
 90008ac:	bc02      	pop	{r1}
 90008ae:	4708      	bx	r1
 90008b0:	2000      	movs	r0, #0
 90008b2:	e7fa      	b.n	90008aa <player_step_on_behavior+0x3a>
	...
 90008c0:	4718      	bx	r3
 90008c2:	4728      	bx	r5

090008c4 <tile_is_reflective>:
 90008c4:	0003      	movs	r3, r0
 90008c6:	b510      	push	{r4, lr}
 90008c8:	2001      	movs	r0, #1
 90008ca:	2bba      	cmp	r3, #186	@ 0xba
 90008cc:	d003      	beq.n	90008d6 <tile_is_reflective+0x12>
 90008ce:	0018      	movs	r0, r3
 90008d0:	4b02      	ldr	r3, [pc, #8]	@ (90008dc <tile_is_reflective+0x18>)
 90008d2:	f000 f805 	bl	90008e0 <tile_is_reflective+0x1c>
 90008d6:	bc10      	pop	{r4}
 90008d8:	bc02      	pop	{r1}
 90008da:	4708      	bx	r1
 90008dc:	00000000 	.word	0x00000000
 90008e0:	4718      	bx	r3
 90008e2:	46c0      	nop			@ (mov r8, r8)

090008e4 <repel_use>:
 90008e4:	b510      	push	{r4, lr}
 90008e6:	4814      	ldr	r0, [pc, #80]	@ (9000938 <repel_use+0x54>)
 90008e8:	4c14      	ldr	r4, [pc, #80]	@ (900093c <repel_use+0x58>)
 90008ea:	f000 f830 	bl	900094e <repel_use+0x6a>
 90008ee:	8803      	ldrh	r3, [r0, #0]
 90008f0:	2b54      	cmp	r3, #84	@ 0x54
 90008f2:	d00f      	beq.n	9000914 <repel_use+0x30>
 90008f4:	2b56      	cmp	r3, #86	@ 0x56
 90008f6:	d019      	beq.n	900092c <repel_use+0x48>
 90008f8:	2b53      	cmp	r3, #83	@ 0x53
 90008fa:	d011      	beq.n	9000920 <repel_use+0x3c>
 90008fc:	480e      	ldr	r0, [pc, #56]	@ (9000938 <repel_use+0x54>)
 90008fe:	f000 f826 	bl	900094e <repel_use+0x6a>
 9000902:	490f      	ldr	r1, [pc, #60]	@ (9000940 <repel_use+0x5c>)
 9000904:	8802      	ldrh	r2, [r0, #0]
 9000906:	4b0f      	ldr	r3, [pc, #60]	@ (9000944 <repel_use+0x60>)
 9000908:	2001      	movs	r0, #1
 900090a:	f000 f81f 	bl	900094c <repel_use+0x68>
 900090e:	bc10      	pop	{r4}
 9000910:	bc01      	pop	{r0}
 9000912:	4700      	bx	r0
 9000914:	480c      	ldr	r0, [pc, #48]	@ (9000948 <repel_use+0x64>)
 9000916:	f000 f81a 	bl	900094e <repel_use+0x6a>
 900091a:	23fa      	movs	r3, #250	@ 0xfa
 900091c:	8003      	strh	r3, [r0, #0]
 900091e:	e7f6      	b.n	900090e <repel_use+0x2a>
 9000920:	4809      	ldr	r0, [pc, #36]	@ (9000948 <repel_use+0x64>)
 9000922:	f000 f814 	bl	900094e <repel_use+0x6a>
 9000926:	23c8      	movs	r3, #200	@ 0xc8
 9000928:	8003      	strh	r3, [r0, #0]
 900092a:	e7f0      	b.n	900090e <repel_use+0x2a>
 900092c:	4806      	ldr	r0, [pc, #24]	@ (9000948 <repel_use+0x64>)
 900092e:	f000 f80e 	bl	900094e <repel_use+0x6a>
 9000932:	2364      	movs	r3, #100	@ 0x64
 9000934:	8003      	strh	r3, [r0, #0]
 9000936:	e7ea      	b.n	900090e <repel_use+0x2a>
 9000938:	0000800e 	.word	0x0000800e
 900093c:	00000000 	.word	0x00000000
 9000940:	000000b0 	.word	0x000000b0
 9000944:	00000000 	.word	0x00000000
 9000948:	00004020 	.word	0x00004020
 900094c:	4718      	bx	r3
 900094e:	4720      	bx	r4

09000950 <singpost_behavior_xBC>:
 9000950:	b500      	push	{lr}
 9000952:	b083      	sub	sp, #12
 9000954:	466b      	mov	r3, sp
 9000956:	a801      	add	r0, sp, #4
 9000958:	1d99      	adds	r1, r3, #6
 900095a:	4b08      	ldr	r3, [pc, #32]	@ (900097c <singpost_behavior_xBC+0x2c>)
 900095c:	f000 f9ac 	bl	9000cb8 <signpost_get_script+0x254>
 9000960:	466b      	mov	r3, sp
 9000962:	2106      	movs	r1, #6
 9000964:	5e59      	ldrsh	r1, [r3, r1]
 9000966:	466b      	mov	r3, sp
 9000968:	2004      	movs	r0, #4
 900096a:	5e18      	ldrsh	r0, [r3, r0]
 900096c:	4b04      	ldr	r3, [pc, #16]	@ (9000980 <singpost_behavior_xBC+0x30>)
 900096e:	f000 f9a3 	bl	9000cb8 <signpost_get_script+0x254>
 9000972:	2000      	movs	r0, #0
 9000974:	b003      	add	sp, #12
 9000976:	bc02      	pop	{r1}
 9000978:	4708      	bx	r1
 900097a:	46c0      	nop			@ (mov r8, r8)
	...

09000984 <hidden_flag_by_chunk>:
 9000984:	0003      	movs	r3, r0
 9000986:	000a      	movs	r2, r1
 9000988:	b510      	push	{r4, lr}
 900098a:	2902      	cmp	r1, #2
 900098c:	d011      	beq.n	90009b2 <hidden_flag_by_chunk+0x2e>
 900098e:	d808      	bhi.n	90009a2 <hidden_flag_by_chunk+0x1e>
 9000990:	21fa      	movs	r1, #250	@ 0xfa
 9000992:	0089      	lsls	r1, r1, #2
 9000994:	1840      	adds	r0, r0, r1
 9000996:	2a00      	cmp	r2, #0
 9000998:	d008      	beq.n	90009ac <hidden_flag_by_chunk+0x28>
 900099a:	22b0      	movs	r2, #176	@ 0xb0
 900099c:	0112      	lsls	r2, r2, #4
 900099e:	1898      	adds	r0, r3, r2
 90009a0:	e004      	b.n	90009ac <hidden_flag_by_chunk+0x28>
 90009a2:	21d0      	movs	r1, #208	@ 0xd0
 90009a4:	0109      	lsls	r1, r1, #4
 90009a6:	1840      	adds	r0, r0, r1
 90009a8:	2a03      	cmp	r2, #3
 90009aa:	d106      	bne.n	90009ba <hidden_flag_by_chunk+0x36>
 90009ac:	bc10      	pop	{r4}
 90009ae:	bc02      	pop	{r1}
 90009b0:	4708      	bx	r1
 90009b2:	22c0      	movs	r2, #192	@ 0xc0
 90009b4:	0112      	lsls	r2, r2, #4
 90009b6:	1880      	adds	r0, r0, r2
 90009b8:	e7f8      	b.n	90009ac <hidden_flag_by_chunk+0x28>
 90009ba:	2001      	movs	r0, #1
 90009bc:	4902      	ldr	r1, [pc, #8]	@ (90009c8 <hidden_flag_by_chunk+0x44>)
 90009be:	4b03      	ldr	r3, [pc, #12]	@ (90009cc <hidden_flag_by_chunk+0x48>)
 90009c0:	f000 f97a 	bl	9000cb8 <signpost_get_script+0x254>
 90009c4:	2000      	movs	r0, #0
 90009c6:	e7f1      	b.n	90009ac <hidden_flag_by_chunk+0x28>
 90009c8:	000000c4 	.word	0x000000c4
 90009cc:	00000000 	.word	0x00000000

090009d0 <_test_flags>:
 90009d0:	b5f0      	push	{r4, r5, r6, r7, lr}
 90009d2:	46c6      	mov	lr, r8
 90009d4:	24fa      	movs	r4, #250	@ 0xfa
 90009d6:	4b0f      	ldr	r3, [pc, #60]	@ (9000a14 <_test_flags+0x44>)
 90009d8:	b500      	push	{lr}
 90009da:	4698      	mov	r8, r3
 90009dc:	4e0e      	ldr	r6, [pc, #56]	@ (9000a18 <_test_flags+0x48>)
 90009de:	4f0f      	ldr	r7, [pc, #60]	@ (9000a1c <_test_flags+0x4c>)
 90009e0:	4d0f      	ldr	r5, [pc, #60]	@ (9000a20 <_test_flags+0x50>)
 90009e2:	00a4      	lsls	r4, r4, #2
 90009e4:	e002      	b.n	90009ec <_test_flags+0x1c>
 90009e6:	3401      	adds	r4, #1
 90009e8:	42ac      	cmp	r4, r5
 90009ea:	d00d      	beq.n	9000a08 <_test_flags+0x38>
 90009ec:	0420      	lsls	r0, r4, #16
 90009ee:	0c00      	lsrs	r0, r0, #16
 90009f0:	f000 f964 	bl	9000cbc <signpost_get_script+0x258>
 90009f4:	2800      	cmp	r0, #0
 90009f6:	d0f6      	beq.n	90009e6 <_test_flags+0x16>
 90009f8:	0022      	movs	r2, r4
 90009fa:	4641      	mov	r1, r8
 90009fc:	2004      	movs	r0, #4
 90009fe:	3401      	adds	r4, #1
 9000a00:	f000 f95d 	bl	9000cbe <signpost_get_script+0x25a>
 9000a04:	42ac      	cmp	r4, r5
 9000a06:	d1f1      	bne.n	90009ec <_test_flags+0x1c>
 9000a08:	bc80      	pop	{r7}
 9000a0a:	46b8      	mov	r8, r7
 9000a0c:	bcf0      	pop	{r4, r5, r6, r7}
 9000a0e:	bc01      	pop	{r0}
 9000a10:	4700      	bx	r0
 9000a12:	46c0      	nop			@ (mov r8, r8)
 9000a14:	000000e0 	.word	0x000000e0
	...
 9000a20:	0000044c 	.word	0x0000044c

09000a24 <hidden_item_get_field>:
 9000a24:	b510      	push	{r4, lr}
 9000a26:	0f42      	lsrs	r2, r0, #29
 9000a28:	2904      	cmp	r1, #4
 9000a2a:	d816      	bhi.n	9000a5a <hidden_item_get_field+0x36>
 9000a2c:	008b      	lsls	r3, r1, #2
 9000a2e:	490c      	ldr	r1, [pc, #48]	@ (9000a60 <hidden_item_get_field+0x3c>)
 9000a30:	58cb      	ldr	r3, [r1, r3]
 9000a32:	469f      	mov	pc, r3
 9000a34:	00c0      	lsls	r0, r0, #3
 9000a36:	0fc0      	lsrs	r0, r0, #31
 9000a38:	bc10      	pop	{r4}
 9000a3a:	bc02      	pop	{r1}
 9000a3c:	4708      	bx	r1
 9000a3e:	0010      	movs	r0, r2
 9000a40:	e7fa      	b.n	9000a38 <hidden_item_get_field+0x14>
 9000a42:	0400      	lsls	r0, r0, #16
 9000a44:	0c00      	lsrs	r0, r0, #16
 9000a46:	e7f7      	b.n	9000a38 <hidden_item_get_field+0x14>
 9000a48:	0200      	lsls	r0, r0, #8
 9000a4a:	0011      	movs	r1, r2
 9000a4c:	0e00      	lsrs	r0, r0, #24
 9000a4e:	f7ff fffe 	bl	9000984 <hidden_flag_by_chunk>
 9000a52:	e7f1      	b.n	9000a38 <hidden_item_get_field+0x14>
 9000a54:	0100      	lsls	r0, r0, #4
 9000a56:	0f00      	lsrs	r0, r0, #28
 9000a58:	e7ee      	b.n	9000a38 <hidden_item_get_field+0x14>
 9000a5a:	2000      	movs	r0, #0
 9000a5c:	e7ec      	b.n	9000a38 <hidden_item_get_field+0x14>
 9000a5e:	46c0      	nop			@ (mov r8, r8)
 9000a60:	000046d0 	.word	0x000046d0

09000a64 <signpost_get_script>:
 9000a64:	b5f0      	push	{r4, r5, r6, r7, lr}
 9000a66:	46d6      	mov	lr, sl
 9000a68:	4646      	mov	r6, r8
 9000a6a:	464f      	mov	r7, r9
 9000a6c:	b5c0      	push	{r6, r7, lr}
 9000a6e:	0015      	movs	r5, r2
 9000a70:	000e      	movs	r6, r1
 9000a72:	8842      	ldrh	r2, [r0, #2]
 9000a74:	8801      	ldrh	r1, [r0, #0]
 9000a76:	3a07      	subs	r2, #7
 9000a78:	3907      	subs	r1, #7
 9000a7a:	0412      	lsls	r2, r2, #16
 9000a7c:	0409      	lsls	r1, r1, #16
 9000a7e:	7903      	ldrb	r3, [r0, #4]
 9000a80:	4c75      	ldr	r4, [pc, #468]	@ (9000c58 <signpost_get_script+0x1f4>)
 9000a82:	4876      	ldr	r0, [pc, #472]	@ (9000c5c <signpost_get_script+0x1f8>)
 9000a84:	1412      	asrs	r2, r2, #16
 9000a86:	1409      	asrs	r1, r1, #16
 9000a88:	f000 f917 	bl	9000cba <signpost_get_script+0x256>
 9000a8c:	1e04      	subs	r4, r0, #0
 9000a8e:	d028      	beq.n	9000ae2 <signpost_get_script+0x7e>
 9000a90:	88c0      	ldrh	r0, [r0, #6]
 9000a92:	2800      	cmp	r0, #0
 9000a94:	d120      	bne.n	9000ad8 <signpost_get_script+0x74>
 9000a96:	68a3      	ldr	r3, [r4, #8]
 9000a98:	2b00      	cmp	r3, #0
 9000a9a:	d100      	bne.n	9000a9e <signpost_get_script+0x3a>
 9000a9c:	e0da      	b.n	9000c54 <signpost_get_script+0x1f0>
 9000a9e:	7963      	ldrb	r3, [r4, #5]
 9000aa0:	2b08      	cmp	r3, #8
 9000aa2:	d805      	bhi.n	9000ab0 <signpost_get_script+0x4c>
 9000aa4:	4a6e      	ldr	r2, [pc, #440]	@ (9000c60 <signpost_get_script+0x1fc>)
 9000aa6:	009b      	lsls	r3, r3, #2
 9000aa8:	58d3      	ldr	r3, [r2, r3]
 9000aaa:	469f      	mov	pc, r3
 9000aac:	2d02      	cmp	r5, #2
 9000aae:	d118      	bne.n	9000ae2 <signpost_get_script+0x7e>
 9000ab0:	0029      	movs	r1, r5
 9000ab2:	0030      	movs	r0, r6
 9000ab4:	4b6b      	ldr	r3, [pc, #428]	@ (9000c64 <signpost_get_script+0x200>)
 9000ab6:	f000 f8ff 	bl	9000cb8 <signpost_get_script+0x254>
 9000aba:	28ff      	cmp	r0, #255	@ 0xff
 9000abc:	d154      	bne.n	9000b68 <signpost_get_script+0x104>
 9000abe:	486a      	ldr	r0, [pc, #424]	@ (9000c68 <signpost_get_script+0x204>)
 9000ac0:	4b6a      	ldr	r3, [pc, #424]	@ (9000c6c <signpost_get_script+0x208>)
 9000ac2:	f000 f8f9 	bl	9000cb8 <signpost_get_script+0x254>
 9000ac6:	8005      	strh	r5, [r0, #0]
 9000ac8:	68a0      	ldr	r0, [r4, #8]
 9000aca:	bce0      	pop	{r5, r6, r7}
 9000acc:	46ba      	mov	sl, r7
 9000ace:	46b1      	mov	r9, r6
 9000ad0:	46a8      	mov	r8, r5
 9000ad2:	bcf0      	pop	{r4, r5, r6, r7}
 9000ad4:	bc02      	pop	{r1}
 9000ad6:	4708      	bx	r1
 9000ad8:	4b65      	ldr	r3, [pc, #404]	@ (9000c70 <signpost_get_script+0x20c>)
 9000ada:	f000 f8ed 	bl	9000cb8 <signpost_get_script+0x254>
 9000ade:	2800      	cmp	r0, #0
 9000ae0:	d0d9      	beq.n	9000a96 <signpost_get_script+0x32>
 9000ae2:	2000      	movs	r0, #0
 9000ae4:	e7f1      	b.n	9000aca <signpost_get_script+0x66>
 9000ae6:	2103      	movs	r1, #3
 9000ae8:	68a0      	ldr	r0, [r4, #8]
 9000aea:	f7ff fffe 	bl	9000a24 <hidden_item_get_field>
 9000aee:	2800      	cmp	r0, #0
 9000af0:	d1f7      	bne.n	9000ae2 <signpost_get_script+0x7e>
 9000af2:	2100      	movs	r1, #0
 9000af4:	68a0      	ldr	r0, [r4, #8]
 9000af6:	f7ff fffe 	bl	9000a24 <hidden_item_get_field>
 9000afa:	4e5c      	ldr	r6, [pc, #368]	@ (9000c6c <signpost_get_script+0x208>)
 9000afc:	0007      	movs	r7, r0
 9000afe:	485d      	ldr	r0, [pc, #372]	@ (9000c74 <signpost_get_script+0x210>)
 9000b00:	f000 f8dc 	bl	9000cbc <signpost_get_script+0x258>
 9000b04:	2101      	movs	r1, #1
 9000b06:	8007      	strh	r7, [r0, #0]
 9000b08:	68a0      	ldr	r0, [r4, #8]
 9000b0a:	f7ff fffe 	bl	9000a24 <hidden_item_get_field>
 9000b0e:	0007      	movs	r7, r0
 9000b10:	4859      	ldr	r0, [pc, #356]	@ (9000c78 <signpost_get_script+0x214>)
 9000b12:	f000 f8d3 	bl	9000cbc <signpost_get_script+0x258>
 9000b16:	2102      	movs	r1, #2
 9000b18:	8007      	strh	r7, [r0, #0]
 9000b1a:	68a0      	ldr	r0, [r4, #8]
 9000b1c:	f7ff fffe 	bl	9000a24 <hidden_item_get_field>
 9000b20:	0007      	movs	r7, r0
 9000b22:	4856      	ldr	r0, [pc, #344]	@ (9000c7c <signpost_get_script+0x218>)
 9000b24:	f000 f8ca 	bl	9000cbc <signpost_get_script+0x258>
 9000b28:	2104      	movs	r1, #4
 9000b2a:	8007      	strh	r7, [r0, #0]
 9000b2c:	68a0      	ldr	r0, [r4, #8]
 9000b2e:	f7ff fffe 	bl	9000a24 <hidden_item_get_field>
 9000b32:	0004      	movs	r4, r0
 9000b34:	4852      	ldr	r0, [pc, #328]	@ (9000c80 <signpost_get_script+0x21c>)
 9000b36:	f000 f8c1 	bl	9000cbc <signpost_get_script+0x258>
 9000b3a:	8004      	strh	r4, [r0, #0]
 9000b3c:	484e      	ldr	r0, [pc, #312]	@ (9000c78 <signpost_get_script+0x214>)
 9000b3e:	f000 f8bd 	bl	9000cbc <signpost_get_script+0x258>
 9000b42:	4b4b      	ldr	r3, [pc, #300]	@ (9000c70 <signpost_get_script+0x20c>)
 9000b44:	8800      	ldrh	r0, [r0, #0]
 9000b46:	f000 f8b7 	bl	9000cb8 <signpost_get_script+0x254>
 9000b4a:	2800      	cmp	r0, #0
 9000b4c:	d1c9      	bne.n	9000ae2 <signpost_get_script+0x7e>
 9000b4e:	4846      	ldr	r0, [pc, #280]	@ (9000c68 <signpost_get_script+0x204>)
 9000b50:	f000 f8b4 	bl	9000cbc <signpost_get_script+0x258>
 9000b54:	8005      	strh	r5, [r0, #0]
 9000b56:	4848      	ldr	r0, [pc, #288]	@ (9000c78 <signpost_get_script+0x214>)
 9000b58:	f000 f8b0 	bl	9000cbc <signpost_get_script+0x258>
 9000b5c:	4b49      	ldr	r3, [pc, #292]	@ (9000c84 <signpost_get_script+0x220>)
 9000b5e:	8800      	ldrh	r0, [r0, #0]
 9000b60:	f000 f8aa 	bl	9000cb8 <signpost_get_script+0x254>
 9000b64:	4848      	ldr	r0, [pc, #288]	@ (9000c88 <signpost_get_script+0x224>)
 9000b66:	e7b0      	b.n	9000aca <signpost_get_script+0x66>
 9000b68:	4b48      	ldr	r3, [pc, #288]	@ (9000c8c <signpost_get_script+0x228>)
 9000b6a:	f000 f8a5 	bl	9000cb8 <signpost_get_script+0x254>
 9000b6e:	e7a6      	b.n	9000abe <signpost_get_script+0x5a>
 9000b70:	7aa0      	ldrb	r0, [r4, #10]
 9000b72:	06c0      	lsls	r0, r0, #27
 9000b74:	4b46      	ldr	r3, [pc, #280]	@ (9000c90 <signpost_get_script+0x22c>)
 9000b76:	0ec0      	lsrs	r0, r0, #27
 9000b78:	f000 f89e 	bl	9000cb8 <signpost_get_script+0x254>
 9000b7c:	4b3c      	ldr	r3, [pc, #240]	@ (9000c70 <signpost_get_script+0x20c>)
 9000b7e:	0006      	movs	r6, r0
 9000b80:	4698      	mov	r8, r3
 9000b82:	f000 f899 	bl	9000cb8 <signpost_get_script+0x254>
 9000b86:	0032      	movs	r2, r6
 9000b88:	0003      	movs	r3, r0
 9000b8a:	4942      	ldr	r1, [pc, #264]	@ (9000c94 <signpost_get_script+0x230>)
 9000b8c:	2004      	movs	r0, #4
 9000b8e:	4f42      	ldr	r7, [pc, #264]	@ (9000c98 <signpost_get_script+0x234>)
 9000b90:	f000 f895 	bl	9000cbe <signpost_get_script+0x25a>
 9000b94:	0030      	movs	r0, r6
 9000b96:	f000 f893 	bl	9000cc0 <signpost_get_script+0x25c>
 9000b9a:	2800      	cmp	r0, #0
 9000b9c:	d0a1      	beq.n	9000ae2 <signpost_get_script+0x7e>
 9000b9e:	7aa0      	ldrb	r0, [r4, #10]
 9000ba0:	06c0      	lsls	r0, r0, #27
 9000ba2:	4b3e      	ldr	r3, [pc, #248]	@ (9000c9c <signpost_get_script+0x238>)
 9000ba4:	0ec0      	lsrs	r0, r0, #27
 9000ba6:	f000 f887 	bl	9000cb8 <signpost_get_script+0x254>
 9000baa:	4682      	mov	sl, r0
 9000bac:	4e2f      	ldr	r6, [pc, #188]	@ (9000c6c <signpost_get_script+0x208>)
 9000bae:	4832      	ldr	r0, [pc, #200]	@ (9000c78 <signpost_get_script+0x214>)
 9000bb0:	f000 f884 	bl	9000cbc <signpost_get_script+0x258>
 9000bb4:	4653      	mov	r3, sl
 9000bb6:	8003      	strh	r3, [r0, #0]
 9000bb8:	482e      	ldr	r0, [pc, #184]	@ (9000c74 <signpost_get_script+0x210>)
 9000bba:	f000 f87f 	bl	9000cbc <signpost_get_script+0x258>
 9000bbe:	8923      	ldrh	r3, [r4, #8]
 9000bc0:	8003      	strh	r3, [r0, #0]
 9000bc2:	8963      	ldrh	r3, [r4, #10]
 9000bc4:	059b      	lsls	r3, r3, #22
 9000bc6:	0edb      	lsrs	r3, r3, #27
 9000bc8:	4699      	mov	r9, r3
 9000bca:	482c      	ldr	r0, [pc, #176]	@ (9000c7c <signpost_get_script+0x218>)
 9000bcc:	f000 f876 	bl	9000cbc <signpost_get_script+0x258>
 9000bd0:	464b      	mov	r3, r9
 9000bd2:	2204      	movs	r2, #4
 9000bd4:	8003      	strh	r3, [r0, #0]
 9000bd6:	4932      	ldr	r1, [pc, #200]	@ (9000ca0 <signpost_get_script+0x23c>)
 9000bd8:	2004      	movs	r0, #4
 9000bda:	f000 f870 	bl	9000cbe <signpost_get_script+0x25a>
 9000bde:	0022      	movs	r2, r4
 9000be0:	4930      	ldr	r1, [pc, #192]	@ (9000ca4 <signpost_get_script+0x240>)
 9000be2:	3208      	adds	r2, #8
 9000be4:	2004      	movs	r0, #4
 9000be6:	f000 f86a 	bl	9000cbe <signpost_get_script+0x25a>
 9000bea:	4822      	ldr	r0, [pc, #136]	@ (9000c74 <signpost_get_script+0x210>)
 9000bec:	f000 f866 	bl	9000cbc <signpost_get_script+0x258>
 9000bf0:	8804      	ldrh	r4, [r0, #0]
 9000bf2:	4822      	ldr	r0, [pc, #136]	@ (9000c7c <signpost_get_script+0x218>)
 9000bf4:	f000 f862 	bl	9000cbc <signpost_get_script+0x258>
 9000bf8:	0022      	movs	r2, r4
 9000bfa:	8803      	ldrh	r3, [r0, #0]
 9000bfc:	492a      	ldr	r1, [pc, #168]	@ (9000ca8 <signpost_get_script+0x244>)
 9000bfe:	2004      	movs	r0, #4
 9000c00:	f000 f85d 	bl	9000cbe <signpost_get_script+0x25a>
 9000c04:	481c      	ldr	r0, [pc, #112]	@ (9000c78 <signpost_get_script+0x214>)
 9000c06:	f000 f859 	bl	9000cbc <signpost_get_script+0x258>
 9000c0a:	8804      	ldrh	r4, [r0, #0]
 9000c0c:	481a      	ldr	r0, [pc, #104]	@ (9000c78 <signpost_get_script+0x214>)
 9000c0e:	f000 f855 	bl	9000cbc <signpost_get_script+0x258>
 9000c12:	8800      	ldrh	r0, [r0, #0]
 9000c14:	f000 f854 	bl	9000cc0 <signpost_get_script+0x25c>
 9000c18:	0022      	movs	r2, r4
 9000c1a:	0003      	movs	r3, r0
 9000c1c:	4923      	ldr	r1, [pc, #140]	@ (9000cac <signpost_get_script+0x248>)
 9000c1e:	2004      	movs	r0, #4
 9000c20:	f000 f84d 	bl	9000cbe <signpost_get_script+0x25a>
 9000c24:	4650      	mov	r0, sl
 9000c26:	f000 f84b 	bl	9000cc0 <signpost_get_script+0x25c>
 9000c2a:	2800      	cmp	r0, #0
 9000c2c:	d000      	beq.n	9000c30 <signpost_get_script+0x1cc>
 9000c2e:	e758      	b.n	9000ae2 <signpost_get_script+0x7e>
 9000c30:	480d      	ldr	r0, [pc, #52]	@ (9000c68 <signpost_get_script+0x204>)
 9000c32:	f000 f843 	bl	9000cbc <signpost_get_script+0x258>
 9000c36:	8005      	strh	r5, [r0, #0]
 9000c38:	481d      	ldr	r0, [pc, #116]	@ (9000cb0 <signpost_get_script+0x24c>)
 9000c3a:	e746      	b.n	9000aca <signpost_get_script+0x66>
 9000c3c:	2d01      	cmp	r5, #1
 9000c3e:	d100      	bne.n	9000c42 <signpost_get_script+0x1de>
 9000c40:	e736      	b.n	9000ab0 <signpost_get_script+0x4c>
 9000c42:	e74e      	b.n	9000ae2 <signpost_get_script+0x7e>
 9000c44:	2d04      	cmp	r5, #4
 9000c46:	d100      	bne.n	9000c4a <signpost_get_script+0x1e6>
 9000c48:	e732      	b.n	9000ab0 <signpost_get_script+0x4c>
 9000c4a:	e74a      	b.n	9000ae2 <signpost_get_script+0x7e>
 9000c4c:	2d03      	cmp	r5, #3
 9000c4e:	d100      	bne.n	9000c52 <signpost_get_script+0x1ee>
 9000c50:	e72e      	b.n	9000ab0 <signpost_get_script+0x4c>
 9000c52:	e746      	b.n	9000ae2 <signpost_get_script+0x7e>
 9000c54:	4817      	ldr	r0, [pc, #92]	@ (9000cb4 <signpost_get_script+0x250>)
 9000c56:	e738      	b.n	9000aca <signpost_get_script+0x66>
	...
 9000c60:	000046e4 	.word	0x000046e4
 9000c64:	00000000 	.word	0x00000000
 9000c68:	0000800c 	.word	0x0000800c
	...
 9000c74:	00008005 	.word	0x00008005
 9000c78:	00008004 	.word	0x00008004
 9000c7c:	00008006 	.word	0x00008006
 9000c80:	00008007 	.word	0x00008007
	...
 9000c94:	000000f0 	.word	0x000000f0
	...
 9000ca0:	00000118 	.word	0x00000118
 9000ca4:	00000130 	.word	0x00000130
 9000ca8:	00000148 	.word	0x00000148
 9000cac:	00000164 	.word	0x00000164
	...
 9000cb8:	4718      	bx	r3
 9000cba:	4720      	bx	r4
 9000cbc:	4730      	bx	r6
 9000cbe:	4738      	bx	r7
 9000cc0:	4740      	bx	r8
 9000cc2:	46c0      	nop			@ (mov r8, r8)

09000cc4 <trigger_trainer_tipp>:
 9000cc4:	4b09      	ldr	r3, [pc, #36]	@ (9000cec <trigger_trainer_tipp+0x28>)
 9000cc6:	b510      	push	{r4, lr}
 9000cc8:	4809      	ldr	r0, [pc, #36]	@ (9000cf0 <trigger_trainer_tipp+0x2c>)
 9000cca:	f000 f8b5 	bl	9000e38 <get_trainer_tipp+0x144>
 9000cce:	8803      	ldrh	r3, [r0, #0]
 9000cd0:	0002      	movs	r2, r0
 9000cd2:	2b00      	cmp	r3, #0
 9000cd4:	d007      	beq.n	9000ce6 <trigger_trainer_tipp+0x22>
 9000cd6:	2000      	movs	r0, #0
 9000cd8:	3b01      	subs	r3, #1
 9000cda:	041b      	lsls	r3, r3, #16
 9000cdc:	0c1b      	lsrs	r3, r3, #16
 9000cde:	8013      	strh	r3, [r2, #0]
 9000ce0:	bc10      	pop	{r4}
 9000ce2:	bc02      	pop	{r1}
 9000ce4:	4708      	bx	r1
 9000ce6:	2332      	movs	r3, #50	@ 0x32
 9000ce8:	2001      	movs	r0, #1
 9000cea:	e7f8      	b.n	9000cde <trigger_trainer_tipp+0x1a>
 9000cec:	00000000 	.word	0x00000000
 9000cf0:	000050cc 	.word	0x000050cc

09000cf4 <get_trainer_tipp>:
 9000cf4:	b510      	push	{r4, lr}
 9000cf6:	483e      	ldr	r0, [pc, #248]	@ (9000df0 <get_trainer_tipp+0xfc>)
 9000cf8:	4c3e      	ldr	r4, [pc, #248]	@ (9000df4 <get_trainer_tipp+0x100>)
 9000cfa:	f000 f89e 	bl	9000e3a <get_trainer_tipp+0x146>
 9000cfe:	2800      	cmp	r0, #0
 9000d00:	d109      	bne.n	9000d16 <get_trainer_tipp+0x22>
 9000d02:	f7ff fffe 	bl	9000cc4 <trigger_trainer_tipp>
 9000d06:	2800      	cmp	r0, #0
 9000d08:	d02c      	beq.n	9000d64 <get_trainer_tipp+0x70>
 9000d0a:	4839      	ldr	r0, [pc, #228]	@ (9000df0 <get_trainer_tipp+0xfc>)
 9000d0c:	4b3a      	ldr	r3, [pc, #232]	@ (9000df8 <get_trainer_tipp+0x104>)
 9000d0e:	f000 f893 	bl	9000e38 <get_trainer_tipp+0x144>
 9000d12:	483a      	ldr	r0, [pc, #232]	@ (9000dfc <get_trainer_tipp+0x108>)
 9000d14:	e027      	b.n	9000d66 <get_trainer_tipp+0x72>
 9000d16:	483a      	ldr	r0, [pc, #232]	@ (9000e00 <get_trainer_tipp+0x10c>)
 9000d18:	f000 f88f 	bl	9000e3a <get_trainer_tipp+0x146>
 9000d1c:	2800      	cmp	r0, #0
 9000d1e:	d004      	beq.n	9000d2a <get_trainer_tipp+0x36>
 9000d20:	4838      	ldr	r0, [pc, #224]	@ (9000e04 <get_trainer_tipp+0x110>)
 9000d22:	f000 f88a 	bl	9000e3a <get_trainer_tipp+0x146>
 9000d26:	2800      	cmp	r0, #0
 9000d28:	d04d      	beq.n	9000dc6 <get_trainer_tipp+0xd2>
 9000d2a:	4837      	ldr	r0, [pc, #220]	@ (9000e08 <get_trainer_tipp+0x114>)
 9000d2c:	f000 f885 	bl	9000e3a <get_trainer_tipp+0x146>
 9000d30:	2800      	cmp	r0, #0
 9000d32:	d004      	beq.n	9000d3e <get_trainer_tipp+0x4a>
 9000d34:	4835      	ldr	r0, [pc, #212]	@ (9000e0c <get_trainer_tipp+0x118>)
 9000d36:	f000 f880 	bl	9000e3a <get_trainer_tipp+0x146>
 9000d3a:	2800      	cmp	r0, #0
 9000d3c:	d04d      	beq.n	9000dda <get_trainer_tipp+0xe6>
 9000d3e:	208f      	movs	r0, #143	@ 0x8f
 9000d40:	0080      	lsls	r0, r0, #2
 9000d42:	f000 f87a 	bl	9000e3a <get_trainer_tipp+0x146>
 9000d46:	2800      	cmp	r0, #0
 9000d48:	d110      	bne.n	9000d6c <get_trainer_tipp+0x78>
 9000d4a:	4831      	ldr	r0, [pc, #196]	@ (9000e10 <get_trainer_tipp+0x11c>)
 9000d4c:	f000 f875 	bl	9000e3a <get_trainer_tipp+0x146>
 9000d50:	2800      	cmp	r0, #0
 9000d52:	d11a      	bne.n	9000d8a <get_trainer_tipp+0x96>
 9000d54:	20b4      	movs	r0, #180	@ 0xb4
 9000d56:	2101      	movs	r1, #1
 9000d58:	4b2e      	ldr	r3, [pc, #184]	@ (9000e14 <get_trainer_tipp+0x120>)
 9000d5a:	0040      	lsls	r0, r0, #1
 9000d5c:	f000 f86c 	bl	9000e38 <get_trainer_tipp+0x144>
 9000d60:	2800      	cmp	r0, #0
 9000d62:	d121      	bne.n	9000da8 <get_trainer_tipp+0xb4>
 9000d64:	2000      	movs	r0, #0
 9000d66:	bc10      	pop	{r4}
 9000d68:	bc02      	pop	{r1}
 9000d6a:	4708      	bx	r1
 9000d6c:	482a      	ldr	r0, [pc, #168]	@ (9000e18 <get_trainer_tipp+0x124>)
 9000d6e:	f000 f864 	bl	9000e3a <get_trainer_tipp+0x146>
 9000d72:	2800      	cmp	r0, #0
 9000d74:	d1e9      	bne.n	9000d4a <get_trainer_tipp+0x56>
 9000d76:	f7ff fffe 	bl	9000cc4 <trigger_trainer_tipp>
 9000d7a:	2800      	cmp	r0, #0
 9000d7c:	d0f2      	beq.n	9000d64 <get_trainer_tipp+0x70>
 9000d7e:	4826      	ldr	r0, [pc, #152]	@ (9000e18 <get_trainer_tipp+0x124>)
 9000d80:	4b1d      	ldr	r3, [pc, #116]	@ (9000df8 <get_trainer_tipp+0x104>)
 9000d82:	f000 f859 	bl	9000e38 <get_trainer_tipp+0x144>
 9000d86:	4825      	ldr	r0, [pc, #148]	@ (9000e1c <get_trainer_tipp+0x128>)
 9000d88:	e7ed      	b.n	9000d66 <get_trainer_tipp+0x72>
 9000d8a:	4825      	ldr	r0, [pc, #148]	@ (9000e20 <get_trainer_tipp+0x12c>)
 9000d8c:	f000 f855 	bl	9000e3a <get_trainer_tipp+0x146>
 9000d90:	2800      	cmp	r0, #0
 9000d92:	d1df      	bne.n	9000d54 <get_trainer_tipp+0x60>
 9000d94:	f7ff fffe 	bl	9000cc4 <trigger_trainer_tipp>
 9000d98:	2800      	cmp	r0, #0
 9000d9a:	d0e3      	beq.n	9000d64 <get_trainer_tipp+0x70>
 9000d9c:	4820      	ldr	r0, [pc, #128]	@ (9000e20 <get_trainer_tipp+0x12c>)
 9000d9e:	4b16      	ldr	r3, [pc, #88]	@ (9000df8 <get_trainer_tipp+0x104>)
 9000da0:	f000 f84a 	bl	9000e38 <get_trainer_tipp+0x144>
 9000da4:	481f      	ldr	r0, [pc, #124]	@ (9000e24 <get_trainer_tipp+0x130>)
 9000da6:	e7de      	b.n	9000d66 <get_trainer_tipp+0x72>
 9000da8:	481f      	ldr	r0, [pc, #124]	@ (9000e28 <get_trainer_tipp+0x134>)
 9000daa:	f000 f846 	bl	9000e3a <get_trainer_tipp+0x146>
 9000dae:	2800      	cmp	r0, #0
 9000db0:	d1d8      	bne.n	9000d64 <get_trainer_tipp+0x70>
 9000db2:	f7ff fffe 	bl	9000cc4 <trigger_trainer_tipp>
 9000db6:	2800      	cmp	r0, #0
 9000db8:	d0d4      	beq.n	9000d64 <get_trainer_tipp+0x70>
 9000dba:	481b      	ldr	r0, [pc, #108]	@ (9000e28 <get_trainer_tipp+0x134>)
 9000dbc:	4b0e      	ldr	r3, [pc, #56]	@ (9000df8 <get_trainer_tipp+0x104>)
 9000dbe:	f000 f83b 	bl	9000e38 <get_trainer_tipp+0x144>
 9000dc2:	481a      	ldr	r0, [pc, #104]	@ (9000e2c <get_trainer_tipp+0x138>)
 9000dc4:	e7cf      	b.n	9000d66 <get_trainer_tipp+0x72>
 9000dc6:	f7ff fffe 	bl	9000cc4 <trigger_trainer_tipp>
 9000dca:	2800      	cmp	r0, #0
 9000dcc:	d0ca      	beq.n	9000d64 <get_trainer_tipp+0x70>
 9000dce:	480d      	ldr	r0, [pc, #52]	@ (9000e04 <get_trainer_tipp+0x110>)
 9000dd0:	4b09      	ldr	r3, [pc, #36]	@ (9000df8 <get_trainer_tipp+0x104>)
 9000dd2:	f000 f831 	bl	9000e38 <get_trainer_tipp+0x144>
 9000dd6:	4816      	ldr	r0, [pc, #88]	@ (9000e30 <get_trainer_tipp+0x13c>)
 9000dd8:	e7c5      	b.n	9000d66 <get_trainer_tipp+0x72>
 9000dda:	f7ff fffe 	bl	9000cc4 <trigger_trainer_tipp>
 9000dde:	2800      	cmp	r0, #0
 9000de0:	d0c0      	beq.n	9000d64 <get_trainer_tipp+0x70>
 9000de2:	480a      	ldr	r0, [pc, #40]	@ (9000e0c <get_trainer_tipp+0x118>)
 9000de4:	4b04      	ldr	r3, [pc, #16]	@ (9000df8 <get_trainer_tipp+0x104>)
 9000de6:	f000 f827 	bl	9000e38 <get_trainer_tipp+0x144>
 9000dea:	4812      	ldr	r0, [pc, #72]	@ (9000e34 <get_trainer_tipp+0x140>)
 9000dec:	e7bb      	b.n	9000d66 <get_trainer_tipp+0x72>
 9000dee:	46c0      	nop			@ (mov r8, r8)
 9000df0:	00000969 	.word	0x00000969
	...
 9000e00:	00000828 	.word	0x00000828
 9000e04:	00000965 	.word	0x00000965
 9000e08:	00000915 	.word	0x00000915
 9000e0c:	00000966 	.word	0x00000966
 9000e10:	00000927 	.word	0x00000927
 9000e14:	00000000 	.word	0x00000000
 9000e18:	00000967 	.word	0x00000967
 9000e1c:	00000000 	.word	0x00000000
 9000e20:	00000968 	.word	0x00000968
 9000e24:	00000000 	.word	0x00000000
 9000e28:	0000096a 	.word	0x0000096a
	...
 9000e38:	4718      	bx	r3
 9000e3a:	4720      	bx	r4

09000e3c <get_tv_text>:
 9000e3c:	4b0c      	ldr	r3, [pc, #48]	@ (9000e70 <get_tv_text+0x34>)
 9000e3e:	b510      	push	{r4, lr}
 9000e40:	480c      	ldr	r0, [pc, #48]	@ (9000e74 <get_tv_text+0x38>)
 9000e42:	f000 f82d 	bl	9000ea0 <load_tv_text+0x14>
 9000e46:	8803      	ldrh	r3, [r0, #0]
 9000e48:	2b0a      	cmp	r3, #10
 9000e4a:	d90b      	bls.n	9000e64 <get_tv_text+0x28>
 9000e4c:	2b14      	cmp	r3, #20
 9000e4e:	d905      	bls.n	9000e5c <get_tv_text+0x20>
 9000e50:	2b1c      	cmp	r3, #28
 9000e52:	d90b      	bls.n	9000e6c <get_tv_text+0x30>
 9000e54:	2b21      	cmp	r3, #33	@ 0x21
 9000e56:	d907      	bls.n	9000e68 <get_tv_text+0x2c>
 9000e58:	4807      	ldr	r0, [pc, #28]	@ (9000e78 <get_tv_text+0x3c>)
 9000e5a:	e000      	b.n	9000e5e <get_tv_text+0x22>
 9000e5c:	4807      	ldr	r0, [pc, #28]	@ (9000e7c <get_tv_text+0x40>)
 9000e5e:	bc10      	pop	{r4}
 9000e60:	bc02      	pop	{r1}
 9000e62:	4708      	bx	r1
 9000e64:	4806      	ldr	r0, [pc, #24]	@ (9000e80 <get_tv_text+0x44>)
 9000e66:	e7fa      	b.n	9000e5e <get_tv_text+0x22>
 9000e68:	4806      	ldr	r0, [pc, #24]	@ (9000e84 <get_tv_text+0x48>)
 9000e6a:	e7f8      	b.n	9000e5e <get_tv_text+0x22>
 9000e6c:	4806      	ldr	r0, [pc, #24]	@ (9000e88 <get_tv_text+0x4c>)
 9000e6e:	e7f6      	b.n	9000e5e <get_tv_text+0x22>
 9000e70:	00000000 	.word	0x00000000
 9000e74:	00004051 	.word	0x00004051
	...

09000e8c <load_tv_text>:
 9000e8c:	b510      	push	{r4, lr}
 9000e8e:	f7ff fffe 	bl	9000e3c <get_tv_text>
 9000e92:	4b02      	ldr	r3, [pc, #8]	@ (9000e9c <load_tv_text+0x10>)
 9000e94:	6018      	str	r0, [r3, #0]
 9000e96:	bc10      	pop	{r4}
 9000e98:	bc01      	pop	{r0}
 9000e9a:	4700      	bx	r0
 9000e9c:	03000f14 	.word	0x03000f14
 9000ea0:	4718      	bx	r3
 9000ea2:	46c0      	nop			@ (mov r8, r8)

09000ea4 <tile_trigger_water_scripts>:
 9000ea4:	b570      	push	{r4, r5, r6, lr}
 9000ea6:	0008      	movs	r0, r1
 9000ea8:	4b1a      	ldr	r3, [pc, #104]	@ (9000f14 <tile_trigger_water_scripts+0x70>)
 9000eaa:	000c      	movs	r4, r1
 9000eac:	f000 f884 	bl	9000fb8 <player_pokemon_has_waterfall+0x74>
 9000eb0:	2800      	cmp	r0, #0
 9000eb2:	d004      	beq.n	9000ebe <tile_trigger_water_scripts+0x1a>
 9000eb4:	4b18      	ldr	r3, [pc, #96]	@ (9000f18 <tile_trigger_water_scripts+0x74>)
 9000eb6:	f000 f87f 	bl	9000fb8 <player_pokemon_has_waterfall+0x74>
 9000eba:	2800      	cmp	r0, #0
 9000ebc:	d120      	bne.n	9000f00 <tile_trigger_water_scripts+0x5c>
 9000ebe:	4817      	ldr	r0, [pc, #92]	@ (9000f1c <tile_trigger_water_scripts+0x78>)
 9000ec0:	4d17      	ldr	r5, [pc, #92]	@ (9000f20 <tile_trigger_water_scripts+0x7c>)
 9000ec2:	f000 f87a 	bl	9000fba <player_pokemon_has_waterfall+0x76>
 9000ec6:	2800      	cmp	r0, #0
 9000ec8:	d004      	beq.n	9000ed4 <tile_trigger_water_scripts+0x30>
 9000eca:	4b13      	ldr	r3, [pc, #76]	@ (9000f18 <tile_trigger_water_scripts+0x74>)
 9000ecc:	f000 f874 	bl	9000fb8 <player_pokemon_has_waterfall+0x74>
 9000ed0:	2800      	cmp	r0, #0
 9000ed2:	d117      	bne.n	9000f04 <tile_trigger_water_scripts+0x60>
 9000ed4:	0020      	movs	r0, r4
 9000ed6:	4b13      	ldr	r3, [pc, #76]	@ (9000f24 <tile_trigger_water_scripts+0x80>)
 9000ed8:	f000 f86e 	bl	9000fb8 <player_pokemon_has_waterfall+0x74>
 9000edc:	2800      	cmp	r0, #0
 9000ede:	d00a      	beq.n	9000ef6 <tile_trigger_water_scripts+0x52>
 9000ee0:	4811      	ldr	r0, [pc, #68]	@ (9000f28 <tile_trigger_water_scripts+0x84>)
 9000ee2:	f000 f86a 	bl	9000fba <player_pokemon_has_waterfall+0x76>
 9000ee6:	2800      	cmp	r0, #0
 9000ee8:	d008      	beq.n	9000efc <tile_trigger_water_scripts+0x58>
 9000eea:	4b10      	ldr	r3, [pc, #64]	@ (9000f2c <tile_trigger_water_scripts+0x88>)
 9000eec:	f000 f864 	bl	9000fb8 <player_pokemon_has_waterfall+0x74>
 9000ef0:	2800      	cmp	r0, #0
 9000ef2:	d003      	beq.n	9000efc <tile_trigger_water_scripts+0x58>
 9000ef4:	480e      	ldr	r0, [pc, #56]	@ (9000f30 <tile_trigger_water_scripts+0x8c>)
 9000ef6:	bc70      	pop	{r4, r5, r6}
 9000ef8:	bc02      	pop	{r1}
 9000efa:	4708      	bx	r1
 9000efc:	480d      	ldr	r0, [pc, #52]	@ (9000f34 <tile_trigger_water_scripts+0x90>)
 9000efe:	e7fa      	b.n	9000ef6 <tile_trigger_water_scripts+0x52>
 9000f00:	480d      	ldr	r0, [pc, #52]	@ (9000f38 <tile_trigger_water_scripts+0x94>)
 9000f02:	e7f8      	b.n	9000ef6 <tile_trigger_water_scripts+0x52>
 9000f04:	4b0d      	ldr	r3, [pc, #52]	@ (9000f3c <tile_trigger_water_scripts+0x98>)
 9000f06:	f000 f857 	bl	9000fb8 <player_pokemon_has_waterfall+0x74>
 9000f0a:	2800      	cmp	r0, #0
 9000f0c:	d0e2      	beq.n	9000ed4 <tile_trigger_water_scripts+0x30>
 9000f0e:	480c      	ldr	r0, [pc, #48]	@ (9000f40 <tile_trigger_water_scripts+0x9c>)
 9000f10:	e7f1      	b.n	9000ef6 <tile_trigger_water_scripts+0x52>
 9000f12:	46c0      	nop			@ (mov r8, r8)
	...
 9000f1c:	00000823 	.word	0x00000823
	...
 9000f28:	00000826 	.word	0x00000826
	...

09000f44 <player_pokemon_has_waterfall>:
 9000f44:	b5f0      	push	{r4, r5, r6, r7, lr}
 9000f46:	46c6      	mov	lr, r8
 9000f48:	b500      	push	{lr}
 9000f4a:	4b18      	ldr	r3, [pc, #96]	@ (9000fac <player_pokemon_has_waterfall+0x68>)
 9000f4c:	4698      	mov	r8, r3
 9000f4e:	781b      	ldrb	r3, [r3, #0]
 9000f50:	2b00      	cmp	r3, #0
 9000f52:	d024      	beq.n	9000f9e <player_pokemon_has_waterfall+0x5a>
 9000f54:	2600      	movs	r6, #0
 9000f56:	4c16      	ldr	r4, [pc, #88]	@ (9000fb0 <player_pokemon_has_waterfall+0x6c>)
 9000f58:	4f16      	ldr	r7, [pc, #88]	@ (9000fb4 <player_pokemon_has_waterfall+0x70>)
 9000f5a:	e005      	b.n	9000f68 <player_pokemon_has_waterfall+0x24>
 9000f5c:	4643      	mov	r3, r8
 9000f5e:	781b      	ldrb	r3, [r3, #0]
 9000f60:	3601      	adds	r6, #1
 9000f62:	3464      	adds	r4, #100	@ 0x64
 9000f64:	42b3      	cmp	r3, r6
 9000f66:	dd1a      	ble.n	9000f9e <player_pokemon_has_waterfall+0x5a>
 9000f68:	2200      	movs	r2, #0
 9000f6a:	210b      	movs	r1, #11
 9000f6c:	0020      	movs	r0, r4
 9000f6e:	f000 f825 	bl	9000fbc <player_pokemon_has_waterfall+0x78>
 9000f72:	2800      	cmp	r0, #0
 9000f74:	d0f2      	beq.n	9000f5c <player_pokemon_has_waterfall+0x18>
 9000f76:	250d      	movs	r5, #13
 9000f78:	2200      	movs	r2, #0
 9000f7a:	0029      	movs	r1, r5
 9000f7c:	0020      	movs	r0, r4
 9000f7e:	f000 f81d 	bl	9000fbc <player_pokemon_has_waterfall+0x78>
 9000f82:	287f      	cmp	r0, #127	@ 0x7f
 9000f84:	d009      	beq.n	9000f9a <player_pokemon_has_waterfall+0x56>
 9000f86:	3501      	adds	r5, #1
 9000f88:	2d11      	cmp	r5, #17
 9000f8a:	d0e7      	beq.n	9000f5c <player_pokemon_has_waterfall+0x18>
 9000f8c:	2200      	movs	r2, #0
 9000f8e:	0029      	movs	r1, r5
 9000f90:	0020      	movs	r0, r4
 9000f92:	f000 f813 	bl	9000fbc <player_pokemon_has_waterfall+0x78>
 9000f96:	287f      	cmp	r0, #127	@ 0x7f
 9000f98:	d1f5      	bne.n	9000f86 <player_pokemon_has_waterfall+0x42>
 9000f9a:	2001      	movs	r0, #1
 9000f9c:	e000      	b.n	9000fa0 <player_pokemon_has_waterfall+0x5c>
 9000f9e:	2000      	movs	r0, #0
 9000fa0:	bc80      	pop	{r7}
 9000fa2:	46b8      	mov	r8, r7
 9000fa4:	bcf0      	pop	{r4, r5, r6, r7}
 9000fa6:	bc02      	pop	{r1}
 9000fa8:	4708      	bx	r1
 9000faa:	46c0      	nop			@ (mov r8, r8)
	...
 9000fb8:	4718      	bx	r3
 9000fba:	4728      	bx	r5
 9000fbc:	4738      	bx	r7
 9000fbe:	46c0      	nop			@ (mov r8, r8)

09000fc0 <ts_setup_pal>:
 9000fc0:	22c0      	movs	r2, #192	@ 0xc0
 9000fc2:	b510      	push	{r4, lr}
 9000fc4:	2100      	movs	r1, #0
 9000fc6:	4c0e      	ldr	r4, [pc, #56]	@ (9001000 <ts_setup_pal+0x40>)
 9000fc8:	480e      	ldr	r0, [pc, #56]	@ (9001004 <ts_setup_pal+0x44>)
 9000fca:	0052      	lsls	r2, r2, #1
 9000fcc:	f000 f935 	bl	900123a <ts_animation_step+0x46>
 9000fd0:	2220      	movs	r2, #32
 9000fd2:	21c0      	movs	r1, #192	@ 0xc0
 9000fd4:	480c      	ldr	r0, [pc, #48]	@ (9001008 <ts_setup_pal+0x48>)
 9000fd6:	f000 f930 	bl	900123a <ts_animation_step+0x46>
 9000fda:	2220      	movs	r2, #32
 9000fdc:	21d0      	movs	r1, #208	@ 0xd0
 9000fde:	480b      	ldr	r0, [pc, #44]	@ (900100c <ts_setup_pal+0x4c>)
 9000fe0:	f000 f92b 	bl	900123a <ts_animation_step+0x46>
 9000fe4:	2220      	movs	r2, #32
 9000fe6:	21e0      	movs	r1, #224	@ 0xe0
 9000fe8:	4809      	ldr	r0, [pc, #36]	@ (9001010 <ts_setup_pal+0x50>)
 9000fea:	f000 f926 	bl	900123a <ts_animation_step+0x46>
 9000fee:	2220      	movs	r2, #32
 9000ff0:	21f0      	movs	r1, #240	@ 0xf0
 9000ff2:	4808      	ldr	r0, [pc, #32]	@ (9001014 <ts_setup_pal+0x54>)
 9000ff4:	f000 f921 	bl	900123a <ts_animation_step+0x46>
 9000ff8:	bc10      	pop	{r4}
 9000ffa:	bc01      	pop	{r0}
 9000ffc:	4700      	bx	r0
 9000ffe:	46c0      	nop			@ (mov r8, r8)
	...

09001018 <ts_setup_bg>:
 9001018:	b530      	push	{r4, r5, lr}
 900101a:	2500      	movs	r5, #0
 900101c:	b083      	sub	sp, #12
 900101e:	f7ff fffe 	bl	9000fc0 <ts_setup_pal>
 9001022:	4c26      	ldr	r4, [pc, #152]	@ (90010bc <ts_setup_bg+0xa4>)
 9001024:	9500      	str	r5, [sp, #0]
 9001026:	2300      	movs	r3, #0
 9001028:	2200      	movs	r2, #0
 900102a:	4925      	ldr	r1, [pc, #148]	@ (90010c0 <ts_setup_bg+0xa8>)
 900102c:	2000      	movs	r0, #0
 900102e:	f000 f904 	bl	900123a <ts_animation_step+0x46>
 9001032:	9500      	str	r5, [sp, #0]
 9001034:	2300      	movs	r3, #0
 9001036:	2200      	movs	r2, #0
 9001038:	4922      	ldr	r1, [pc, #136]	@ (90010c4 <ts_setup_bg+0xac>)
 900103a:	2001      	movs	r0, #1
 900103c:	f000 f8fd 	bl	900123a <ts_animation_step+0x46>
 9001040:	9500      	str	r5, [sp, #0]
 9001042:	2300      	movs	r3, #0
 9001044:	2200      	movs	r2, #0
 9001046:	4920      	ldr	r1, [pc, #128]	@ (90010c8 <ts_setup_bg+0xb0>)
 9001048:	2002      	movs	r0, #2
 900104a:	f000 f8f6 	bl	900123a <ts_animation_step+0x46>
 900104e:	9500      	str	r5, [sp, #0]
 9001050:	230d      	movs	r3, #13
 9001052:	2200      	movs	r2, #0
 9001054:	491d      	ldr	r1, [pc, #116]	@ (90010cc <ts_setup_bg+0xb4>)
 9001056:	2002      	movs	r0, #2
 9001058:	f000 f8ef 	bl	900123a <ts_animation_step+0x46>
 900105c:	9500      	str	r5, [sp, #0]
 900105e:	2300      	movs	r3, #0
 9001060:	3501      	adds	r5, #1
 9001062:	2200      	movs	r2, #0
 9001064:	491a      	ldr	r1, [pc, #104]	@ (90010d0 <ts_setup_bg+0xb8>)
 9001066:	2003      	movs	r0, #3
 9001068:	f000 f8e7 	bl	900123a <ts_animation_step+0x46>
 900106c:	2300      	movs	r3, #0
 900106e:	2200      	movs	r2, #0
 9001070:	4918      	ldr	r1, [pc, #96]	@ (90010d4 <ts_setup_bg+0xbc>)
 9001072:	9500      	str	r5, [sp, #0]
 9001074:	2000      	movs	r0, #0
 9001076:	f000 f8e0 	bl	900123a <ts_animation_step+0x46>
 900107a:	2300      	movs	r3, #0
 900107c:	2200      	movs	r2, #0
 900107e:	4916      	ldr	r1, [pc, #88]	@ (90010d8 <ts_setup_bg+0xc0>)
 9001080:	9500      	str	r5, [sp, #0]
 9001082:	2001      	movs	r0, #1
 9001084:	f000 f8d9 	bl	900123a <ts_animation_step+0x46>
 9001088:	2300      	movs	r3, #0
 900108a:	2200      	movs	r2, #0
 900108c:	4913      	ldr	r1, [pc, #76]	@ (90010dc <ts_setup_bg+0xc4>)
 900108e:	9500      	str	r5, [sp, #0]
 9001090:	2002      	movs	r0, #2
 9001092:	f000 f8d2 	bl	900123a <ts_animation_step+0x46>
 9001096:	2324      	movs	r3, #36	@ 0x24
 9001098:	2200      	movs	r2, #0
 900109a:	4911      	ldr	r1, [pc, #68]	@ (90010e0 <ts_setup_bg+0xc8>)
 900109c:	9500      	str	r5, [sp, #0]
 900109e:	2002      	movs	r0, #2
 90010a0:	f000 f8cb 	bl	900123a <ts_animation_step+0x46>
 90010a4:	2300      	movs	r3, #0
 90010a6:	2200      	movs	r2, #0
 90010a8:	490e      	ldr	r1, [pc, #56]	@ (90010e4 <ts_setup_bg+0xcc>)
 90010aa:	9500      	str	r5, [sp, #0]
 90010ac:	2003      	movs	r0, #3
 90010ae:	f000 f8c4 	bl	900123a <ts_animation_step+0x46>
 90010b2:	b003      	add	sp, #12
 90010b4:	bc30      	pop	{r4, r5}
 90010b6:	bc01      	pop	{r0}
 90010b8:	4700      	bx	r0
 90010ba:	46c0      	nop			@ (mov r8, r8)
	...

090010e8 <ts_color_anim>:
 90010e8:	b5f8      	push	{r3, r4, r5, r6, r7, lr}
 90010ea:	4647      	mov	r7, r8
 90010ec:	46ce      	mov	lr, r9
 90010ee:	88c3      	ldrh	r3, [r0, #6]
 90010f0:	3301      	adds	r3, #1
 90010f2:	041b      	lsls	r3, r3, #16
 90010f4:	b580      	push	{r7, lr}
 90010f6:	0c1b      	lsrs	r3, r3, #16
 90010f8:	0007      	movs	r7, r0
 90010fa:	2b07      	cmp	r3, #7
 90010fc:	d806      	bhi.n	900110c <ts_color_anim+0x24>
 90010fe:	80c3      	strh	r3, [r0, #6]
 9001100:	bcc0      	pop	{r6, r7}
 9001102:	46b9      	mov	r9, r7
 9001104:	46b0      	mov	r8, r6
 9001106:	bcf8      	pop	{r3, r4, r5, r6, r7}
 9001108:	bc01      	pop	{r0}
 900110a:	4700      	bx	r0
 900110c:	2300      	movs	r3, #0
 900110e:	80c3      	strh	r3, [r0, #6]
 9001110:	8903      	ldrh	r3, [r0, #8]
 9001112:	8942      	ldrh	r2, [r0, #10]
 9001114:	2b00      	cmp	r3, #0
 9001116:	d11f      	bne.n	9001158 <ts_color_anim+0x70>
 9001118:	3201      	adds	r2, #1
 900111a:	0412      	lsls	r2, r2, #16
 900111c:	0c12      	lsrs	r2, r2, #16
 900111e:	8142      	strh	r2, [r0, #10]
 9001120:	2a05      	cmp	r2, #5
 9001122:	d020      	beq.n	9001166 <ts_color_anim+0x7e>
 9001124:	4b11      	ldr	r3, [pc, #68]	@ (900116c <ts_color_anim+0x84>)
 9001126:	4699      	mov	r9, r3
 9001128:	4b11      	ldr	r3, [pc, #68]	@ (9001170 <ts_color_anim+0x88>)
 900112a:	2406      	movs	r4, #6
 900112c:	4698      	mov	r8, r3
 900112e:	4e11      	ldr	r6, [pc, #68]	@ (9001174 <ts_color_anim+0x8c>)
 9001130:	4d11      	ldr	r5, [pc, #68]	@ (9001178 <ts_color_anim+0x90>)
 9001132:	e000      	b.n	9001136 <ts_color_anim+0x4e>
 9001134:	897a      	ldrh	r2, [r7, #10]
 9001136:	4649      	mov	r1, r9
 9001138:	0063      	lsls	r3, r4, #1
 900113a:	5ac8      	ldrh	r0, [r1, r3]
 900113c:	4b0f      	ldr	r3, [pc, #60]	@ (900117c <ts_color_anim+0x94>)
 900113e:	0612      	lsls	r2, r2, #24
 9001140:	0e12      	lsrs	r2, r2, #24
 9001142:	1c19      	adds	r1, r3, #0
 9001144:	f000 f87b 	bl	900123e <ts_animation_step+0x4a>
 9001148:	3401      	adds	r4, #1
 900114a:	8030      	strh	r0, [r6, #0]
 900114c:	8028      	strh	r0, [r5, #0]
 900114e:	3602      	adds	r6, #2
 9001150:	3502      	adds	r5, #2
 9001152:	2c0c      	cmp	r4, #12
 9001154:	d1ee      	bne.n	9001134 <ts_color_anim+0x4c>
 9001156:	e7d3      	b.n	9001100 <ts_color_anim+0x18>
 9001158:	3a01      	subs	r2, #1
 900115a:	0412      	lsls	r2, r2, #16
 900115c:	0c12      	lsrs	r2, r2, #16
 900115e:	8142      	strh	r2, [r0, #10]
 9001160:	d1e0      	bne.n	9001124 <ts_color_anim+0x3c>
 9001162:	8102      	strh	r2, [r0, #8]
 9001164:	e7de      	b.n	9001124 <ts_color_anim+0x3c>
 9001166:	3301      	adds	r3, #1
 9001168:	8103      	strh	r3, [r0, #8]
 900116a:	e7db      	b.n	9001124 <ts_color_anim+0x3c>
	...
 9001174:	0000018c 	.word	0x0000018c
 9001178:	0000018c 	.word	0x0000018c
 900117c:	00007c1f 	.word	0x00007c1f

09001180 <ts_animation_sprite>:
 9001180:	8983      	ldrh	r3, [r0, #12]
 9001182:	3301      	adds	r3, #1
 9001184:	041b      	lsls	r3, r3, #16
 9001186:	b570      	push	{r4, r5, r6, lr}
 9001188:	0c1b      	lsrs	r3, r3, #16
 900118a:	0004      	movs	r4, r0
 900118c:	2b07      	cmp	r3, #7
 900118e:	d803      	bhi.n	9001198 <ts_animation_sprite+0x18>
 9001190:	8183      	strh	r3, [r0, #12]
 9001192:	bc70      	pop	{r4, r5, r6}
 9001194:	bc01      	pop	{r0}
 9001196:	4700      	bx	r0
 9001198:	2300      	movs	r3, #0
 900119a:	89c2      	ldrh	r2, [r0, #14]
 900119c:	8183      	strh	r3, [r0, #12]
 900119e:	3201      	adds	r2, #1
 90011a0:	3307      	adds	r3, #7
 90011a2:	4013      	ands	r3, r2
 90011a4:	4a0d      	ldr	r2, [pc, #52]	@ (90011dc <ts_animation_sprite+0x5c>)
 90011a6:	81c3      	strh	r3, [r0, #14]
 90011a8:	005b      	lsls	r3, r3, #1
 90011aa:	5a99      	ldrh	r1, [r3, r2]
 90011ac:	2016      	movs	r0, #22
 90011ae:	4b0c      	ldr	r3, [pc, #48]	@ (90011e0 <ts_animation_sprite+0x60>)
 90011b0:	f000 f842 	bl	9001238 <ts_animation_step+0x44>
 90011b4:	89e3      	ldrh	r3, [r4, #14]
 90011b6:	07da      	lsls	r2, r3, #31
 90011b8:	d4eb      	bmi.n	9001192 <ts_animation_sprite+0x12>
 90011ba:	4d0a      	ldr	r5, [pc, #40]	@ (90011e4 <ts_animation_sprite+0x64>)
 90011bc:	085b      	lsrs	r3, r3, #1
 90011be:	009b      	lsls	r3, r3, #2
 90011c0:	5958      	ldr	r0, [r3, r5]
 90011c2:	4909      	ldr	r1, [pc, #36]	@ (90011e8 <ts_animation_sprite+0x68>)
 90011c4:	4e09      	ldr	r6, [pc, #36]	@ (90011ec <ts_animation_sprite+0x6c>)
 90011c6:	f000 f839 	bl	900123c <ts_animation_step+0x48>
 90011ca:	89e3      	ldrh	r3, [r4, #14]
 90011cc:	085b      	lsrs	r3, r3, #1
 90011ce:	009b      	lsls	r3, r3, #2
 90011d0:	18ed      	adds	r5, r5, r3
 90011d2:	6928      	ldr	r0, [r5, #16]
 90011d4:	4906      	ldr	r1, [pc, #24]	@ (90011f0 <ts_animation_sprite+0x70>)
 90011d6:	f000 f831 	bl	900123c <ts_animation_step+0x48>
 90011da:	e7da      	b.n	9001192 <ts_animation_sprite+0x12>
 90011dc:	00004708 	.word	0x00004708
 90011e0:	00000000 	.word	0x00000000
 90011e4:	00007efc 	.word	0x00007efc
 90011e8:	06004000 	.word	0x06004000
 90011ec:	00000000 	.word	0x00000000
 90011f0:	0600f000 	.word	0x0600f000

090011f4 <ts_animation_step>:
 90011f4:	b510      	push	{r4, lr}
 90011f6:	4b0d      	ldr	r3, [pc, #52]	@ (900122c <ts_animation_step+0x38>)
 90011f8:	0004      	movs	r4, r0
 90011fa:	480d      	ldr	r0, [pc, #52]	@ (9001230 <ts_animation_step+0x3c>)
 90011fc:	f000 f81c 	bl	9001238 <ts_animation_step+0x44>
 9001200:	0082      	lsls	r2, r0, #2
 9001202:	4b0c      	ldr	r3, [pc, #48]	@ (9001234 <ts_animation_step+0x40>)
 9001204:	1812      	adds	r2, r2, r0
 9001206:	00d2      	lsls	r2, r2, #3
 9001208:	189b      	adds	r3, r3, r2
 900120a:	891a      	ldrh	r2, [r3, #8]
 900120c:	2a03      	cmp	r2, #3
 900120e:	d002      	beq.n	9001216 <ts_animation_step+0x22>
 9001210:	bc10      	pop	{r4}
 9001212:	bc01      	pop	{r0}
 9001214:	4700      	bx	r0
 9001216:	895b      	ldrh	r3, [r3, #10]
 9001218:	2b01      	cmp	r3, #1
 900121a:	d1f9      	bne.n	9001210 <ts_animation_step+0x1c>
 900121c:	0020      	movs	r0, r4
 900121e:	f7ff fffe 	bl	90010e8 <ts_color_anim>
 9001222:	0020      	movs	r0, r4
 9001224:	f7ff fffe 	bl	9001180 <ts_animation_sprite>
 9001228:	e7f2      	b.n	9001210 <ts_animation_step+0x1c>
 900122a:	46c0      	nop			@ (mov r8, r8)
	...
 9001238:	4718      	bx	r3
 900123a:	4720      	bx	r4
 900123c:	4730      	bx	r6
 900123e:	4740      	bx	r8

09001240 <trainer_load_items.constprop.0>:
 9001240:	b5f0      	push	{r4, r5, r6, r7, lr}
 9001242:	46c6      	mov	lr, r8
 9001244:	000e      	movs	r6, r1
 9001246:	0015      	movs	r5, r2
 9001248:	2400      	movs	r4, #0
 900124a:	b500      	push	{lr}
 900124c:	0083      	lsls	r3, r0, #2
 900124e:	1818      	adds	r0, r3, r0
 9001250:	4b24      	ldr	r3, [pc, #144]	@ (90012e4 <trainer_load_items.constprop.0+0xa4>)
 9001252:	00c0      	lsls	r0, r0, #3
 9001254:	18c0      	adds	r0, r0, r3
 9001256:	8a02      	ldrh	r2, [r0, #16]
 9001258:	2a00      	cmp	r2, #0
 900125a:	d004      	beq.n	9001266 <trainer_load_items.constprop.0+0x26>
 900125c:	782b      	ldrb	r3, [r5, #0]
 900125e:	1c59      	adds	r1, r3, #1
 9001260:	005b      	lsls	r3, r3, #1
 9001262:	7029      	strb	r1, [r5, #0]
 9001264:	539a      	strh	r2, [r3, r6]
 9001266:	3401      	adds	r4, #1
 9001268:	3002      	adds	r0, #2
 900126a:	2c04      	cmp	r4, #4
 900126c:	d1f3      	bne.n	9001256 <trainer_load_items.constprop.0+0x16>
 900126e:	4b1e      	ldr	r3, [pc, #120]	@ (90012e8 <trainer_load_items.constprop.0+0xa8>)
 9001270:	481e      	ldr	r0, [pc, #120]	@ (90012ec <trainer_load_items.constprop.0+0xac>)
 9001272:	f000 f8ad 	bl	90013d0 <trainer_load_items_and_ai+0xd0>
 9001276:	8803      	ldrh	r3, [r0, #0]
 9001278:	2b02      	cmp	r3, #2
 900127a:	d004      	beq.n	9001286 <trainer_load_items.constprop.0+0x46>
 900127c:	bc80      	pop	{r7}
 900127e:	46b8      	mov	r8, r7
 9001280:	bcf0      	pop	{r4, r5, r6, r7}
 9001282:	bc01      	pop	{r0}
 9001284:	4700      	bx	r0
 9001286:	4b1a      	ldr	r3, [pc, #104]	@ (90012f0 <trainer_load_items.constprop.0+0xb0>)
 9001288:	481a      	ldr	r0, [pc, #104]	@ (90012f4 <trainer_load_items.constprop.0+0xb4>)
 900128a:	4698      	mov	r8, r3
 900128c:	f000 f8a0 	bl	90013d0 <trainer_load_items_and_ai+0xd0>
 9001290:	2713      	movs	r7, #19
 9001292:	2800      	cmp	r0, #0
 9001294:	d00c      	beq.n	90012b0 <trainer_load_items.constprop.0+0x70>
 9001296:	2200      	movs	r2, #0
 9001298:	e006      	b.n	90012a8 <trainer_load_items.constprop.0+0x68>
 900129a:	1c59      	adds	r1, r3, #1
 900129c:	3201      	adds	r2, #1
 900129e:	005b      	lsls	r3, r3, #1
 90012a0:	7029      	strb	r1, [r5, #0]
 90012a2:	539f      	strh	r7, [r3, r6]
 90012a4:	42a2      	cmp	r2, r4
 90012a6:	d0e9      	beq.n	900127c <trainer_load_items.constprop.0+0x3c>
 90012a8:	782b      	ldrb	r3, [r5, #0]
 90012aa:	2b03      	cmp	r3, #3
 90012ac:	d9f5      	bls.n	900129a <trainer_load_items.constprop.0+0x5a>
 90012ae:	e7e5      	b.n	900127c <trainer_load_items.constprop.0+0x3c>
 90012b0:	4811      	ldr	r0, [pc, #68]	@ (90012f8 <trainer_load_items.constprop.0+0xb8>)
 90012b2:	f000 f88e 	bl	90013d2 <trainer_load_items_and_ai+0xd2>
 90012b6:	3701      	adds	r7, #1
 90012b8:	2800      	cmp	r0, #0
 90012ba:	d1ec      	bne.n	9001296 <trainer_load_items.constprop.0+0x56>
 90012bc:	480f      	ldr	r0, [pc, #60]	@ (90012fc <trainer_load_items.constprop.0+0xbc>)
 90012be:	f000 f888 	bl	90013d2 <trainer_load_items_and_ai+0xd2>
 90012c2:	2800      	cmp	r0, #0
 90012c4:	d002      	beq.n	90012cc <trainer_load_items.constprop.0+0x8c>
 90012c6:	2403      	movs	r4, #3
 90012c8:	2715      	movs	r7, #21
 90012ca:	e7e4      	b.n	9001296 <trainer_load_items.constprop.0+0x56>
 90012cc:	2082      	movs	r0, #130	@ 0x82
 90012ce:	0100      	lsls	r0, r0, #4
 90012d0:	f000 f87f 	bl	90013d2 <trainer_load_items_and_ai+0xd2>
 90012d4:	2800      	cmp	r0, #0
 90012d6:	d102      	bne.n	90012de <trainer_load_items.constprop.0+0x9e>
 90012d8:	3c03      	subs	r4, #3
 90012da:	3f07      	subs	r7, #7
 90012dc:	e7db      	b.n	9001296 <trainer_load_items.constprop.0+0x56>
 90012de:	2402      	movs	r4, #2
 90012e0:	2716      	movs	r7, #22
 90012e2:	e7d8      	b.n	9001296 <trainer_load_items.constprop.0+0x56>
	...
 90012ec:	000050f9 	.word	0x000050f9
 90012f0:	00000000 	.word	0x00000000
 90012f4:	00000826 	.word	0x00000826
 90012f8:	00000824 	.word	0x00000824
 90012fc:	00000822 	.word	0x00000822

09001300 <trainer_load_items_and_ai>:
 9001300:	4b27      	ldr	r3, [pc, #156]	@ (90013a0 <trainer_load_items_and_ai+0xa0>)
 9001302:	681b      	ldr	r3, [r3, #0]
 9001304:	b570      	push	{r4, r5, r6, lr}
 9001306:	2232      	movs	r2, #50	@ 0x32
 9001308:	2100      	movs	r1, #0
 900130a:	6998      	ldr	r0, [r3, #24]
 900130c:	4b25      	ldr	r3, [pc, #148]	@ (90013a4 <trainer_load_items_and_ai+0xa4>)
 900130e:	f000 f85f 	bl	90013d0 <trainer_load_items_and_ai+0xd0>
 9001312:	26d7      	movs	r6, #215	@ 0xd7
 9001314:	4c24      	ldr	r4, [pc, #144]	@ (90013a8 <trainer_load_items_and_ai+0xa8>)
 9001316:	2004      	movs	r0, #4
 9001318:	4924      	ldr	r1, [pc, #144]	@ (90013ac <trainer_load_items_and_ai+0xac>)
 900131a:	4b25      	ldr	r3, [pc, #148]	@ (90013b0 <trainer_load_items_and_ai+0xb0>)
 900131c:	7822      	ldrb	r2, [r4, #0]
 900131e:	f000 f857 	bl	90013d0 <trainer_load_items_and_ai+0xd0>
 9001322:	2300      	movs	r3, #0
 9001324:	4d23      	ldr	r5, [pc, #140]	@ (90013b4 <trainer_load_items_and_ai+0xb4>)
 9001326:	00f6      	lsls	r6, r6, #3
 9001328:	59a9      	ldr	r1, [r5, r6]
 900132a:	7023      	strb	r3, [r4, #0]
 900132c:	620b      	str	r3, [r1, #32]
 900132e:	600b      	str	r3, [r1, #0]
 9001330:	604b      	str	r3, [r1, #4]
 9001332:	608b      	str	r3, [r1, #8]
 9001334:	60cb      	str	r3, [r1, #12]
 9001336:	610b      	str	r3, [r1, #16]
 9001338:	614b      	str	r3, [r1, #20]
 900133a:	618b      	str	r3, [r1, #24]
 900133c:	61cb      	str	r3, [r1, #28]
 900133e:	4b1e      	ldr	r3, [pc, #120]	@ (90013b8 <trainer_load_items_and_ai+0xb8>)
 9001340:	8858      	ldrh	r0, [r3, #2]
 9001342:	2380      	movs	r3, #128	@ 0x80
 9001344:	00db      	lsls	r3, r3, #3
 9001346:	4298      	cmp	r0, r3
 9001348:	d004      	beq.n	9001354 <trainer_load_items_and_ai+0x54>
 900134a:	4c1c      	ldr	r4, [pc, #112]	@ (90013bc <trainer_load_items_and_ai+0xbc>)
 900134c:	4b1c      	ldr	r3, [pc, #112]	@ (90013c0 <trainer_load_items_and_ai+0xc0>)
 900134e:	6822      	ldr	r2, [r4, #0]
 9001350:	421a      	tst	r2, r3
 9001352:	d002      	beq.n	900135a <trainer_load_items_and_ai+0x5a>
 9001354:	bc70      	pop	{r4, r5, r6}
 9001356:	bc01      	pop	{r0}
 9001358:	4700      	bx	r0
 900135a:	000a      	movs	r2, r1
 900135c:	3108      	adds	r1, #8
 900135e:	3221      	adds	r2, #33	@ 0x21
 9001360:	f7ff ff6e 	bl	9001240 <trainer_load_items.constprop.0>
 9001364:	6823      	ldr	r3, [r4, #0]
 9001366:	02da      	lsls	r2, r3, #11
 9001368:	d40f      	bmi.n	900138a <trainer_load_items_and_ai+0x8a>
 900136a:	029b      	lsls	r3, r3, #10
 900136c:	d5f2      	bpl.n	9001354 <trainer_load_items_and_ai+0x54>
 900136e:	4b15      	ldr	r3, [pc, #84]	@ (90013c4 <trainer_load_items_and_ai+0xc4>)
 9001370:	4815      	ldr	r0, [pc, #84]	@ (90013c8 <trainer_load_items_and_ai+0xc8>)
 9001372:	f000 f82d 	bl	90013d0 <trainer_load_items_and_ai+0xd0>
 9001376:	23d7      	movs	r3, #215	@ 0xd7
 9001378:	00db      	lsls	r3, r3, #3
 900137a:	58e9      	ldr	r1, [r5, r3]
 900137c:	000a      	movs	r2, r1
 900137e:	8800      	ldrh	r0, [r0, #0]
 9001380:	3222      	adds	r2, #34	@ 0x22
 9001382:	3110      	adds	r1, #16
 9001384:	f7ff ff5c 	bl	9001240 <trainer_load_items.constprop.0>
 9001388:	e7e4      	b.n	9001354 <trainer_load_items_and_ai+0x54>
 900138a:	59a9      	ldr	r1, [r5, r6]
 900138c:	000a      	movs	r2, r1
 900138e:	4b0f      	ldr	r3, [pc, #60]	@ (90013cc <trainer_load_items_and_ai+0xcc>)
 9001390:	3223      	adds	r2, #35	@ 0x23
 9001392:	5ae8      	ldrh	r0, [r5, r3]
 9001394:	3118      	adds	r1, #24
 9001396:	f7ff ff53 	bl	9001240 <trainer_load_items.constprop.0>
 900139a:	6823      	ldr	r3, [r4, #0]
 900139c:	e7e5      	b.n	900136a <trainer_load_items_and_ai+0x6a>
 900139e:	46c0      	nop			@ (mov r8, r8)
	...
 90013ac:	00000180 	.word	0x00000180
	...
 90013c0:	00080982 	.word	0x00080982
 90013c4:	00000000 	.word	0x00000000
 90013c8:	000050c2 	.word	0x000050c2
 90013cc:	000006ca 	.word	0x000006ca
 90013d0:	4718      	bx	r3
 90013d2:	4740      	bx	r8

090013d4 <trainer_variables_initialize_single_trainer>:
 90013d4:	2300      	movs	r3, #0
 90013d6:	6003      	str	r3, [r0, #0]
 90013d8:	6083      	str	r3, [r0, #8]
 90013da:	60c3      	str	r3, [r0, #12]
 90013dc:	6103      	str	r3, [r0, #16]
 90013de:	6143      	str	r3, [r0, #20]
 90013e0:	6183      	str	r3, [r0, #24]
 90013e2:	61c3      	str	r3, [r0, #28]
 90013e4:	8403      	strh	r3, [r0, #32]
 90013e6:	4770      	bx	lr

090013e8 <aggressive_wild_pokemon_feature_generator>:
 90013e8:	b510      	push	{r4, lr}
 90013ea:	4b06      	ldr	r3, [pc, #24]	@ (9001404 <aggressive_wild_pokemon_feature_generator+0x1c>)
 90013ec:	f000 fe22 	bl	9002034 <trainer_set_flags+0x34>
 90013f0:	21c8      	movs	r1, #200	@ 0xc8
 90013f2:	4b05      	ldr	r3, [pc, #20]	@ (9001408 <aggressive_wild_pokemon_feature_generator+0x20>)
 90013f4:	f000 fe1e 	bl	9002034 <trainer_set_flags+0x34>
 90013f8:	0408      	lsls	r0, r1, #16
 90013fa:	0c00      	lsrs	r0, r0, #16
 90013fc:	bc10      	pop	{r4}
 90013fe:	bc02      	pop	{r1}
 9001400:	4708      	bx	r1
 9001402:	46c0      	nop			@ (mov r8, r8)
	...

0900140c <special_player_facing>:
 900140c:	b5f0      	push	{r4, r5, r6, r7, lr}
 900140e:	b083      	sub	sp, #12
 9001410:	466b      	mov	r3, sp
 9001412:	a801      	add	r0, sp, #4
 9001414:	1d99      	adds	r1, r3, #6
 9001416:	4b31      	ldr	r3, [pc, #196]	@ (90014dc <special_player_facing+0xd0>)
 9001418:	f000 fe0c 	bl	9002034 <trainer_set_flags+0x34>
 900141c:	4c30      	ldr	r4, [pc, #192]	@ (90014e0 <special_player_facing+0xd4>)
 900141e:	4831      	ldr	r0, [pc, #196]	@ (90014e4 <special_player_facing+0xd8>)
 9001420:	f000 fe09 	bl	9002036 <trainer_set_flags+0x36>
 9001424:	7805      	ldrb	r5, [r0, #0]
 9001426:	482f      	ldr	r0, [pc, #188]	@ (90014e4 <special_player_facing+0xd8>)
 9001428:	f000 fe05 	bl	9002036 <trainer_set_flags+0x36>
 900142c:	492e      	ldr	r1, [pc, #184]	@ (90014e8 <special_player_facing+0xdc>)
 900142e:	8802      	ldrh	r2, [r0, #0]
 9001430:	4c2e      	ldr	r4, [pc, #184]	@ (90014ec <special_player_facing+0xe0>)
 9001432:	2004      	movs	r0, #4
 9001434:	f000 fdff 	bl	9002036 <trainer_set_flags+0x36>
 9001438:	2d00      	cmp	r5, #0
 900143a:	d103      	bne.n	9001444 <special_player_facing+0x38>
 900143c:	b003      	add	sp, #12
 900143e:	bcf0      	pop	{r4, r5, r6, r7}
 9001440:	bc01      	pop	{r0}
 9001442:	4700      	bx	r0
 9001444:	4e2a      	ldr	r6, [pc, #168]	@ (90014f0 <special_player_facing+0xe4>)
 9001446:	6833      	ldr	r3, [r6, #0]
 9001448:	791a      	ldrb	r2, [r3, #4]
 900144a:	7959      	ldrb	r1, [r3, #5]
 900144c:	466b      	mov	r3, sp
 900144e:	0028      	movs	r0, r5
 9001450:	3303      	adds	r3, #3
 9001452:	4d28      	ldr	r5, [pc, #160]	@ (90014f4 <special_player_facing+0xe8>)
 9001454:	f000 fdf0 	bl	9002038 <trainer_set_flags+0x38>
 9001458:	2800      	cmp	r0, #0
 900145a:	d00e      	beq.n	900147a <special_player_facing+0x6e>
 900145c:	22fe      	movs	r2, #254	@ 0xfe
 900145e:	4b26      	ldr	r3, [pc, #152]	@ (90014f8 <special_player_facing+0xec>)
 9001460:	719a      	strb	r2, [r3, #6]
 9001462:	6831      	ldr	r1, [r6, #0]
 9001464:	4b25      	ldr	r3, [pc, #148]	@ (90014fc <special_player_facing+0xf0>)
 9001466:	790a      	ldrb	r2, [r1, #4]
 9001468:	20ff      	movs	r0, #255	@ 0xff
 900146a:	7949      	ldrb	r1, [r1, #5]
 900146c:	4c24      	ldr	r4, [pc, #144]	@ (9001500 <special_player_facing+0xf4>)
 900146e:	f000 fde2 	bl	9002036 <trainer_set_flags+0x36>
 9001472:	22ff      	movs	r2, #255	@ 0xff
 9001474:	4b23      	ldr	r3, [pc, #140]	@ (9001504 <special_player_facing+0xf8>)
 9001476:	701a      	strb	r2, [r3, #0]
 9001478:	e7e0      	b.n	900143c <special_player_facing+0x30>
 900147a:	466b      	mov	r3, sp
 900147c:	4922      	ldr	r1, [pc, #136]	@ (9001508 <special_player_facing+0xfc>)
 900147e:	78da      	ldrb	r2, [r3, #3]
 9001480:	3004      	adds	r0, #4
 9001482:	f000 fdd8 	bl	9002036 <trainer_set_flags+0x36>
 9001486:	466b      	mov	r3, sp
 9001488:	78d9      	ldrb	r1, [r3, #3]
 900148a:	00ca      	lsls	r2, r1, #3
 900148c:	1852      	adds	r2, r2, r1
 900148e:	4b1f      	ldr	r3, [pc, #124]	@ (900150c <special_player_facing+0x100>)
 9001490:	0092      	lsls	r2, r2, #2
 9001492:	189b      	adds	r3, r3, r2
 9001494:	2210      	movs	r2, #16
 9001496:	5e9c      	ldrsh	r4, [r3, r2]
 9001498:	2112      	movs	r1, #18
 900149a:	5e59      	ldrsh	r1, [r3, r1]
 900149c:	466b      	mov	r3, sp
 900149e:	2504      	movs	r5, #4
 90014a0:	5f5d      	ldrsh	r5, [r3, r5]
 90014a2:	466b      	mov	r3, sp
 90014a4:	1b2a      	subs	r2, r5, r4
 90014a6:	2006      	movs	r0, #6
 90014a8:	5e18      	ldrsh	r0, [r3, r0]
 90014aa:	17d3      	asrs	r3, r2, #31
 90014ac:	18d2      	adds	r2, r2, r3
 90014ae:	405a      	eors	r2, r3
 90014b0:	1a43      	subs	r3, r0, r1
 90014b2:	17df      	asrs	r7, r3, #31
 90014b4:	19db      	adds	r3, r3, r7
 90014b6:	407b      	eors	r3, r7
 90014b8:	429a      	cmp	r2, r3
 90014ba:	dd07      	ble.n	90014cc <special_player_facing+0xc0>
 90014bc:	2203      	movs	r2, #3
 90014be:	42a5      	cmp	r5, r4
 90014c0:	da09      	bge.n	90014d6 <special_player_facing+0xca>
 90014c2:	4b0d      	ldr	r3, [pc, #52]	@ (90014f8 <special_player_facing+0xec>)
 90014c4:	719a      	strb	r2, [r3, #6]
 90014c6:	22fe      	movs	r2, #254	@ 0xfe
 90014c8:	71da      	strb	r2, [r3, #7]
 90014ca:	e7ca      	b.n	9001462 <special_player_facing+0x56>
 90014cc:	2204      	movs	r2, #4
 90014ce:	4288      	cmp	r0, r1
 90014d0:	dbf7      	blt.n	90014c2 <special_player_facing+0xb6>
 90014d2:	3a03      	subs	r2, #3
 90014d4:	e7f5      	b.n	90014c2 <special_player_facing+0xb6>
 90014d6:	3a01      	subs	r2, #1
 90014d8:	e7f3      	b.n	90014c2 <special_player_facing+0xb6>
 90014da:	46c0      	nop			@ (mov r8, r8)
	...
 90014e4:	0000800f 	.word	0x0000800f
 90014e8:	00000194 	.word	0x00000194
	...
 90014fc:	00000006 	.word	0x00000006
 9001500:	00000000 	.word	0x00000000
 9001504:	0003b6d4 	.word	0x0003b6d4
 9001508:	000001a8 	.word	0x000001a8
 900150c:	00000000 	.word	0x00000000

09001510 <trainer_get_challange_message>:
 9001510:	b510      	push	{r4, lr}
 9001512:	4a0a      	ldr	r2, [pc, #40]	@ (900153c <trainer_get_challange_message+0x2c>)
 9001514:	4b0a      	ldr	r3, [pc, #40]	@ (9001540 <trainer_get_challange_message+0x30>)
 9001516:	5cd3      	ldrb	r3, [r2, r3]
 9001518:	2b00      	cmp	r3, #0
 900151a:	d00b      	beq.n	9001534 <trainer_get_challange_message+0x24>
 900151c:	2000      	movs	r0, #0
 900151e:	2b01      	cmp	r3, #1
 9001520:	d102      	bne.n	9001528 <trainer_get_challange_message+0x18>
 9001522:	23da      	movs	r3, #218	@ 0xda
 9001524:	00db      	lsls	r3, r3, #3
 9001526:	58d0      	ldr	r0, [r2, r3]
 9001528:	4b06      	ldr	r3, [pc, #24]	@ (9001544 <trainer_get_challange_message+0x34>)
 900152a:	f000 fd83 	bl	9002034 <trainer_set_flags+0x34>
 900152e:	bc10      	pop	{r4}
 9001530:	bc02      	pop	{r1}
 9001532:	4708      	bx	r1
 9001534:	4b04      	ldr	r3, [pc, #16]	@ (9001548 <trainer_get_challange_message+0x38>)
 9001536:	6898      	ldr	r0, [r3, #8]
 9001538:	e7f6      	b.n	9001528 <trainer_get_challange_message+0x18>
 900153a:	46c0      	nop			@ (mov r8, r8)
 900153c:	00000000 	.word	0x00000000
 9001540:	000006bd 	.word	0x000006bd
	...

0900154c <trainer_variables_initialize>:
 900154c:	b510      	push	{r4, lr}
 900154e:	4809      	ldr	r0, [pc, #36]	@ (9001574 <trainer_variables_initialize+0x28>)
 9001550:	4b09      	ldr	r3, [pc, #36]	@ (9001578 <trainer_variables_initialize+0x2c>)
 9001552:	5cc3      	ldrb	r3, [r0, r3]
 9001554:	2b00      	cmp	r3, #0
 9001556:	d105      	bne.n	9001564 <trainer_variables_initialize+0x18>
 9001558:	4808      	ldr	r0, [pc, #32]	@ (900157c <trainer_variables_initialize+0x30>)
 900155a:	f7ff ff3b 	bl	90013d4 <trainer_variables_initialize_single_trainer>
 900155e:	bc10      	pop	{r4}
 9001560:	bc01      	pop	{r0}
 9001562:	4700      	bx	r0
 9001564:	23d9      	movs	r3, #217	@ 0xd9
 9001566:	00db      	lsls	r3, r3, #3
 9001568:	469c      	mov	ip, r3
 900156a:	4460      	add	r0, ip
 900156c:	f7ff ff32 	bl	90013d4 <trainer_variables_initialize_single_trainer>
 9001570:	e7f5      	b.n	900155e <trainer_variables_initialize+0x12>
 9001572:	46c0      	nop			@ (mov r8, r8)
 9001574:	00000000 	.word	0x00000000
 9001578:	000006bd 	.word	0x000006bd
 900157c:	00000000 	.word	0x00000000

09001580 <trainerbattle_initialize_by_npc_idx>:
 9001580:	b5f8      	push	{r3, r4, r5, r6, r7, lr}
 9001582:	46ce      	mov	lr, r9
 9001584:	4647      	mov	r7, r8
 9001586:	00c3      	lsls	r3, r0, #3
 9001588:	4c34      	ldr	r4, [pc, #208]	@ (900165c <trainerbattle_initialize_by_npc_idx+0xdc>)
 900158a:	181b      	adds	r3, r3, r0
 900158c:	009b      	lsls	r3, r3, #2
 900158e:	18e4      	adds	r4, r4, r3
 9001590:	7aa2      	ldrb	r2, [r4, #10]
 9001592:	4b33      	ldr	r3, [pc, #204]	@ (9001660 <trainerbattle_initialize_by_npc_idx+0xe0>)
 9001594:	0005      	movs	r5, r0
 9001596:	b580      	push	{r7, lr}
 9001598:	7a61      	ldrb	r1, [r4, #9]
 900159a:	7a20      	ldrb	r0, [r4, #8]
 900159c:	f000 fd4a 	bl	9002034 <trainer_set_flags+0x34>
 90015a0:	231f      	movs	r3, #31
 90015a2:	7882      	ldrb	r2, [r0, #2]
 90015a4:	4013      	ands	r3, r2
 90015a6:	2b04      	cmp	r3, #4
 90015a8:	d049      	beq.n	900163e <trainerbattle_initialize_by_npc_idx+0xbe>
 90015aa:	0028      	movs	r0, r5
 90015ac:	4b2d      	ldr	r3, [pc, #180]	@ (9001664 <trainerbattle_initialize_by_npc_idx+0xe4>)
 90015ae:	f000 fd41 	bl	9002034 <trainer_set_flags+0x34>
 90015b2:	1e06      	subs	r6, r0, #0
 90015b4:	d043      	beq.n	900163e <trainerbattle_initialize_by_npc_idx+0xbe>
 90015b6:	4b2c      	ldr	r3, [pc, #176]	@ (9001668 <trainerbattle_initialize_by_npc_idx+0xe8>)
 90015b8:	f000 fd3c 	bl	9002034 <trainer_set_flags+0x34>
 90015bc:	1e07      	subs	r7, r0, #0
 90015be:	d13e      	bne.n	900163e <trainerbattle_initialize_by_npc_idx+0xbe>
 90015c0:	0020      	movs	r0, r4
 90015c2:	4b2a      	ldr	r3, [pc, #168]	@ (900166c <trainerbattle_initialize_by_npc_idx+0xec>)
 90015c4:	f000 fd36 	bl	9002034 <trainer_set_flags+0x34>
 90015c8:	4680      	mov	r8, r0
 90015ca:	2800      	cmp	r0, #0
 90015cc:	d037      	beq.n	900163e <trainerbattle_initialize_by_npc_idx+0xbe>
 90015ce:	2102      	movs	r1, #2
 90015d0:	7872      	ldrb	r2, [r6, #1]
 90015d2:	1f93      	subs	r3, r2, #6
 90015d4:	061b      	lsls	r3, r3, #24
 90015d6:	0e1b      	lsrs	r3, r3, #24
 90015d8:	4299      	cmp	r1, r3
 90015da:	417f      	adcs	r7, r7
 90015dc:	063f      	lsls	r7, r7, #24
 90015de:	d101      	bne.n	90015e4 <trainerbattle_initialize_by_npc_idx+0x64>
 90015e0:	2a04      	cmp	r2, #4
 90015e2:	d134      	bne.n	900164e <trainerbattle_initialize_by_npc_idx+0xce>
 90015e4:	4b22      	ldr	r3, [pc, #136]	@ (9001670 <trainerbattle_initialize_by_npc_idx+0xf0>)
 90015e6:	f000 fd25 	bl	9002034 <trainer_set_flags+0x34>
 90015ea:	2800      	cmp	r0, #0
 90015ec:	d127      	bne.n	900163e <trainerbattle_initialize_by_npc_idx+0xbe>
 90015ee:	4b21      	ldr	r3, [pc, #132]	@ (9001674 <trainerbattle_initialize_by_npc_idx+0xf4>)
 90015f0:	4699      	mov	r9, r3
 90015f2:	464a      	mov	r2, r9
 90015f4:	4b20      	ldr	r3, [pc, #128]	@ (9001678 <trainerbattle_initialize_by_npc_idx+0xf8>)
 90015f6:	5cd3      	ldrb	r3, [r2, r3]
 90015f8:	2b00      	cmp	r3, #0
 90015fa:	d120      	bne.n	900163e <trainerbattle_initialize_by_npc_idx+0xbe>
 90015fc:	2702      	movs	r7, #2
 90015fe:	491f      	ldr	r1, [pc, #124]	@ (900167c <trainerbattle_initialize_by_npc_idx+0xfc>)
 9001600:	464a      	mov	r2, r9
 9001602:	468c      	mov	ip, r1
 9001604:	18d2      	adds	r2, r2, r3
 9001606:	4462      	add	r2, ip
 9001608:	7015      	strb	r5, [r2, #0]
 900160a:	2004      	movs	r0, #4
 900160c:	0032      	movs	r2, r6
 900160e:	491c      	ldr	r1, [pc, #112]	@ (9001680 <trainerbattle_initialize_by_npc_idx+0x100>)
 9001610:	4d1c      	ldr	r5, [pc, #112]	@ (9001684 <trainerbattle_initialize_by_npc_idx+0x104>)
 9001612:	f000 fd11 	bl	9002038 <trainer_set_flags+0x38>
 9001616:	464b      	mov	r3, r9
 9001618:	4648      	mov	r0, r9
 900161a:	4917      	ldr	r1, [pc, #92]	@ (9001678 <trainerbattle_initialize_by_npc_idx+0xf8>)
 900161c:	5c5b      	ldrb	r3, [r3, r1]
 900161e:	001a      	movs	r2, r3
 9001620:	3301      	adds	r3, #1
 9001622:	5443      	strb	r3, [r0, r1]
 9001624:	4641      	mov	r1, r8
 9001626:	32b1      	adds	r2, #177	@ 0xb1
 9001628:	32ff      	adds	r2, #255	@ 0xff
 900162a:	3901      	subs	r1, #1
 900162c:	0092      	lsls	r2, r2, #2
 900162e:	0609      	lsls	r1, r1, #24
 9001630:	5086      	str	r6, [r0, r2]
 9001632:	4b15      	ldr	r3, [pc, #84]	@ (9001688 <trainerbattle_initialize_by_npc_idx+0x108>)
 9001634:	0020      	movs	r0, r4
 9001636:	0e09      	lsrs	r1, r1, #24
 9001638:	f000 fcfc 	bl	9002034 <trainer_set_flags+0x34>
 900163c:	e000      	b.n	9001640 <trainerbattle_initialize_by_npc_idx+0xc0>
 900163e:	2700      	movs	r7, #0
 9001640:	0038      	movs	r0, r7
 9001642:	bcc0      	pop	{r6, r7}
 9001644:	46b9      	mov	r9, r7
 9001646:	46b0      	mov	r8, r6
 9001648:	bcf8      	pop	{r3, r4, r5, r6, r7}
 900164a:	bc02      	pop	{r1}
 900164c:	4708      	bx	r1
 900164e:	4b09      	ldr	r3, [pc, #36]	@ (9001674 <trainerbattle_initialize_by_npc_idx+0xf4>)
 9001650:	4699      	mov	r9, r3
 9001652:	464a      	mov	r2, r9
 9001654:	4b08      	ldr	r3, [pc, #32]	@ (9001678 <trainerbattle_initialize_by_npc_idx+0xf8>)
 9001656:	3701      	adds	r7, #1
 9001658:	5cd3      	ldrb	r3, [r2, r3]
 900165a:	e7d0      	b.n	90015fe <trainerbattle_initialize_by_npc_idx+0x7e>
	...
 9001678:	000006bc 	.word	0x000006bc
 900167c:	000006be 	.word	0x000006be
 9001680:	000001b8 	.word	0x000001b8
	...

0900168c <trainerbattle_pirate_alert>:
 900168c:	b5f0      	push	{r4, r5, r6, r7, lr}
 900168e:	46c6      	mov	lr, r8
 9001690:	0006      	movs	r6, r0
 9001692:	b500      	push	{lr}
 9001694:	4818      	ldr	r0, [pc, #96]	@ (90016f8 <trainerbattle_pirate_alert+0x6c>)
 9001696:	4b19      	ldr	r3, [pc, #100]	@ (90016fc <trainerbattle_pirate_alert+0x70>)
 9001698:	f000 fccc 	bl	9002034 <trainer_set_flags+0x34>
 900169c:	1e04      	subs	r4, r0, #0
 900169e:	d106      	bne.n	90016ae <trainerbattle_pirate_alert+0x22>
 90016a0:	2400      	movs	r4, #0
 90016a2:	0020      	movs	r0, r4
 90016a4:	bc80      	pop	{r7}
 90016a6:	46b8      	mov	r8, r7
 90016a8:	bcf0      	pop	{r4, r5, r6, r7}
 90016aa:	bc02      	pop	{r1}
 90016ac:	4708      	bx	r1
 90016ae:	00f5      	lsls	r5, r6, #3
 90016b0:	4b13      	ldr	r3, [pc, #76]	@ (9001700 <trainerbattle_pirate_alert+0x74>)
 90016b2:	19ad      	adds	r5, r5, r6
 90016b4:	00ad      	lsls	r5, r5, #2
 90016b6:	18ed      	adds	r5, r5, r3
 90016b8:	0028      	movs	r0, r5
 90016ba:	4b12      	ldr	r3, [pc, #72]	@ (9001704 <trainerbattle_pirate_alert+0x78>)
 90016bc:	f000 fcba 	bl	9002034 <trainer_set_flags+0x34>
 90016c0:	1e07      	subs	r7, r0, #0
 90016c2:	d0ed      	beq.n	90016a0 <trainerbattle_pirate_alert+0x14>
 90016c4:	7a2b      	ldrb	r3, [r5, #8]
 90016c6:	4698      	mov	r8, r3
 90016c8:	480f      	ldr	r0, [pc, #60]	@ (9001708 <trainerbattle_pirate_alert+0x7c>)
 90016ca:	4b10      	ldr	r3, [pc, #64]	@ (900170c <trainerbattle_pirate_alert+0x80>)
 90016cc:	f000 fcb2 	bl	9002034 <trainer_set_flags+0x34>
 90016d0:	4643      	mov	r3, r8
 90016d2:	3f01      	subs	r7, #1
 90016d4:	8003      	strh	r3, [r0, #0]
 90016d6:	4b0e      	ldr	r3, [pc, #56]	@ (9001710 <trainerbattle_pirate_alert+0x84>)
 90016d8:	0639      	lsls	r1, r7, #24
 90016da:	0028      	movs	r0, r5
 90016dc:	701e      	strb	r6, [r3, #0]
 90016de:	0e09      	lsrs	r1, r1, #24
 90016e0:	4b0c      	ldr	r3, [pc, #48]	@ (9001714 <trainerbattle_pirate_alert+0x88>)
 90016e2:	f000 fca7 	bl	9002034 <trainer_set_flags+0x34>
 90016e6:	480c      	ldr	r0, [pc, #48]	@ (9001718 <trainerbattle_pirate_alert+0x8c>)
 90016e8:	4b0c      	ldr	r3, [pc, #48]	@ (900171c <trainerbattle_pirate_alert+0x90>)
 90016ea:	f000 fca3 	bl	9002034 <trainer_set_flags+0x34>
 90016ee:	4b0c      	ldr	r3, [pc, #48]	@ (9001720 <trainerbattle_pirate_alert+0x94>)
 90016f0:	f000 fca0 	bl	9002034 <trainer_set_flags+0x34>
 90016f4:	e7d5      	b.n	90016a2 <trainerbattle_pirate_alert+0x16>
 90016f6:	46c0      	nop			@ (mov r8, r8)
 90016f8:	00000a19 	.word	0x00000a19
	...
 9001708:	0000800f 	.word	0x0000800f
	...

09001724 <trainerbattle_aggressive_wild_pokemon_alert>:
 9001724:	b5f8      	push	{r3, r4, r5, r6, r7, lr}
 9001726:	00c3      	lsls	r3, r0, #3
 9001728:	4c19      	ldr	r4, [pc, #100]	@ (9001790 <trainerbattle_aggressive_wild_pokemon_alert+0x6c>)
 900172a:	181b      	adds	r3, r3, r0
 900172c:	009b      	lsls	r3, r3, #2
 900172e:	18e4      	adds	r4, r4, r3
 9001730:	7aa2      	ldrb	r2, [r4, #10]
 9001732:	4b18      	ldr	r3, [pc, #96]	@ (9001794 <trainerbattle_aggressive_wild_pokemon_alert+0x70>)
 9001734:	0005      	movs	r5, r0
 9001736:	7a61      	ldrb	r1, [r4, #9]
 9001738:	7a20      	ldrb	r0, [r4, #8]
 900173a:	f000 fc7b 	bl	9002034 <trainer_set_flags+0x34>
 900173e:	231f      	movs	r3, #31
 9001740:	7882      	ldrb	r2, [r0, #2]
 9001742:	4013      	ands	r3, r2
 9001744:	2b04      	cmp	r3, #4
 9001746:	d003      	beq.n	9001750 <trainerbattle_aggressive_wild_pokemon_alert+0x2c>
 9001748:	2000      	movs	r0, #0
 900174a:	bcf8      	pop	{r3, r4, r5, r6, r7}
 900174c:	bc02      	pop	{r1}
 900174e:	4708      	bx	r1
 9001750:	8a80      	ldrh	r0, [r0, #20]
 9001752:	4b11      	ldr	r3, [pc, #68]	@ (9001798 <trainerbattle_aggressive_wild_pokemon_alert+0x74>)
 9001754:	f000 fc6e 	bl	9002034 <trainer_set_flags+0x34>
 9001758:	2800      	cmp	r0, #0
 900175a:	d1f5      	bne.n	9001748 <trainerbattle_aggressive_wild_pokemon_alert+0x24>
 900175c:	0020      	movs	r0, r4
 900175e:	4b0f      	ldr	r3, [pc, #60]	@ (900179c <trainerbattle_aggressive_wild_pokemon_alert+0x78>)
 9001760:	f000 fc68 	bl	9002034 <trainer_set_flags+0x34>
 9001764:	2800      	cmp	r0, #0
 9001766:	d0ef      	beq.n	9001748 <trainerbattle_aggressive_wild_pokemon_alert+0x24>
 9001768:	4f0d      	ldr	r7, [pc, #52]	@ (90017a0 <trainerbattle_aggressive_wild_pokemon_alert+0x7c>)
 900176a:	46bc      	mov	ip, r7
 900176c:	4b0d      	ldr	r3, [pc, #52]	@ (90017a4 <trainerbattle_aggressive_wild_pokemon_alert+0x80>)
 900176e:	4e0e      	ldr	r6, [pc, #56]	@ (90017a8 <trainerbattle_aggressive_wild_pokemon_alert+0x84>)
 9001770:	5d9a      	ldrb	r2, [r3, r6]
 9001772:	1899      	adds	r1, r3, r2
 9001774:	4461      	add	r1, ip
 9001776:	3801      	subs	r0, #1
 9001778:	700d      	strb	r5, [r1, #0]
 900177a:	3201      	adds	r2, #1
 900177c:	0601      	lsls	r1, r0, #24
 900177e:	559a      	strb	r2, [r3, r6]
 9001780:	0020      	movs	r0, r4
 9001782:	4b0a      	ldr	r3, [pc, #40]	@ (90017ac <trainerbattle_aggressive_wild_pokemon_alert+0x88>)
 9001784:	0e09      	lsrs	r1, r1, #24
 9001786:	f000 fc55 	bl	9002034 <trainer_set_flags+0x34>
 900178a:	2001      	movs	r0, #1
 900178c:	e7dd      	b.n	900174a <trainerbattle_aggressive_wild_pokemon_alert+0x26>
 900178e:	46c0      	nop			@ (mov r8, r8)
	...
 90017a0:	000006be 	.word	0x000006be
 90017a4:	00000000 	.word	0x00000000
 90017a8:	000006bc 	.word	0x000006bc
 90017ac:	00000000 	.word	0x00000000

090017b0 <aggresive_wild_pokemon_create>:
 90017b0:	b5f0      	push	{r4, r5, r6, r7, lr}
 90017b2:	46de      	mov	lr, fp
 90017b4:	4645      	mov	r5, r8
 90017b6:	4657      	mov	r7, sl
 90017b8:	464e      	mov	r6, r9
 90017ba:	b5e0      	push	{r5, r6, r7, lr}
 90017bc:	4b1f      	ldr	r3, [pc, #124]	@ (900183c <aggresive_wild_pokemon_create+0x8c>)
 90017be:	b089      	sub	sp, #36	@ 0x24
 90017c0:	f000 fc38 	bl	9002034 <trainer_set_flags+0x34>
 90017c4:	4b1e      	ldr	r3, [pc, #120]	@ (9001840 <aggresive_wild_pokemon_create+0x90>)
 90017c6:	4a1f      	ldr	r2, [pc, #124]	@ (9001844 <aggresive_wild_pokemon_create+0x94>)
 90017c8:	4698      	mov	r8, r3
 90017ca:	5c9b      	ldrb	r3, [r3, r2]
 90017cc:	2b00      	cmp	r3, #0
 90017ce:	d02c      	beq.n	900182a <aggresive_wild_pokemon_create+0x7a>
 90017d0:	4b1d      	ldr	r3, [pc, #116]	@ (9001848 <aggresive_wild_pokemon_create+0x98>)
 90017d2:	4443      	add	r3, r8
 90017d4:	469b      	mov	fp, r3
 90017d6:	4b1d      	ldr	r3, [pc, #116]	@ (900184c <aggresive_wild_pokemon_create+0x9c>)
 90017d8:	469a      	mov	sl, r3
 90017da:	4b1d      	ldr	r3, [pc, #116]	@ (9001850 <aggresive_wild_pokemon_create+0xa0>)
 90017dc:	4699      	mov	r9, r3
 90017de:	4b1d      	ldr	r3, [pc, #116]	@ (9001854 <aggresive_wild_pokemon_create+0xa4>)
 90017e0:	9307      	str	r3, [sp, #28]
 90017e2:	4b1d      	ldr	r3, [pc, #116]	@ (9001858 <aggresive_wild_pokemon_create+0xa8>)
 90017e4:	2500      	movs	r5, #0
 90017e6:	001f      	movs	r7, r3
 90017e8:	2400      	movs	r4, #0
 90017ea:	4e1c      	ldr	r6, [pc, #112]	@ (900185c <aggresive_wild_pokemon_create+0xac>)
 90017ec:	465b      	mov	r3, fp
 90017ee:	5d5a      	ldrb	r2, [r3, r5]
 90017f0:	00d3      	lsls	r3, r2, #3
 90017f2:	189b      	adds	r3, r3, r2
 90017f4:	009b      	lsls	r3, r3, #2
 90017f6:	4453      	add	r3, sl
 90017f8:	7a9a      	ldrb	r2, [r3, #10]
 90017fa:	7a59      	ldrb	r1, [r3, #9]
 90017fc:	7a18      	ldrb	r0, [r3, #8]
 90017fe:	f000 fc1e 	bl	900203e <trainer_set_flags+0x3e>
 9001802:	9b07      	ldr	r3, [sp, #28]
 9001804:	78c2      	ldrb	r2, [r0, #3]
 9001806:	8ac1      	ldrh	r1, [r0, #22]
 9001808:	0030      	movs	r0, r6
 900180a:	9304      	str	r3, [sp, #16]
 900180c:	9405      	str	r4, [sp, #20]
 900180e:	2320      	movs	r3, #32
 9001810:	9403      	str	r4, [sp, #12]
 9001812:	9402      	str	r4, [sp, #8]
 9001814:	9401      	str	r4, [sp, #4]
 9001816:	9400      	str	r4, [sp, #0]
 9001818:	f000 fc10 	bl	900203c <trainer_set_flags+0x3c>
 900181c:	4643      	mov	r3, r8
 900181e:	4a09      	ldr	r2, [pc, #36]	@ (9001844 <aggresive_wild_pokemon_create+0x94>)
 9001820:	5c9b      	ldrb	r3, [r3, r2]
 9001822:	3501      	adds	r5, #1
 9001824:	3664      	adds	r6, #100	@ 0x64
 9001826:	42ab      	cmp	r3, r5
 9001828:	dce0      	bgt.n	90017ec <aggresive_wild_pokemon_create+0x3c>
 900182a:	b009      	add	sp, #36	@ 0x24
 900182c:	bcf0      	pop	{r4, r5, r6, r7}
 900182e:	46bb      	mov	fp, r7
 9001830:	46b2      	mov	sl, r6
 9001832:	46a9      	mov	r9, r5
 9001834:	46a0      	mov	r8, r4
 9001836:	bcf0      	pop	{r4, r5, r6, r7}
 9001838:	bc01      	pop	{r0}
 900183a:	4700      	bx	r0
	...
 9001844:	000006bc 	.word	0x000006bc
 9001848:	000006be 	.word	0x000006be
	...

09001860 <trigger_aggressive_wild_pokemons>:
 9001860:	4b21      	ldr	r3, [pc, #132]	@ (90018e8 <trigger_aggressive_wild_pokemons+0x88>)
 9001862:	b5f0      	push	{r4, r5, r6, r7, lr}
 9001864:	46c6      	mov	lr, r8
 9001866:	4698      	mov	r8, r3
 9001868:	2200      	movs	r2, #0
 900186a:	4641      	mov	r1, r8
 900186c:	4b1f      	ldr	r3, [pc, #124]	@ (90018ec <trigger_aggressive_wild_pokemons+0x8c>)
 900186e:	4d20      	ldr	r5, [pc, #128]	@ (90018f0 <trigger_aggressive_wild_pokemons+0x90>)
 9001870:	b500      	push	{lr}
 9001872:	2400      	movs	r4, #0
 9001874:	2702      	movs	r7, #2
 9001876:	52ca      	strh	r2, [r1, r3]
 9001878:	1fee      	subs	r6, r5, #7
 900187a:	e003      	b.n	9001884 <trigger_aggressive_wild_pokemons+0x24>
 900187c:	3401      	adds	r4, #1
 900187e:	3524      	adds	r5, #36	@ 0x24
 9001880:	2c10      	cmp	r4, #16
 9001882:	d016      	beq.n	90018b2 <trigger_aggressive_wild_pokemons+0x52>
 9001884:	00e3      	lsls	r3, r4, #3
 9001886:	191b      	adds	r3, r3, r4
 9001888:	009b      	lsls	r3, r3, #2
 900188a:	5cf3      	ldrb	r3, [r6, r3]
 900188c:	07db      	lsls	r3, r3, #31
 900188e:	d5f5      	bpl.n	900187c <trigger_aggressive_wild_pokemons+0x1c>
 9001890:	782b      	ldrb	r3, [r5, #0]
 9001892:	43bb      	bics	r3, r7
 9001894:	2b01      	cmp	r3, #1
 9001896:	d1f1      	bne.n	900187c <trigger_aggressive_wild_pokemons+0x1c>
 9001898:	0620      	lsls	r0, r4, #24
 900189a:	0e00      	lsrs	r0, r0, #24
 900189c:	f7ff fffe 	bl	9001724 <trainerbattle_aggressive_wild_pokemon_alert>
 90018a0:	2802      	cmp	r0, #2
 90018a2:	d006      	beq.n	90018b2 <trigger_aggressive_wild_pokemons+0x52>
 90018a4:	2801      	cmp	r0, #1
 90018a6:	d1e9      	bne.n	900187c <trigger_aggressive_wild_pokemons+0x1c>
 90018a8:	4b12      	ldr	r3, [pc, #72]	@ (90018f4 <trigger_aggressive_wild_pokemons+0x94>)
 90018aa:	f000 fbc3 	bl	9002034 <trainer_set_flags+0x34>
 90018ae:	2800      	cmp	r0, #0
 90018b0:	d0e4      	beq.n	900187c <trigger_aggressive_wild_pokemons+0x1c>
 90018b2:	2200      	movs	r2, #0
 90018b4:	4641      	mov	r1, r8
 90018b6:	4b10      	ldr	r3, [pc, #64]	@ (90018f8 <trigger_aggressive_wild_pokemons+0x98>)
 90018b8:	54ca      	strb	r2, [r1, r3]
 90018ba:	f7ff fffe 	bl	90017b0 <aggresive_wild_pokemon_create>
 90018be:	4642      	mov	r2, r8
 90018c0:	4b0a      	ldr	r3, [pc, #40]	@ (90018ec <trigger_aggressive_wild_pokemons+0x8c>)
 90018c2:	5cd3      	ldrb	r3, [r2, r3]
 90018c4:	2000      	movs	r0, #0
 90018c6:	2b00      	cmp	r3, #0
 90018c8:	d104      	bne.n	90018d4 <trigger_aggressive_wild_pokemons+0x74>
 90018ca:	bc80      	pop	{r7}
 90018cc:	46b8      	mov	r8, r7
 90018ce:	bcf0      	pop	{r4, r5, r6, r7}
 90018d0:	bc02      	pop	{r1}
 90018d2:	4708      	bx	r1
 90018d4:	4809      	ldr	r0, [pc, #36]	@ (90018fc <trigger_aggressive_wild_pokemons+0x9c>)
 90018d6:	4b0a      	ldr	r3, [pc, #40]	@ (9001900 <trigger_aggressive_wild_pokemons+0xa0>)
 90018d8:	f000 fbac 	bl	9002034 <trainer_set_flags+0x34>
 90018dc:	4b09      	ldr	r3, [pc, #36]	@ (9001904 <trigger_aggressive_wild_pokemons+0xa4>)
 90018de:	f000 fba9 	bl	9002034 <trainer_set_flags+0x34>
 90018e2:	2001      	movs	r0, #1
 90018e4:	e7f1      	b.n	90018ca <trigger_aggressive_wild_pokemons+0x6a>
 90018e6:	46c0      	nop			@ (mov r8, r8)
 90018e8:	00000000 	.word	0x00000000
 90018ec:	000006bc 	.word	0x000006bc
 90018f0:	00000007 	.word	0x00000007
 90018f4:	00000000 	.word	0x00000000
 90018f8:	000006bd 	.word	0x000006bd
	...

09001908 <aggressive_wild_get_approaching_species>:
 9001908:	b510      	push	{r4, lr}
 900190a:	4b0b      	ldr	r3, [pc, #44]	@ (9001938 <aggressive_wild_get_approaching_species+0x30>)
 900190c:	4a0b      	ldr	r2, [pc, #44]	@ (900193c <aggressive_wild_get_approaching_species+0x34>)
 900190e:	5c9a      	ldrb	r2, [r3, r2]
 9001910:	189b      	adds	r3, r3, r2
 9001912:	4a0b      	ldr	r2, [pc, #44]	@ (9001940 <aggressive_wild_get_approaching_species+0x38>)
 9001914:	4694      	mov	ip, r2
 9001916:	4463      	add	r3, ip
 9001918:	7819      	ldrb	r1, [r3, #0]
 900191a:	00ca      	lsls	r2, r1, #3
 900191c:	4b09      	ldr	r3, [pc, #36]	@ (9001944 <aggressive_wild_get_approaching_species+0x3c>)
 900191e:	1852      	adds	r2, r2, r1
 9001920:	0092      	lsls	r2, r2, #2
 9001922:	189b      	adds	r3, r3, r2
 9001924:	7a9a      	ldrb	r2, [r3, #10]
 9001926:	7a59      	ldrb	r1, [r3, #9]
 9001928:	7a18      	ldrb	r0, [r3, #8]
 900192a:	4b07      	ldr	r3, [pc, #28]	@ (9001948 <aggressive_wild_get_approaching_species+0x40>)
 900192c:	f000 fb82 	bl	9002034 <trainer_set_flags+0x34>
 9001930:	8ac0      	ldrh	r0, [r0, #22]
 9001932:	bc10      	pop	{r4}
 9001934:	bc02      	pop	{r1}
 9001936:	4708      	bx	r1
 9001938:	00000000 	.word	0x00000000
 900193c:	000006bd 	.word	0x000006bd
 9001940:	000006be 	.word	0x000006be
	...

0900194c <aggressive_wild_hidesprites_after_battle>:
 900194c:	b5f8      	push	{r3, r4, r5, r6, r7, lr}
 900194e:	46ce      	mov	lr, r9
 9001950:	4647      	mov	r7, r8
 9001952:	b580      	push	{r7, lr}
 9001954:	4d10      	ldr	r5, [pc, #64]	@ (9001998 <aggressive_wild_hidesprites_after_battle+0x4c>)
 9001956:	4e11      	ldr	r6, [pc, #68]	@ (900199c <aggressive_wild_hidesprites_after_battle+0x50>)
 9001958:	5dab      	ldrb	r3, [r5, r6]
 900195a:	2b00      	cmp	r3, #0
 900195c:	d015      	beq.n	900198a <aggressive_wild_hidesprites_after_battle+0x3e>
 900195e:	4b10      	ldr	r3, [pc, #64]	@ (90019a0 <aggressive_wild_hidesprites_after_battle+0x54>)
 9001960:	4699      	mov	r9, r3
 9001962:	4b10      	ldr	r3, [pc, #64]	@ (90019a4 <aggressive_wild_hidesprites_after_battle+0x58>)
 9001964:	2400      	movs	r4, #0
 9001966:	4698      	mov	r8, r3
 9001968:	4f0f      	ldr	r7, [pc, #60]	@ (90019a8 <aggressive_wild_hidesprites_after_battle+0x5c>)
 900196a:	44a9      	add	r9, r5
 900196c:	464b      	mov	r3, r9
 900196e:	5d1a      	ldrb	r2, [r3, r4]
 9001970:	00d3      	lsls	r3, r2, #3
 9001972:	189b      	adds	r3, r3, r2
 9001974:	009b      	lsls	r3, r3, #2
 9001976:	4443      	add	r3, r8
 9001978:	7a9a      	ldrb	r2, [r3, #10]
 900197a:	7a59      	ldrb	r1, [r3, #9]
 900197c:	7a18      	ldrb	r0, [r3, #8]
 900197e:	f000 fb5d 	bl	900203c <trainer_set_flags+0x3c>
 9001982:	5dab      	ldrb	r3, [r5, r6]
 9001984:	3401      	adds	r4, #1
 9001986:	42a3      	cmp	r3, r4
 9001988:	dcf0      	bgt.n	900196c <aggressive_wild_hidesprites_after_battle+0x20>
 900198a:	bcc0      	pop	{r6, r7}
 900198c:	46b9      	mov	r9, r7
 900198e:	46b0      	mov	r8, r6
 9001990:	bcf8      	pop	{r3, r4, r5, r6, r7}
 9001992:	bc01      	pop	{r0}
 9001994:	4700      	bx	r0
 9001996:	46c0      	nop			@ (mov r8, r8)
 9001998:	00000000 	.word	0x00000000
 900199c:	000006bc 	.word	0x000006bc
 90019a0:	000006be 	.word	0x000006be
	...

090019ac <aggressive_wild_setup_by_person>:
 90019ac:	b510      	push	{r4, lr}
 90019ae:	4b0b      	ldr	r3, [pc, #44]	@ (90019dc <aggressive_wild_setup_by_person+0x30>)
 90019b0:	480b      	ldr	r0, [pc, #44]	@ (90019e0 <aggressive_wild_setup_by_person+0x34>)
 90019b2:	f000 fb3f 	bl	9002034 <trainer_set_flags+0x34>
 90019b6:	4b0b      	ldr	r3, [pc, #44]	@ (90019e4 <aggressive_wild_setup_by_person+0x38>)
 90019b8:	681b      	ldr	r3, [r3, #0]
 90019ba:	7800      	ldrb	r0, [r0, #0]
 90019bc:	791a      	ldrb	r2, [r3, #4]
 90019be:	7959      	ldrb	r1, [r3, #5]
 90019c0:	4b09      	ldr	r3, [pc, #36]	@ (90019e8 <aggressive_wild_setup_by_person+0x3c>)
 90019c2:	f000 fb37 	bl	9002034 <trainer_set_flags+0x34>
 90019c6:	2101      	movs	r1, #1
 90019c8:	4b08      	ldr	r3, [pc, #32]	@ (90019ec <aggressive_wild_setup_by_person+0x40>)
 90019ca:	4a09      	ldr	r2, [pc, #36]	@ (90019f0 <aggressive_wild_setup_by_person+0x44>)
 90019cc:	5498      	strb	r0, [r3, r2]
 90019ce:	4a09      	ldr	r2, [pc, #36]	@ (90019f4 <aggressive_wild_setup_by_person+0x48>)
 90019d0:	5499      	strb	r1, [r3, r2]
 90019d2:	f7ff fffe 	bl	90017b0 <aggresive_wild_pokemon_create>
 90019d6:	bc10      	pop	{r4}
 90019d8:	bc01      	pop	{r0}
 90019da:	4700      	bx	r0
 90019dc:	00000000 	.word	0x00000000
 90019e0:	0000800f 	.word	0x0000800f
	...
 90019f0:	000006be 	.word	0x000006be
 90019f4:	000006bc 	.word	0x000006bc

090019f8 <trainer_get_current_npc_idx>:
 90019f8:	b570      	push	{r4, r5, r6, lr}
 90019fa:	4b0f      	ldr	r3, [pc, #60]	@ (9001a38 <trainer_get_current_npc_idx+0x40>)
 90019fc:	4a0f      	ldr	r2, [pc, #60]	@ (9001a3c <trainer_get_current_npc_idx+0x44>)
 90019fe:	5c9a      	ldrb	r2, [r3, r2]
 9001a00:	189b      	adds	r3, r3, r2
 9001a02:	4a0f      	ldr	r2, [pc, #60]	@ (9001a40 <trainer_get_current_npc_idx+0x48>)
 9001a04:	4694      	mov	ip, r2
 9001a06:	4463      	add	r3, ip
 9001a08:	7819      	ldrb	r1, [r3, #0]
 9001a0a:	00ca      	lsls	r2, r1, #3
 9001a0c:	1852      	adds	r2, r2, r1
 9001a0e:	4b0d      	ldr	r3, [pc, #52]	@ (9001a44 <trainer_get_current_npc_idx+0x4c>)
 9001a10:	0092      	lsls	r2, r2, #2
 9001a12:	4c0d      	ldr	r4, [pc, #52]	@ (9001a48 <trainer_get_current_npc_idx+0x50>)
 9001a14:	189b      	adds	r3, r3, r2
 9001a16:	7a1d      	ldrb	r5, [r3, #8]
 9001a18:	480c      	ldr	r0, [pc, #48]	@ (9001a4c <trainer_get_current_npc_idx+0x54>)
 9001a1a:	4b0d      	ldr	r3, [pc, #52]	@ (9001a50 <trainer_get_current_npc_idx+0x58>)
 9001a1c:	7021      	strb	r1, [r4, #0]
 9001a1e:	f000 fb09 	bl	9002034 <trainer_set_flags+0x34>
 9001a22:	7822      	ldrb	r2, [r4, #0]
 9001a24:	8005      	strh	r5, [r0, #0]
 9001a26:	490b      	ldr	r1, [pc, #44]	@ (9001a54 <trainer_get_current_npc_idx+0x5c>)
 9001a28:	2004      	movs	r0, #4
 9001a2a:	4b0b      	ldr	r3, [pc, #44]	@ (9001a58 <trainer_get_current_npc_idx+0x60>)
 9001a2c:	f000 fb02 	bl	9002034 <trainer_set_flags+0x34>
 9001a30:	7820      	ldrb	r0, [r4, #0]
 9001a32:	bc70      	pop	{r4, r5, r6}
 9001a34:	bc02      	pop	{r1}
 9001a36:	4708      	bx	r1
 9001a38:	00000000 	.word	0x00000000
 9001a3c:	000006bd 	.word	0x000006bd
 9001a40:	000006be 	.word	0x000006be
	...
 9001a4c:	0000800f 	.word	0x0000800f
 9001a50:	00000000 	.word	0x00000000
 9001a54:	000001dc 	.word	0x000001dc
 9001a58:	00000000 	.word	0x00000000

09001a5c <trainer_approach_second>:
 9001a5c:	b5f8      	push	{r3, r4, r5, r6, r7, lr}
 9001a5e:	4c16      	ldr	r4, [pc, #88]	@ (9001ab8 <trainer_approach_second+0x5c>)
 9001a60:	4e16      	ldr	r6, [pc, #88]	@ (9001abc <trainer_approach_second+0x60>)
 9001a62:	4d17      	ldr	r5, [pc, #92]	@ (9001ac0 <trainer_approach_second+0x64>)
 9001a64:	5da3      	ldrb	r3, [r4, r6]
 9001a66:	5d62      	ldrb	r2, [r4, r5]
 9001a68:	2004      	movs	r0, #4
 9001a6a:	4916      	ldr	r1, [pc, #88]	@ (9001ac4 <trainer_approach_second+0x68>)
 9001a6c:	4f16      	ldr	r7, [pc, #88]	@ (9001ac8 <trainer_approach_second+0x6c>)
 9001a6e:	f000 fae5 	bl	900203c <trainer_set_flags+0x3c>
 9001a72:	5da3      	ldrb	r3, [r4, r6]
 9001a74:	5d62      	ldrb	r2, [r4, r5]
 9001a76:	3b01      	subs	r3, #1
 9001a78:	429a      	cmp	r2, r3
 9001a7a:	da16      	bge.n	9001aaa <trainer_approach_second+0x4e>
 9001a7c:	3201      	adds	r2, #1
 9001a7e:	4b13      	ldr	r3, [pc, #76]	@ (9001acc <trainer_approach_second+0x70>)
 9001a80:	5562      	strb	r2, [r4, r5]
 9001a82:	f000 fad7 	bl	9002034 <trainer_set_flags+0x34>
 9001a86:	5d63      	ldrb	r3, [r4, r5]
 9001a88:	18e4      	adds	r4, r4, r3
 9001a8a:	4b11      	ldr	r3, [pc, #68]	@ (9001ad0 <trainer_approach_second+0x74>)
 9001a8c:	469c      	mov	ip, r3
 9001a8e:	4464      	add	r4, ip
 9001a90:	7820      	ldrb	r0, [r4, #0]
 9001a92:	4b10      	ldr	r3, [pc, #64]	@ (9001ad4 <trainer_approach_second+0x78>)
 9001a94:	f000 face 	bl	9002034 <trainer_set_flags+0x34>
 9001a98:	4b0f      	ldr	r3, [pc, #60]	@ (9001ad8 <trainer_approach_second+0x7c>)
 9001a9a:	4810      	ldr	r0, [pc, #64]	@ (9001adc <trainer_approach_second+0x80>)
 9001a9c:	f000 faca 	bl	9002034 <trainer_set_flags+0x34>
 9001aa0:	2301      	movs	r3, #1
 9001aa2:	8003      	strh	r3, [r0, #0]
 9001aa4:	bcf8      	pop	{r3, r4, r5, r6, r7}
 9001aa6:	bc01      	pop	{r0}
 9001aa8:	4700      	bx	r0
 9001aaa:	4b0b      	ldr	r3, [pc, #44]	@ (9001ad8 <trainer_approach_second+0x7c>)
 9001aac:	480b      	ldr	r0, [pc, #44]	@ (9001adc <trainer_approach_second+0x80>)
 9001aae:	f000 fac1 	bl	9002034 <trainer_set_flags+0x34>
 9001ab2:	2300      	movs	r3, #0
 9001ab4:	8003      	strh	r3, [r0, #0]
 9001ab6:	e7f5      	b.n	9001aa4 <trainer_approach_second+0x48>
 9001ab8:	00000000 	.word	0x00000000
 9001abc:	000006bc 	.word	0x000006bc
 9001ac0:	000006bd 	.word	0x000006bd
 9001ac4:	000001f4 	.word	0x000001f4
	...
 9001ad0:	000006be 	.word	0x000006be
	...
 9001adc:	0000800d 	.word	0x0000800d

09001ae0 <trainer_configuration_print>:
 9001ae0:	b570      	push	{r4, r5, r6, lr}
 9001ae2:	0004      	movs	r4, r0
 9001ae4:	4d1a      	ldr	r5, [pc, #104]	@ (9001b50 <trainer_configuration_print+0x70>)
 9001ae6:	8842      	ldrh	r2, [r0, #2]
 9001ae8:	491a      	ldr	r1, [pc, #104]	@ (9001b54 <trainer_configuration_print+0x74>)
 9001aea:	2004      	movs	r0, #4
 9001aec:	f000 faa4 	bl	9002038 <trainer_set_flags+0x38>
 9001af0:	88a2      	ldrh	r2, [r4, #4]
 9001af2:	2004      	movs	r0, #4
 9001af4:	4918      	ldr	r1, [pc, #96]	@ (9001b58 <trainer_configuration_print+0x78>)
 9001af6:	f000 fa9f 	bl	9002038 <trainer_set_flags+0x38>
 9001afa:	88e2      	ldrh	r2, [r4, #6]
 9001afc:	2004      	movs	r0, #4
 9001afe:	4917      	ldr	r1, [pc, #92]	@ (9001b5c <trainer_configuration_print+0x7c>)
 9001b00:	f000 fa9a 	bl	9002038 <trainer_set_flags+0x38>
 9001b04:	68a2      	ldr	r2, [r4, #8]
 9001b06:	2004      	movs	r0, #4
 9001b08:	4915      	ldr	r1, [pc, #84]	@ (9001b60 <trainer_configuration_print+0x80>)
 9001b0a:	f000 fa95 	bl	9002038 <trainer_set_flags+0x38>
 9001b0e:	68e2      	ldr	r2, [r4, #12]
 9001b10:	2004      	movs	r0, #4
 9001b12:	4914      	ldr	r1, [pc, #80]	@ (9001b64 <trainer_configuration_print+0x84>)
 9001b14:	f000 fa90 	bl	9002038 <trainer_set_flags+0x38>
 9001b18:	6922      	ldr	r2, [r4, #16]
 9001b1a:	2004      	movs	r0, #4
 9001b1c:	4912      	ldr	r1, [pc, #72]	@ (9001b68 <trainer_configuration_print+0x88>)
 9001b1e:	f000 fa8b 	bl	9002038 <trainer_set_flags+0x38>
 9001b22:	6962      	ldr	r2, [r4, #20]
 9001b24:	2004      	movs	r0, #4
 9001b26:	4911      	ldr	r1, [pc, #68]	@ (9001b6c <trainer_configuration_print+0x8c>)
 9001b28:	f000 fa86 	bl	9002038 <trainer_set_flags+0x38>
 9001b2c:	69a2      	ldr	r2, [r4, #24]
 9001b2e:	2004      	movs	r0, #4
 9001b30:	490f      	ldr	r1, [pc, #60]	@ (9001b70 <trainer_configuration_print+0x90>)
 9001b32:	f000 fa81 	bl	9002038 <trainer_set_flags+0x38>
 9001b36:	69e2      	ldr	r2, [r4, #28]
 9001b38:	2004      	movs	r0, #4
 9001b3a:	490e      	ldr	r1, [pc, #56]	@ (9001b74 <trainer_configuration_print+0x94>)
 9001b3c:	f000 fa7c 	bl	9002038 <trainer_set_flags+0x38>
 9001b40:	2004      	movs	r0, #4
 9001b42:	8c22      	ldrh	r2, [r4, #32]
 9001b44:	490c      	ldr	r1, [pc, #48]	@ (9001b78 <trainer_configuration_print+0x98>)
 9001b46:	f000 fa77 	bl	9002038 <trainer_set_flags+0x38>
 9001b4a:	bc70      	pop	{r4, r5, r6}
 9001b4c:	bc01      	pop	{r0}
 9001b4e:	4700      	bx	r0
 9001b50:	00000000 	.word	0x00000000
 9001b54:	00000218 	.word	0x00000218
 9001b58:	00000228 	.word	0x00000228
 9001b5c:	00000238 	.word	0x00000238
 9001b60:	00000248 	.word	0x00000248
 9001b64:	00000260 	.word	0x00000260
 9001b68:	00000270 	.word	0x00000270
 9001b6c:	00000284 	.word	0x00000284
 9001b70:	000002a0 	.word	0x000002a0
 9001b74:	000002b0 	.word	0x000002b0
 9001b78:	000002c0 	.word	0x000002c0

09001b7c <trainer_configure_by_overworld_script>:
 9001b7c:	b570      	push	{r4, r5, r6, lr}
 9001b7e:	4b5b      	ldr	r3, [pc, #364]	@ (9001cec <trainer_configure_by_overworld_script+0x170>)
 9001b80:	0004      	movs	r4, r0
 9001b82:	485b      	ldr	r0, [pc, #364]	@ (9001cf0 <trainer_configure_by_overworld_script+0x174>)
 9001b84:	f000 fa56 	bl	9002034 <trainer_set_flags+0x34>
 9001b88:	2800      	cmp	r0, #0
 9001b8a:	d003      	beq.n	9001b94 <trainer_configure_by_overworld_script+0x18>
 9001b8c:	4859      	ldr	r0, [pc, #356]	@ (9001cf4 <trainer_configure_by_overworld_script+0x178>)
 9001b8e:	bc70      	pop	{r4, r5, r6}
 9001b90:	bc02      	pop	{r1}
 9001b92:	4708      	bx	r1
 9001b94:	f7ff fffe 	bl	900154c <trainer_variables_initialize>
 9001b98:	7823      	ldrb	r3, [r4, #0]
 9001b9a:	2b0c      	cmp	r3, #12
 9001b9c:	d900      	bls.n	9001ba0 <trainer_configure_by_overworld_script+0x24>
 9001b9e:	e084      	b.n	9001caa <trainer_configure_by_overworld_script+0x12e>
 9001ba0:	4a55      	ldr	r2, [pc, #340]	@ (9001cf8 <trainer_configure_by_overworld_script+0x17c>)
 9001ba2:	009b      	lsls	r3, r3, #2
 9001ba4:	58d3      	ldr	r3, [r2, r3]
 9001ba6:	469f      	mov	pc, r3
 9001ba8:	4854      	ldr	r0, [pc, #336]	@ (9001cfc <trainer_configure_by_overworld_script+0x180>)
 9001baa:	0021      	movs	r1, r4
 9001bac:	4b54      	ldr	r3, [pc, #336]	@ (9001d00 <trainer_configure_by_overworld_script+0x184>)
 9001bae:	f000 fa41 	bl	9002034 <trainer_set_flags+0x34>
 9001bb2:	4b54      	ldr	r3, [pc, #336]	@ (9001d04 <trainer_configure_by_overworld_script+0x188>)
 9001bb4:	f000 fa3e 	bl	9002034 <trainer_set_flags+0x34>
 9001bb8:	4853      	ldr	r0, [pc, #332]	@ (9001d08 <trainer_configure_by_overworld_script+0x18c>)
 9001bba:	e7e8      	b.n	9001b8e <trainer_configure_by_overworld_script+0x12>
 9001bbc:	4853      	ldr	r0, [pc, #332]	@ (9001d0c <trainer_configure_by_overworld_script+0x190>)
 9001bbe:	0021      	movs	r1, r4
 9001bc0:	4b4f      	ldr	r3, [pc, #316]	@ (9001d00 <trainer_configure_by_overworld_script+0x184>)
 9001bc2:	f000 fa37 	bl	9002034 <trainer_set_flags+0x34>
 9001bc6:	4b4f      	ldr	r3, [pc, #316]	@ (9001d04 <trainer_configure_by_overworld_script+0x188>)
 9001bc8:	f000 fa34 	bl	9002034 <trainer_set_flags+0x34>
 9001bcc:	4850      	ldr	r0, [pc, #320]	@ (9001d10 <trainer_configure_by_overworld_script+0x194>)
 9001bce:	e7de      	b.n	9001b8e <trainer_configure_by_overworld_script+0x12>
 9001bd0:	4850      	ldr	r0, [pc, #320]	@ (9001d14 <trainer_configure_by_overworld_script+0x198>)
 9001bd2:	0021      	movs	r1, r4
 9001bd4:	4b4a      	ldr	r3, [pc, #296]	@ (9001d00 <trainer_configure_by_overworld_script+0x184>)
 9001bd6:	f000 fa2d 	bl	9002034 <trainer_set_flags+0x34>
 9001bda:	4b4a      	ldr	r3, [pc, #296]	@ (9001d04 <trainer_configure_by_overworld_script+0x188>)
 9001bdc:	f000 fa2a 	bl	9002034 <trainer_set_flags+0x34>
 9001be0:	484d      	ldr	r0, [pc, #308]	@ (9001d18 <trainer_configure_by_overworld_script+0x19c>)
 9001be2:	e7d4      	b.n	9001b8e <trainer_configure_by_overworld_script+0x12>
 9001be4:	0021      	movs	r1, r4
 9001be6:	484d      	ldr	r0, [pc, #308]	@ (9001d1c <trainer_configure_by_overworld_script+0x1a0>)
 9001be8:	4b45      	ldr	r3, [pc, #276]	@ (9001d00 <trainer_configure_by_overworld_script+0x184>)
 9001bea:	f000 fa23 	bl	9002034 <trainer_set_flags+0x34>
 9001bee:	4b45      	ldr	r3, [pc, #276]	@ (9001d04 <trainer_configure_by_overworld_script+0x188>)
 9001bf0:	f000 fa20 	bl	9002034 <trainer_set_flags+0x34>
 9001bf4:	4c4a      	ldr	r4, [pc, #296]	@ (9001d20 <trainer_configure_by_overworld_script+0x1a4>)
 9001bf6:	4b4b      	ldr	r3, [pc, #300]	@ (9001d24 <trainer_configure_by_overworld_script+0x1a8>)
 9001bf8:	8860      	ldrh	r0, [r4, #2]
 9001bfa:	f000 fa1b 	bl	9002034 <trainer_set_flags+0x34>
 9001bfe:	8060      	strh	r0, [r4, #2]
 9001c00:	4849      	ldr	r0, [pc, #292]	@ (9001d28 <trainer_configure_by_overworld_script+0x1ac>)
 9001c02:	e7c4      	b.n	9001b8e <trainer_configure_by_overworld_script+0x12>
 9001c04:	4845      	ldr	r0, [pc, #276]	@ (9001d1c <trainer_configure_by_overworld_script+0x1a0>)
 9001c06:	e7d0      	b.n	9001baa <trainer_configure_by_overworld_script+0x2e>
 9001c08:	0021      	movs	r1, r4
 9001c0a:	4848      	ldr	r0, [pc, #288]	@ (9001d2c <trainer_configure_by_overworld_script+0x1b0>)
 9001c0c:	4b3c      	ldr	r3, [pc, #240]	@ (9001d00 <trainer_configure_by_overworld_script+0x184>)
 9001c0e:	f000 fa11 	bl	9002034 <trainer_set_flags+0x34>
 9001c12:	4b3c      	ldr	r3, [pc, #240]	@ (9001d04 <trainer_configure_by_overworld_script+0x188>)
 9001c14:	f000 fa0e 	bl	9002034 <trainer_set_flags+0x34>
 9001c18:	4c41      	ldr	r4, [pc, #260]	@ (9001d20 <trainer_configure_by_overworld_script+0x1a4>)
 9001c1a:	4b42      	ldr	r3, [pc, #264]	@ (9001d24 <trainer_configure_by_overworld_script+0x1a8>)
 9001c1c:	8860      	ldrh	r0, [r4, #2]
 9001c1e:	f000 fa09 	bl	9002034 <trainer_set_flags+0x34>
 9001c22:	8060      	strh	r0, [r4, #2]
 9001c24:	4842      	ldr	r0, [pc, #264]	@ (9001d30 <trainer_configure_by_overworld_script+0x1b4>)
 9001c26:	e7b2      	b.n	9001b8e <trainer_configure_by_overworld_script+0x12>
 9001c28:	4842      	ldr	r0, [pc, #264]	@ (9001d34 <trainer_configure_by_overworld_script+0x1b8>)
 9001c2a:	e7d2      	b.n	9001bd2 <trainer_configure_by_overworld_script+0x56>
 9001c2c:	2102      	movs	r1, #2
 9001c2e:	4b42      	ldr	r3, [pc, #264]	@ (9001d38 <trainer_configure_by_overworld_script+0x1bc>)
 9001c30:	4a42      	ldr	r2, [pc, #264]	@ (9001d3c <trainer_configure_by_overworld_script+0x1c0>)
 9001c32:	4843      	ldr	r0, [pc, #268]	@ (9001d40 <trainer_configure_by_overworld_script+0x1c4>)
 9001c34:	5499      	strb	r1, [r3, r2]
 9001c36:	0021      	movs	r1, r4
 9001c38:	4b31      	ldr	r3, [pc, #196]	@ (9001d00 <trainer_configure_by_overworld_script+0x184>)
 9001c3a:	f000 f9fb 	bl	9002034 <trainer_set_flags+0x34>
 9001c3e:	4b31      	ldr	r3, [pc, #196]	@ (9001d04 <trainer_configure_by_overworld_script+0x188>)
 9001c40:	f000 f9f8 	bl	9002034 <trainer_set_flags+0x34>
 9001c44:	483f      	ldr	r0, [pc, #252]	@ (9001d44 <trainer_configure_by_overworld_script+0x1c8>)
 9001c46:	e7a2      	b.n	9001b8e <trainer_configure_by_overworld_script+0x12>
 9001c48:	0021      	movs	r1, r4
 9001c4a:	483f      	ldr	r0, [pc, #252]	@ (9001d48 <trainer_configure_by_overworld_script+0x1cc>)
 9001c4c:	4b2c      	ldr	r3, [pc, #176]	@ (9001d00 <trainer_configure_by_overworld_script+0x184>)
 9001c4e:	f000 f9f1 	bl	9002034 <trainer_set_flags+0x34>
 9001c52:	4b2c      	ldr	r3, [pc, #176]	@ (9001d04 <trainer_configure_by_overworld_script+0x188>)
 9001c54:	f000 f9ee 	bl	9002034 <trainer_set_flags+0x34>
 9001c58:	483c      	ldr	r0, [pc, #240]	@ (9001d4c <trainer_configure_by_overworld_script+0x1d0>)
 9001c5a:	4c3d      	ldr	r4, [pc, #244]	@ (9001d50 <trainer_configure_by_overworld_script+0x1d4>)
 9001c5c:	f000 f9eb 	bl	9002036 <trainer_set_flags+0x36>
 9001c60:	4b35      	ldr	r3, [pc, #212]	@ (9001d38 <trainer_configure_by_overworld_script+0x1bc>)
 9001c62:	4a3c      	ldr	r2, [pc, #240]	@ (9001d54 <trainer_configure_by_overworld_script+0x1d8>)
 9001c64:	5a9b      	ldrh	r3, [r3, r2]
 9001c66:	8003      	strh	r3, [r0, #0]
 9001c68:	4838      	ldr	r0, [pc, #224]	@ (9001d4c <trainer_configure_by_overworld_script+0x1d0>)
 9001c6a:	f000 f9e4 	bl	9002036 <trainer_set_flags+0x36>
 9001c6e:	493a      	ldr	r1, [pc, #232]	@ (9001d58 <trainer_configure_by_overworld_script+0x1dc>)
 9001c70:	8802      	ldrh	r2, [r0, #0]
 9001c72:	4b3a      	ldr	r3, [pc, #232]	@ (9001d5c <trainer_configure_by_overworld_script+0x1e0>)
 9001c74:	2004      	movs	r0, #4
 9001c76:	f000 f9dd 	bl	9002034 <trainer_set_flags+0x34>
 9001c7a:	4829      	ldr	r0, [pc, #164]	@ (9001d20 <trainer_configure_by_overworld_script+0x1a4>)
 9001c7c:	f7ff fffe 	bl	9001ae0 <trainer_configuration_print>
 9001c80:	4830      	ldr	r0, [pc, #192]	@ (9001d44 <trainer_configure_by_overworld_script+0x1c8>)
 9001c82:	e784      	b.n	9001b8e <trainer_configure_by_overworld_script+0x12>
 9001c84:	2202      	movs	r2, #2
 9001c86:	4d2c      	ldr	r5, [pc, #176]	@ (9001d38 <trainer_configure_by_overworld_script+0x1bc>)
 9001c88:	4b2c      	ldr	r3, [pc, #176]	@ (9001d3c <trainer_configure_by_overworld_script+0x1c0>)
 9001c8a:	0021      	movs	r1, r4
 9001c8c:	54ea      	strb	r2, [r5, r3]
 9001c8e:	4834      	ldr	r0, [pc, #208]	@ (9001d60 <trainer_configure_by_overworld_script+0x1e4>)
 9001c90:	4b1b      	ldr	r3, [pc, #108]	@ (9001d00 <trainer_configure_by_overworld_script+0x184>)
 9001c92:	f000 f9cf 	bl	9002034 <trainer_set_flags+0x34>
 9001c96:	4b1b      	ldr	r3, [pc, #108]	@ (9001d04 <trainer_configure_by_overworld_script+0x188>)
 9001c98:	f000 f9cc 	bl	9002034 <trainer_set_flags+0x34>
 9001c9c:	482b      	ldr	r0, [pc, #172]	@ (9001d4c <trainer_configure_by_overworld_script+0x1d0>)
 9001c9e:	4c2c      	ldr	r4, [pc, #176]	@ (9001d50 <trainer_configure_by_overworld_script+0x1d4>)
 9001ca0:	f000 f9c9 	bl	9002036 <trainer_set_flags+0x36>
 9001ca4:	4b2b      	ldr	r3, [pc, #172]	@ (9001d54 <trainer_configure_by_overworld_script+0x1d8>)
 9001ca6:	5aeb      	ldrh	r3, [r5, r3]
 9001ca8:	e7dd      	b.n	9001c66 <trainer_configure_by_overworld_script+0xea>
 9001caa:	4d23      	ldr	r5, [pc, #140]	@ (9001d38 <trainer_configure_by_overworld_script+0x1bc>)
 9001cac:	4b2d      	ldr	r3, [pc, #180]	@ (9001d64 <trainer_configure_by_overworld_script+0x1e8>)
 9001cae:	5ceb      	ldrb	r3, [r5, r3]
 9001cb0:	2b00      	cmp	r3, #0
 9001cb2:	d107      	bne.n	9001cc4 <trainer_configure_by_overworld_script+0x148>
 9001cb4:	2004      	movs	r0, #4
 9001cb6:	0022      	movs	r2, r4
 9001cb8:	492b      	ldr	r1, [pc, #172]	@ (9001d68 <trainer_configure_by_overworld_script+0x1ec>)
 9001cba:	4b28      	ldr	r3, [pc, #160]	@ (9001d5c <trainer_configure_by_overworld_script+0x1e0>)
 9001cbc:	f000 f9ba 	bl	9002034 <trainer_set_flags+0x34>
 9001cc0:	481a      	ldr	r0, [pc, #104]	@ (9001d2c <trainer_configure_by_overworld_script+0x1b0>)
 9001cc2:	e77c      	b.n	9001bbe <trainer_configure_by_overworld_script+0x42>
 9001cc4:	0022      	movs	r2, r4
 9001cc6:	2004      	movs	r0, #4
 9001cc8:	4928      	ldr	r1, [pc, #160]	@ (9001d6c <trainer_configure_by_overworld_script+0x1f0>)
 9001cca:	4b24      	ldr	r3, [pc, #144]	@ (9001d5c <trainer_configure_by_overworld_script+0x1e0>)
 9001ccc:	f000 f9b2 	bl	9002034 <trainer_set_flags+0x34>
 9001cd0:	0021      	movs	r1, r4
 9001cd2:	4827      	ldr	r0, [pc, #156]	@ (9001d70 <trainer_configure_by_overworld_script+0x1f4>)
 9001cd4:	4b0a      	ldr	r3, [pc, #40]	@ (9001d00 <trainer_configure_by_overworld_script+0x184>)
 9001cd6:	f000 f9ad 	bl	9002034 <trainer_set_flags+0x34>
 9001cda:	4b1d      	ldr	r3, [pc, #116]	@ (9001d50 <trainer_configure_by_overworld_script+0x1d4>)
 9001cdc:	4825      	ldr	r0, [pc, #148]	@ (9001d74 <trainer_configure_by_overworld_script+0x1f8>)
 9001cde:	f000 f9a9 	bl	9002034 <trainer_set_flags+0x34>
 9001ce2:	4b25      	ldr	r3, [pc, #148]	@ (9001d78 <trainer_configure_by_overworld_script+0x1fc>)
 9001ce4:	5aeb      	ldrh	r3, [r5, r3]
 9001ce6:	8003      	strh	r3, [r0, #0]
 9001ce8:	4809      	ldr	r0, [pc, #36]	@ (9001d10 <trainer_configure_by_overworld_script+0x194>)
 9001cea:	e750      	b.n	9001b8e <trainer_configure_by_overworld_script+0x12>
 9001cec:	00000000 	.word	0x00000000
 9001cf0:	00000a19 	.word	0x00000a19
 9001cf4:	00000000 	.word	0x00000000
 9001cf8:	00004718 	.word	0x00004718
	...
 9001d3c:	000006bc 	.word	0x000006bc
 9001d40:	000082c8 	.word	0x000082c8
 9001d44:	00000000 	.word	0x00000000
 9001d48:	00008328 	.word	0x00008328
 9001d4c:	000050c2 	.word	0x000050c2
 9001d50:	00000000 	.word	0x00000000
 9001d54:	000006ec 	.word	0x000006ec
 9001d58:	000002d0 	.word	0x000002d0
 9001d5c:	00000000 	.word	0x00000000
 9001d60:	00008388 	.word	0x00008388
 9001d64:	000006bd 	.word	0x000006bd
 9001d68:	000002dc 	.word	0x000002dc
 9001d6c:	000002f4 	.word	0x000002f4
 9001d70:	000083f8 	.word	0x000083f8
 9001d74:	000050c3 	.word	0x000050c3
 9001d78:	000006ca 	.word	0x000006ca

09001d7c <trigger_trainerbattles>:
 9001d7c:	4b2d      	ldr	r3, [pc, #180]	@ (9001e34 <trigger_trainerbattles+0xb8>)
 9001d7e:	b5f0      	push	{r4, r5, r6, r7, lr}
 9001d80:	46c6      	mov	lr, r8
 9001d82:	4698      	mov	r8, r3
 9001d84:	2200      	movs	r2, #0
 9001d86:	4641      	mov	r1, r8
 9001d88:	4b2b      	ldr	r3, [pc, #172]	@ (9001e38 <trigger_trainerbattles+0xbc>)
 9001d8a:	4d2c      	ldr	r5, [pc, #176]	@ (9001e3c <trigger_trainerbattles+0xc0>)
 9001d8c:	b500      	push	{lr}
 9001d8e:	2400      	movs	r4, #0
 9001d90:	2702      	movs	r7, #2
 9001d92:	52ca      	strh	r2, [r1, r3]
 9001d94:	1fee      	subs	r6, r5, #7
 9001d96:	e003      	b.n	9001da0 <trigger_trainerbattles+0x24>
 9001d98:	3401      	adds	r4, #1
 9001d9a:	3524      	adds	r5, #36	@ 0x24
 9001d9c:	2c10      	cmp	r4, #16
 9001d9e:	d016      	beq.n	9001dce <trigger_trainerbattles+0x52>
 9001da0:	00e3      	lsls	r3, r4, #3
 9001da2:	191b      	adds	r3, r3, r4
 9001da4:	009b      	lsls	r3, r3, #2
 9001da6:	5cf3      	ldrb	r3, [r6, r3]
 9001da8:	07db      	lsls	r3, r3, #31
 9001daa:	d5f5      	bpl.n	9001d98 <trigger_trainerbattles+0x1c>
 9001dac:	782b      	ldrb	r3, [r5, #0]
 9001dae:	43bb      	bics	r3, r7
 9001db0:	2b01      	cmp	r3, #1
 9001db2:	d1f1      	bne.n	9001d98 <trigger_trainerbattles+0x1c>
 9001db4:	0620      	lsls	r0, r4, #24
 9001db6:	0e00      	lsrs	r0, r0, #24
 9001db8:	f7ff fffe 	bl	9001580 <trainerbattle_initialize_by_npc_idx>
 9001dbc:	2802      	cmp	r0, #2
 9001dbe:	d006      	beq.n	9001dce <trigger_trainerbattles+0x52>
 9001dc0:	2801      	cmp	r0, #1
 9001dc2:	d1e9      	bne.n	9001d98 <trigger_trainerbattles+0x1c>
 9001dc4:	4b1e      	ldr	r3, [pc, #120]	@ (9001e40 <trigger_trainerbattles+0xc4>)
 9001dc6:	f000 f935 	bl	9002034 <trainer_set_flags+0x34>
 9001dca:	2800      	cmp	r0, #0
 9001dcc:	d0e4      	beq.n	9001d98 <trigger_trainerbattles+0x1c>
 9001dce:	4642      	mov	r2, r8
 9001dd0:	4b19      	ldr	r3, [pc, #100]	@ (9001e38 <trigger_trainerbattles+0xbc>)
 9001dd2:	5cd3      	ldrb	r3, [r2, r3]
 9001dd4:	2b01      	cmp	r3, #1
 9001dd6:	d008      	beq.n	9001dea <trigger_trainerbattles+0x6e>
 9001dd8:	2400      	movs	r4, #0
 9001dda:	2b02      	cmp	r3, #2
 9001ddc:	d013      	beq.n	9001e06 <trigger_trainerbattles+0x8a>
 9001dde:	0020      	movs	r0, r4
 9001de0:	bc80      	pop	{r7}
 9001de2:	46b8      	mov	r8, r7
 9001de4:	bcf0      	pop	{r4, r5, r6, r7}
 9001de6:	bc02      	pop	{r1}
 9001de8:	4708      	bx	r1
 9001dea:	2200      	movs	r2, #0
 9001dec:	4641      	mov	r1, r8
 9001dee:	4b15      	ldr	r3, [pc, #84]	@ (9001e44 <trigger_trainerbattles+0xc8>)
 9001df0:	54ca      	strb	r2, [r1, r3]
 9001df2:	4642      	mov	r2, r8
 9001df4:	3303      	adds	r3, #3
 9001df6:	58c9      	ldr	r1, [r1, r3]
 9001df8:	4b13      	ldr	r3, [pc, #76]	@ (9001e48 <trigger_trainerbattles+0xcc>)
 9001dfa:	5cd0      	ldrb	r0, [r2, r3]
 9001dfc:	4b13      	ldr	r3, [pc, #76]	@ (9001e4c <trigger_trainerbattles+0xd0>)
 9001dfe:	f000 f919 	bl	9002034 <trainer_set_flags+0x34>
 9001e02:	2401      	movs	r4, #1
 9001e04:	e7eb      	b.n	9001dde <trigger_trainerbattles+0x62>
 9001e06:	23d8      	movs	r3, #216	@ 0xd8
 9001e08:	4d0e      	ldr	r5, [pc, #56]	@ (9001e44 <trigger_trainerbattles+0xc8>)
 9001e0a:	00db      	lsls	r3, r3, #3
 9001e0c:	5554      	strb	r4, [r2, r5]
 9001e0e:	58d1      	ldr	r1, [r2, r3]
 9001e10:	4b0d      	ldr	r3, [pc, #52]	@ (9001e48 <trigger_trainerbattles+0xcc>)
 9001e12:	5cd0      	ldrb	r0, [r2, r3]
 9001e14:	4b0d      	ldr	r3, [pc, #52]	@ (9001e4c <trigger_trainerbattles+0xd0>)
 9001e16:	f000 f90d 	bl	9002034 <trainer_set_flags+0x34>
 9001e1a:	4642      	mov	r2, r8
 9001e1c:	2301      	movs	r3, #1
 9001e1e:	5553      	strb	r3, [r2, r5]
 9001e20:	4b0b      	ldr	r3, [pc, #44]	@ (9001e50 <trigger_trainerbattles+0xd4>)
 9001e22:	58d0      	ldr	r0, [r2, r3]
 9001e24:	3001      	adds	r0, #1
 9001e26:	f7ff fffe 	bl	9001b7c <trainer_configure_by_overworld_script>
 9001e2a:	4643      	mov	r3, r8
 9001e2c:	555c      	strb	r4, [r3, r5]
 9001e2e:	2401      	movs	r4, #1
 9001e30:	e7d5      	b.n	9001dde <trigger_trainerbattles+0x62>
 9001e32:	46c0      	nop			@ (mov r8, r8)
 9001e34:	00000000 	.word	0x00000000
 9001e38:	000006bc 	.word	0x000006bc
 9001e3c:	00000007 	.word	0x00000007
 9001e40:	00000000 	.word	0x00000000
 9001e44:	000006bd 	.word	0x000006bd
 9001e48:	000006be 	.word	0x000006be
 9001e4c:	00000000 	.word	0x00000000
 9001e50:	000006c4 	.word	0x000006c4

09001e54 <trigger_npc_spotting>:
 9001e54:	b5f8      	push	{r3, r4, r5, r6, r7, lr}
 9001e56:	4b16      	ldr	r3, [pc, #88]	@ (9001eb0 <trigger_npc_spotting+0x5c>)
 9001e58:	f000 f8ec 	bl	9002034 <trainer_set_flags+0x34>
 9001e5c:	2800      	cmp	r0, #0
 9001e5e:	d125      	bne.n	9001eac <trigger_npc_spotting+0x58>
 9001e60:	2400      	movs	r4, #0
 9001e62:	4b14      	ldr	r3, [pc, #80]	@ (9001eb4 <trigger_npc_spotting+0x60>)
 9001e64:	4a14      	ldr	r2, [pc, #80]	@ (9001eb8 <trigger_npc_spotting+0x64>)
 9001e66:	4d15      	ldr	r5, [pc, #84]	@ (9001ebc <trigger_npc_spotting+0x68>)
 9001e68:	5298      	strh	r0, [r3, r2]
 9001e6a:	4e15      	ldr	r6, [pc, #84]	@ (9001ec0 <trigger_npc_spotting+0x6c>)
 9001e6c:	00e3      	lsls	r3, r4, #3
 9001e6e:	191b      	adds	r3, r3, r4
 9001e70:	009b      	lsls	r3, r3, #2
 9001e72:	5ceb      	ldrb	r3, [r5, r3]
 9001e74:	07db      	lsls	r3, r3, #31
 9001e76:	d50b      	bpl.n	9001e90 <trigger_npc_spotting+0x3c>
 9001e78:	0627      	lsls	r7, r4, #24
 9001e7a:	0e3f      	lsrs	r7, r7, #24
 9001e7c:	0038      	movs	r0, r7
 9001e7e:	f000 f8dc 	bl	900203a <trainer_set_flags+0x3a>
 9001e82:	2800      	cmp	r0, #0
 9001e84:	d110      	bne.n	9001ea8 <trigger_npc_spotting+0x54>
 9001e86:	0038      	movs	r0, r7
 9001e88:	f7ff fffe 	bl	900168c <trainerbattle_pirate_alert>
 9001e8c:	2800      	cmp	r0, #0
 9001e8e:	d10b      	bne.n	9001ea8 <trigger_npc_spotting+0x54>
 9001e90:	3401      	adds	r4, #1
 9001e92:	2c10      	cmp	r4, #16
 9001e94:	d1ea      	bne.n	9001e6c <trigger_npc_spotting+0x18>
 9001e96:	f7ff fffe 	bl	9001860 <trigger_aggressive_wild_pokemons>
 9001e9a:	2800      	cmp	r0, #0
 9001e9c:	d104      	bne.n	9001ea8 <trigger_npc_spotting+0x54>
 9001e9e:	f7ff fffe 	bl	9001d7c <trigger_trainerbattles>
 9001ea2:	bcf8      	pop	{r3, r4, r5, r6, r7}
 9001ea4:	bc02      	pop	{r1}
 9001ea6:	4708      	bx	r1
 9001ea8:	2001      	movs	r0, #1
 9001eaa:	e7fa      	b.n	9001ea2 <trigger_npc_spotting+0x4e>
 9001eac:	2000      	movs	r0, #0
 9001eae:	e7f8      	b.n	9001ea2 <trigger_npc_spotting+0x4e>
	...
 9001eb8:	000006bc 	.word	0x000006bc
	...

09001ec4 <trainer_play_encounter_music>:
 9001ec4:	b570      	push	{r4, r5, r6, lr}
 9001ec6:	4b2c      	ldr	r3, [pc, #176]	@ (9001f78 <trainer_play_encounter_music+0xb4>)
 9001ec8:	4a2c      	ldr	r2, [pc, #176]	@ (9001f7c <trainer_play_encounter_music+0xb8>)
 9001eca:	5c9a      	ldrb	r2, [r3, r2]
 9001ecc:	2a00      	cmp	r2, #0
 9001ece:	d129      	bne.n	9001f24 <trainer_play_encounter_music+0x60>
 9001ed0:	4b2b      	ldr	r3, [pc, #172]	@ (9001f80 <trainer_play_encounter_music+0xbc>)
 9001ed2:	885c      	ldrh	r4, [r3, #2]
 9001ed4:	881d      	ldrh	r5, [r3, #0]
 9001ed6:	0022      	movs	r2, r4
 9001ed8:	2004      	movs	r0, #4
 9001eda:	492a      	ldr	r1, [pc, #168]	@ (9001f84 <trainer_play_encounter_music+0xc0>)
 9001edc:	4b2a      	ldr	r3, [pc, #168]	@ (9001f88 <trainer_play_encounter_music+0xc4>)
 9001ede:	f000 f8a9 	bl	9002034 <trainer_set_flags+0x34>
 9001ee2:	2d0b      	cmp	r5, #11
 9001ee4:	d92a      	bls.n	9001f3c <trainer_play_encounter_music+0x78>
 9001ee6:	00a2      	lsls	r2, r4, #2
 9001ee8:	4b28      	ldr	r3, [pc, #160]	@ (9001f8c <trainer_play_encounter_music+0xc8>)
 9001eea:	1912      	adds	r2, r2, r4
 9001eec:	00d2      	lsls	r2, r2, #3
 9001eee:	189b      	adds	r3, r3, r2
 9001ef0:	785a      	ldrb	r2, [r3, #1]
 9001ef2:	2a30      	cmp	r2, #48	@ 0x30
 9001ef4:	d02c      	beq.n	9001f50 <trainer_play_encounter_music+0x8c>
 9001ef6:	2a55      	cmp	r2, #85	@ 0x55
 9001ef8:	d035      	beq.n	9001f66 <trainer_play_encounter_music+0xa2>
 9001efa:	2a03      	cmp	r2, #3
 9001efc:	d02b      	beq.n	9001f56 <trainer_play_encounter_music+0x92>
 9001efe:	7898      	ldrb	r0, [r3, #2]
 9001f00:	0640      	lsls	r0, r0, #25
 9001f02:	2103      	movs	r1, #3
 9001f04:	4b22      	ldr	r3, [pc, #136]	@ (9001f90 <trainer_play_encounter_music+0xcc>)
 9001f06:	0e40      	lsrs	r0, r0, #25
 9001f08:	f000 f894 	bl	9002034 <trainer_set_flags+0x34>
 9001f0c:	311c      	adds	r1, #28
 9001f0e:	31ff      	adds	r1, #255	@ 0xff
 9001f10:	040c      	lsls	r4, r1, #16
 9001f12:	0c24      	lsrs	r4, r4, #16
 9001f14:	4b1f      	ldr	r3, [pc, #124]	@ (9001f94 <trainer_play_encounter_music+0xd0>)
 9001f16:	f000 f88d 	bl	9002034 <trainer_set_flags+0x34>
 9001f1a:	42a0      	cmp	r0, r4
 9001f1c:	d113      	bne.n	9001f46 <trainer_play_encounter_music+0x82>
 9001f1e:	bc70      	pop	{r4, r5, r6}
 9001f20:	bc01      	pop	{r0}
 9001f22:	4700      	bx	r0
 9001f24:	4a1c      	ldr	r2, [pc, #112]	@ (9001f98 <trainer_play_encounter_music+0xd4>)
 9001f26:	5a9c      	ldrh	r4, [r3, r2]
 9001f28:	3a02      	subs	r2, #2
 9001f2a:	5a9d      	ldrh	r5, [r3, r2]
 9001f2c:	2004      	movs	r0, #4
 9001f2e:	0022      	movs	r2, r4
 9001f30:	4914      	ldr	r1, [pc, #80]	@ (9001f84 <trainer_play_encounter_music+0xc0>)
 9001f32:	4b15      	ldr	r3, [pc, #84]	@ (9001f88 <trainer_play_encounter_music+0xc4>)
 9001f34:	f000 f87e 	bl	9002034 <trainer_set_flags+0x34>
 9001f38:	2d0b      	cmp	r5, #11
 9001f3a:	d8d4      	bhi.n	9001ee6 <trainer_play_encounter_music+0x22>
 9001f3c:	4b17      	ldr	r3, [pc, #92]	@ (9001f9c <trainer_play_encounter_music+0xd8>)
 9001f3e:	412b      	asrs	r3, r5
 9001f40:	07db      	lsls	r3, r3, #31
 9001f42:	d5ec      	bpl.n	9001f1e <trainer_play_encounter_music+0x5a>
 9001f44:	e7cf      	b.n	9001ee6 <trainer_play_encounter_music+0x22>
 9001f46:	0020      	movs	r0, r4
 9001f48:	4b15      	ldr	r3, [pc, #84]	@ (9001fa0 <trainer_play_encounter_music+0xdc>)
 9001f4a:	f000 f873 	bl	9002034 <trainer_set_flags+0x34>
 9001f4e:	e7e6      	b.n	9001f1e <trainer_play_encounter_music+0x5a>
 9001f50:	246a      	movs	r4, #106	@ 0x6a
 9001f52:	34ff      	adds	r4, #255	@ 0xff
 9001f54:	e7de      	b.n	9001f14 <trainer_play_encounter_music+0x50>
 9001f56:	2464      	movs	r4, #100	@ 0x64
 9001f58:	4b0e      	ldr	r3, [pc, #56]	@ (9001f94 <trainer_play_encounter_music+0xd0>)
 9001f5a:	34ff      	adds	r4, #255	@ 0xff
 9001f5c:	f000 f86a 	bl	9002034 <trainer_set_flags+0x34>
 9001f60:	42a0      	cmp	r0, r4
 9001f62:	d0dc      	beq.n	9001f1e <trainer_play_encounter_music+0x5a>
 9001f64:	e7ef      	b.n	9001f46 <trainer_play_encounter_music+0x82>
 9001f66:	2489      	movs	r4, #137	@ 0x89
 9001f68:	4b0a      	ldr	r3, [pc, #40]	@ (9001f94 <trainer_play_encounter_music+0xd0>)
 9001f6a:	0064      	lsls	r4, r4, #1
 9001f6c:	f000 f862 	bl	9002034 <trainer_set_flags+0x34>
 9001f70:	42a0      	cmp	r0, r4
 9001f72:	d0d4      	beq.n	9001f1e <trainer_play_encounter_music+0x5a>
 9001f74:	e7e7      	b.n	9001f46 <trainer_play_encounter_music+0x82>
 9001f76:	46c0      	nop			@ (mov r8, r8)
 9001f78:	00000000 	.word	0x00000000
 9001f7c:	000006bd 	.word	0x000006bd
 9001f80:	00000000 	.word	0x00000000
 9001f84:	0000030c 	.word	0x0000030c
	...
 9001f98:	000006ca 	.word	0x000006ca
 9001f9c:	fffff6fd 	.word	0xfffff6fd
 9001fa0:	00000000 	.word	0x00000000

09001fa4 <trainerB_get_flag>:
 9001fa4:	4b04      	ldr	r3, [pc, #16]	@ (9001fb8 <trainerB_get_flag+0x14>)
 9001fa6:	4a05      	ldr	r2, [pc, #20]	@ (9001fbc <trainerB_get_flag+0x18>)
 9001fa8:	5a98      	ldrh	r0, [r3, r2]
 9001faa:	23a0      	movs	r3, #160	@ 0xa0
 9001fac:	00db      	lsls	r3, r3, #3
 9001fae:	469c      	mov	ip, r3
 9001fb0:	4460      	add	r0, ip
 9001fb2:	0400      	lsls	r0, r0, #16
 9001fb4:	0c00      	lsrs	r0, r0, #16
 9001fb6:	4770      	bx	lr
 9001fb8:	00000000 	.word	0x00000000
 9001fbc:	000006ca 	.word	0x000006ca

09001fc0 <special_x36_check_loaded_trainerflag>:
 9001fc0:	b510      	push	{r4, lr}
 9001fc2:	4b0b      	ldr	r3, [pc, #44]	@ (9001ff0 <special_x36_check_loaded_trainerflag+0x30>)
 9001fc4:	4a0b      	ldr	r2, [pc, #44]	@ (9001ff4 <special_x36_check_loaded_trainerflag+0x34>)
 9001fc6:	5c9b      	ldrb	r3, [r3, r2]
 9001fc8:	2b00      	cmp	r3, #0
 9001fca:	d00a      	beq.n	9001fe2 <special_x36_check_loaded_trainerflag+0x22>
 9001fcc:	2001      	movs	r0, #1
 9001fce:	2b01      	cmp	r3, #1
 9001fd0:	d104      	bne.n	9001fdc <special_x36_check_loaded_trainerflag+0x1c>
 9001fd2:	f7ff fffe 	bl	9001fa4 <trainerB_get_flag>
 9001fd6:	4b08      	ldr	r3, [pc, #32]	@ (9001ff8 <special_x36_check_loaded_trainerflag+0x38>)
 9001fd8:	f000 f82c 	bl	9002034 <trainer_set_flags+0x34>
 9001fdc:	bc10      	pop	{r4}
 9001fde:	bc02      	pop	{r1}
 9001fe0:	4708      	bx	r1
 9001fe2:	4b06      	ldr	r3, [pc, #24]	@ (9001ffc <special_x36_check_loaded_trainerflag+0x3c>)
 9001fe4:	f000 f826 	bl	9002034 <trainer_set_flags+0x34>
 9001fe8:	4b03      	ldr	r3, [pc, #12]	@ (9001ff8 <special_x36_check_loaded_trainerflag+0x38>)
 9001fea:	f000 f823 	bl	9002034 <trainer_set_flags+0x34>
 9001fee:	e7f5      	b.n	9001fdc <special_x36_check_loaded_trainerflag+0x1c>
 9001ff0:	00000000 	.word	0x00000000
 9001ff4:	000006bd 	.word	0x000006bd
	...

09002000 <trainer_set_flags>:
 9002000:	b510      	push	{r4, lr}
 9002002:	4b09      	ldr	r3, [pc, #36]	@ (9002028 <trainer_set_flags+0x28>)
 9002004:	f000 f816 	bl	9002034 <trainer_set_flags+0x34>
 9002008:	4c08      	ldr	r4, [pc, #32]	@ (900202c <trainer_set_flags+0x2c>)
 900200a:	f000 f814 	bl	9002036 <trainer_set_flags+0x36>
 900200e:	4b08      	ldr	r3, [pc, #32]	@ (9002030 <trainer_set_flags+0x30>)
 9002010:	681b      	ldr	r3, [r3, #0]
 9002012:	02db      	lsls	r3, r3, #11
 9002014:	d402      	bmi.n	900201c <trainer_set_flags+0x1c>
 9002016:	bc10      	pop	{r4}
 9002018:	bc01      	pop	{r0}
 900201a:	4700      	bx	r0
 900201c:	f7ff fffe 	bl	9001fa4 <trainerB_get_flag>
 9002020:	f000 f809 	bl	9002036 <trainer_set_flags+0x36>
 9002024:	e7f7      	b.n	9002016 <trainer_set_flags+0x16>
 9002026:	46c0      	nop			@ (mov r8, r8)
	...
 9002034:	4718      	bx	r3
 9002036:	4720      	bx	r4
 9002038:	4728      	bx	r5
 900203a:	4730      	bx	r6
 900203c:	4738      	bx	r7
 900203e:	4748      	bx	r9

09002040 <trainer_get_class_name>:
 9002040:	008a      	lsls	r2, r1, #2
 9002042:	4b06      	ldr	r3, [pc, #24]	@ (900205c <trainer_get_class_name+0x1c>)
 9002044:	1852      	adds	r2, r2, r1
 9002046:	00d2      	lsls	r2, r2, #3
 9002048:	189b      	adds	r3, r3, r2
 900204a:	785b      	ldrb	r3, [r3, #1]
 900204c:	0058      	lsls	r0, r3, #1
 900204e:	18c0      	adds	r0, r0, r3
 9002050:	0080      	lsls	r0, r0, #2
 9002052:	18c0      	adds	r0, r0, r3
 9002054:	4b02      	ldr	r3, [pc, #8]	@ (9002060 <trainer_get_class_name+0x20>)
 9002056:	18c0      	adds	r0, r0, r3
 9002058:	4770      	bx	lr
 900205a:	46c0      	nop			@ (mov r8, r8)
	...

09002064 <trainer_pokemon_prng>:
 9002064:	b510      	push	{r4, lr}
 9002066:	4804      	ldr	r0, [pc, #16]	@ (9002078 <trainer_pokemon_prng+0x14>)
 9002068:	4b04      	ldr	r3, [pc, #16]	@ (900207c <trainer_pokemon_prng+0x18>)
 900206a:	f000 fb01 	bl	9002670 <ally_party_setup+0xa4>
 900206e:	0400      	lsls	r0, r0, #16
 9002070:	0c00      	lsrs	r0, r0, #16
 9002072:	bc10      	pop	{r4}
 9002074:	bc02      	pop	{r1}
 9002076:	4708      	bx	r1
 9002078:	0000062c 	.word	0x0000062c
 900207c:	00000000 	.word	0x00000000

09002080 <get_default_ev>:
 9002080:	b510      	push	{r4, lr}
 9002082:	480e      	ldr	r0, [pc, #56]	@ (90020bc <get_default_ev+0x3c>)
 9002084:	4b0e      	ldr	r3, [pc, #56]	@ (90020c0 <get_default_ev+0x40>)
 9002086:	f000 faf3 	bl	9002670 <ally_party_setup+0xa4>
 900208a:	8800      	ldrh	r0, [r0, #0]
 900208c:	2807      	cmp	r0, #7
 900208e:	d906      	bls.n	900209e <get_default_ev+0x1e>
 9002090:	3808      	subs	r0, #8
 9002092:	4243      	negs	r3, r0
 9002094:	4158      	adcs	r0, r3
 9002096:	0100      	lsls	r0, r0, #4
 9002098:	bc10      	pop	{r4}
 900209a:	bc02      	pop	{r1}
 900209c:	4708      	bx	r1
 900209e:	2805      	cmp	r0, #5
 90020a0:	d809      	bhi.n	90020b6 <get_default_ev+0x36>
 90020a2:	2301      	movs	r3, #1
 90020a4:	3803      	subs	r0, #3
 90020a6:	0400      	lsls	r0, r0, #16
 90020a8:	0c00      	lsrs	r0, r0, #16
 90020aa:	4283      	cmp	r3, r0
 90020ac:	4180      	sbcs	r0, r0
 90020ae:	331a      	adds	r3, #26
 90020b0:	4398      	bics	r0, r3
 90020b2:	301c      	adds	r0, #28
 90020b4:	e7f0      	b.n	9002098 <get_default_ev+0x18>
 90020b6:	201c      	movs	r0, #28
 90020b8:	e7ee      	b.n	9002098 <get_default_ev+0x18>
 90020ba:	46c0      	nop			@ (mov r8, r8)
 90020bc:	000050e8 	.word	0x000050e8
 90020c0:	00000000 	.word	0x00000000

090020c4 <get_default_iv>:
 90020c4:	4b0c      	ldr	r3, [pc, #48]	@ (90020f8 <get_default_iv+0x34>)
 90020c6:	b510      	push	{r4, lr}
 90020c8:	480c      	ldr	r0, [pc, #48]	@ (90020fc <get_default_iv+0x38>)
 90020ca:	f000 fad1 	bl	9002670 <ally_party_setup+0xa4>
 90020ce:	8803      	ldrh	r3, [r0, #0]
 90020d0:	2b04      	cmp	r3, #4
 90020d2:	d90b      	bls.n	90020ec <get_default_iv+0x28>
 90020d4:	2001      	movs	r0, #1
 90020d6:	3b06      	subs	r3, #6
 90020d8:	041b      	lsls	r3, r3, #16
 90020da:	0c1b      	lsrs	r3, r3, #16
 90020dc:	4298      	cmp	r0, r3
 90020de:	4180      	sbcs	r0, r0
 90020e0:	2308      	movs	r3, #8
 90020e2:	4398      	bics	r0, r3
 90020e4:	3009      	adds	r0, #9
 90020e6:	bc10      	pop	{r4}
 90020e8:	bc02      	pop	{r1}
 90020ea:	4708      	bx	r1
 90020ec:	2202      	movs	r2, #2
 90020ee:	2009      	movs	r0, #9
 90020f0:	429a      	cmp	r2, r3
 90020f2:	419b      	sbcs	r3, r3
 90020f4:	4018      	ands	r0, r3
 90020f6:	e7f6      	b.n	90020e6 <get_default_iv+0x22>
 90020f8:	00000000 	.word	0x00000000
 90020fc:	000050e8 	.word	0x000050e8

09002100 <trainer_pokemon_get_level>:
 9002100:	b510      	push	{r4, lr}
 9002102:	b082      	sub	sp, #8
 9002104:	466a      	mov	r2, sp
 9002106:	2305      	movs	r3, #5
 9002108:	7193      	strb	r3, [r2, #6]
 900210a:	2300      	movs	r3, #0
 900210c:	0004      	movs	r4, r0
 900210e:	71d3      	strb	r3, [r2, #7]
 9002110:	1dd1      	adds	r1, r2, #7
 9002112:	4b22      	ldr	r3, [pc, #136]	@ (900219c <trainer_pokemon_get_level+0x9c>)
 9002114:	1d90      	adds	r0, r2, #6
 9002116:	f000 faab 	bl	9002670 <ally_party_setup+0xa4>
 900211a:	2cfd      	cmp	r4, #253	@ 0xfd
 900211c:	d025      	beq.n	900216a <trainer_pokemon_get_level+0x6a>
 900211e:	2cfe      	cmp	r4, #254	@ 0xfe
 9002120:	d101      	bne.n	9002126 <trainer_pokemon_get_level+0x26>
 9002122:	466b      	mov	r3, sp
 9002124:	799c      	ldrb	r4, [r3, #6]
 9002126:	4b1e      	ldr	r3, [pc, #120]	@ (90021a0 <trainer_pokemon_get_level+0xa0>)
 9002128:	481e      	ldr	r0, [pc, #120]	@ (90021a4 <trainer_pokemon_get_level+0xa4>)
 900212a:	f000 faa1 	bl	9002670 <ally_party_setup+0xa4>
 900212e:	8803      	ldrh	r3, [r0, #0]
 9002130:	2b00      	cmp	r3, #0
 9002132:	d026      	beq.n	9002182 <trainer_pokemon_get_level+0x82>
 9002134:	2b02      	cmp	r3, #2
 9002136:	d10a      	bne.n	900214e <trainer_pokemon_get_level+0x4e>
 9002138:	466b      	mov	r3, sp
 900213a:	799c      	ldrb	r4, [r3, #6]
 900213c:	79db      	ldrb	r3, [r3, #7]
 900213e:	085a      	lsrs	r2, r3, #1
 9002140:	18e4      	adds	r4, r4, r3
 9002142:	18a4      	adds	r4, r4, r2
 9002144:	2064      	movs	r0, #100	@ 0x64
 9002146:	2c64      	cmp	r4, #100	@ 0x64
 9002148:	dc09      	bgt.n	900215e <trainer_pokemon_get_level+0x5e>
 900214a:	0624      	lsls	r4, r4, #24
 900214c:	0e24      	lsrs	r4, r4, #24
 900214e:	2c64      	cmp	r4, #100	@ 0x64
 9002150:	d809      	bhi.n	9002166 <trainer_pokemon_get_level+0x66>
 9002152:	1c20      	adds	r0, r4, #0
 9002154:	2c00      	cmp	r4, #0
 9002156:	d100      	bne.n	900215a <trainer_pokemon_get_level+0x5a>
 9002158:	2001      	movs	r0, #1
 900215a:	0600      	lsls	r0, r0, #24
 900215c:	0e00      	lsrs	r0, r0, #24
 900215e:	b002      	add	sp, #8
 9002160:	bc10      	pop	{r4}
 9002162:	bc02      	pop	{r1}
 9002164:	4708      	bx	r1
 9002166:	2064      	movs	r0, #100	@ 0x64
 9002168:	e7f9      	b.n	900215e <trainer_pokemon_get_level+0x5e>
 900216a:	466b      	mov	r3, sp
 900216c:	480d      	ldr	r0, [pc, #52]	@ (90021a4 <trainer_pokemon_get_level+0xa4>)
 900216e:	79dc      	ldrb	r4, [r3, #7]
 9002170:	4b0b      	ldr	r3, [pc, #44]	@ (90021a0 <trainer_pokemon_get_level+0xa0>)
 9002172:	f000 fa7d 	bl	9002670 <ally_party_setup+0xa4>
 9002176:	3c03      	subs	r4, #3
 9002178:	8803      	ldrh	r3, [r0, #0]
 900217a:	0624      	lsls	r4, r4, #24
 900217c:	0e24      	lsrs	r4, r4, #24
 900217e:	2b00      	cmp	r3, #0
 9002180:	d1d8      	bne.n	9002134 <trainer_pokemon_get_level+0x34>
 9002182:	466b      	mov	r3, sp
 9002184:	799c      	ldrb	r4, [r3, #6]
 9002186:	79db      	ldrb	r3, [r3, #7]
 9002188:	2001      	movs	r0, #1
 900218a:	429c      	cmp	r4, r3
 900218c:	dde7      	ble.n	900215e <trainer_pokemon_get_level+0x5e>
 900218e:	1ae4      	subs	r4, r4, r3
 9002190:	0624      	lsls	r4, r4, #24
 9002192:	0e24      	lsrs	r4, r4, #24
 9002194:	2c64      	cmp	r4, #100	@ 0x64
 9002196:	d9dc      	bls.n	9002152 <trainer_pokemon_get_level+0x52>
 9002198:	e7e5      	b.n	9002166 <trainer_pokemon_get_level+0x66>
 900219a:	46c0      	nop			@ (mov r8, r8)
	...
 90021a4:	000050f9 	.word	0x000050f9

090021a8 <trainer_pokemon_new>:
 90021a8:	b5f0      	push	{r4, r5, r6, r7, lr}
 90021aa:	46de      	mov	lr, fp
 90021ac:	464e      	mov	r6, r9
 90021ae:	4645      	mov	r5, r8
 90021b0:	4657      	mov	r7, sl
 90021b2:	b5e0      	push	{r5, r6, r7, lr}
 90021b4:	000e      	movs	r6, r1
 90021b6:	4b8b      	ldr	r3, [pc, #556]	@ (90023e4 <trainer_pokemon_new+0x23c>)
 90021b8:	0005      	movs	r5, r0
 90021ba:	498b      	ldr	r1, [pc, #556]	@ (90023e8 <trainer_pokemon_new+0x240>)
 90021bc:	8ab0      	ldrh	r0, [r6, #20]
 90021be:	b08b      	sub	sp, #44	@ 0x2c
 90021c0:	f000 fa56 	bl	9002670 <ally_party_setup+0xa4>
 90021c4:	2201      	movs	r2, #1
 90021c6:	4c89      	ldr	r4, [pc, #548]	@ (90023ec <trainer_pokemon_new+0x244>)
 90021c8:	7933      	ldrb	r3, [r6, #4]
 90021ca:	4004      	ands	r4, r0
 90021cc:	421a      	tst	r2, r3
 90021ce:	d003      	beq.n	90021d8 <trainer_pokemon_new+0x30>
 90021d0:	7831      	ldrb	r1, [r6, #0]
 90021d2:	4394      	bics	r4, r2
 90021d4:	4011      	ands	r1, r2
 90021d6:	430c      	orrs	r4, r1
 90021d8:	2202      	movs	r2, #2
 90021da:	421a      	tst	r2, r3
 90021dc:	d004      	beq.n	90021e8 <trainer_pokemon_new+0x40>
 90021de:	2002      	movs	r0, #2
 90021e0:	7831      	ldrb	r1, [r6, #0]
 90021e2:	4394      	bics	r4, r2
 90021e4:	4001      	ands	r1, r0
 90021e6:	430c      	orrs	r4, r1
 90021e8:	075a      	lsls	r2, r3, #29
 90021ea:	d506      	bpl.n	90021fa <trainer_pokemon_new+0x52>
 90021ec:	2101      	movs	r1, #1
 90021ee:	7872      	ldrb	r2, [r6, #1]
 90021f0:	400a      	ands	r2, r1
 90021f2:	497e      	ldr	r1, [pc, #504]	@ (90023ec <trainer_pokemon_new+0x244>)
 90021f4:	0212      	lsls	r2, r2, #8
 90021f6:	400c      	ands	r4, r1
 90021f8:	4314      	orrs	r4, r2
 90021fa:	071a      	lsls	r2, r3, #28
 90021fc:	d506      	bpl.n	900220c <trainer_pokemon_new+0x64>
 90021fe:	7872      	ldrb	r2, [r6, #1]
 9002200:	497b      	ldr	r1, [pc, #492]	@ (90023f0 <trainer_pokemon_new+0x248>)
 9002202:	0692      	lsls	r2, r2, #26
 9002204:	0ed2      	lsrs	r2, r2, #27
 9002206:	0252      	lsls	r2, r2, #9
 9002208:	400c      	ands	r4, r1
 900220a:	4314      	orrs	r4, r2
 900220c:	06da      	lsls	r2, r3, #27
 900220e:	d506      	bpl.n	900221e <trainer_pokemon_new+0x76>
 9002210:	6832      	ldr	r2, [r6, #0]
 9002212:	4978      	ldr	r1, [pc, #480]	@ (90023f4 <trainer_pokemon_new+0x24c>)
 9002214:	03d2      	lsls	r2, r2, #15
 9002216:	0f52      	lsrs	r2, r2, #29
 9002218:	0392      	lsls	r2, r2, #14
 900221a:	400c      	ands	r4, r1
 900221c:	4314      	orrs	r4, r2
 900221e:	069a      	lsls	r2, r3, #26
 9002220:	d506      	bpl.n	9002230 <trainer_pokemon_new+0x88>
 9002222:	78b2      	ldrb	r2, [r6, #2]
 9002224:	4974      	ldr	r1, [pc, #464]	@ (90023f8 <trainer_pokemon_new+0x250>)
 9002226:	0692      	lsls	r2, r2, #26
 9002228:	0ed2      	lsrs	r2, r2, #27
 900222a:	0452      	lsls	r2, r2, #17
 900222c:	400c      	ands	r4, r1
 900222e:	4314      	orrs	r4, r2
 9002230:	065a      	lsls	r2, r3, #25
 9002232:	d505      	bpl.n	9002240 <trainer_pokemon_new+0x98>
 9002234:	78f2      	ldrb	r2, [r6, #3]
 9002236:	4971      	ldr	r1, [pc, #452]	@ (90023fc <trainer_pokemon_new+0x254>)
 9002238:	06d2      	lsls	r2, r2, #27
 900223a:	08d2      	lsrs	r2, r2, #3
 900223c:	400c      	ands	r4, r1
 900223e:	4314      	orrs	r4, r2
 9002240:	061b      	lsls	r3, r3, #24
 9002242:	d505      	bpl.n	9002250 <trainer_pokemon_new+0xa8>
 9002244:	78f3      	ldrb	r3, [r6, #3]
 9002246:	00e4      	lsls	r4, r4, #3
 9002248:	095b      	lsrs	r3, r3, #5
 900224a:	075b      	lsls	r3, r3, #29
 900224c:	08e4      	lsrs	r4, r4, #3
 900224e:	431c      	orrs	r4, r3
 9002250:	7cb0      	ldrb	r0, [r6, #18]
 9002252:	8ab7      	ldrh	r7, [r6, #20]
 9002254:	f7ff fffe 	bl	9002100 <trainer_pokemon_get_level>
 9002258:	2300      	movs	r3, #0
 900225a:	9303      	str	r3, [sp, #12]
 900225c:	9302      	str	r3, [sp, #8]
 900225e:	3301      	adds	r3, #1
 9002260:	0002      	movs	r2, r0
 9002262:	0039      	movs	r1, r7
 9002264:	0028      	movs	r0, r5
 9002266:	9401      	str	r4, [sp, #4]
 9002268:	9300      	str	r3, [sp, #0]
 900226a:	4c65      	ldr	r4, [pc, #404]	@ (9002400 <trainer_pokemon_new+0x258>)
 900226c:	2300      	movs	r3, #0
 900226e:	f000 fa00 	bl	9002672 <ally_party_setup+0xa6>
 9002272:	f7ff ff05 	bl	9002080 <get_default_ev>
 9002276:	4682      	mov	sl, r0
 9002278:	f7ff ff24 	bl	90020c4 <get_default_iv>
 900227c:	aa04      	add	r2, sp, #16
 900227e:	2317      	movs	r3, #23
 9002280:	4694      	mov	ip, r2
 9002282:	4463      	add	r3, ip
 9002284:	469b      	mov	fp, r3
 9002286:	7018      	strb	r0, [r3, #0]
 9002288:	4653      	mov	r3, sl
 900228a:	059b      	lsls	r3, r3, #22
 900228c:	0e1b      	lsrs	r3, r3, #24
 900228e:	9305      	str	r3, [sp, #20]
 9002290:	4b5c      	ldr	r3, [pc, #368]	@ (9002404 <trainer_pokemon_new+0x25c>)
 9002292:	4699      	mov	r9, r3
 9002294:	4b5c      	ldr	r3, [pc, #368]	@ (9002408 <trainer_pokemon_new+0x260>)
 9002296:	9306      	str	r3, [sp, #24]
 9002298:	4b5c      	ldr	r3, [pc, #368]	@ (900240c <trainer_pokemon_new+0x264>)
 900229a:	9307      	str	r3, [sp, #28]
 900229c:	2304      	movs	r3, #4
 900229e:	2400      	movs	r4, #0
 90022a0:	4698      	mov	r8, r3
 90022a2:	1db7      	adds	r7, r6, #6
 90022a4:	0021      	movs	r1, r4
 90022a6:	2008      	movs	r0, #8
 90022a8:	7973      	ldrb	r3, [r6, #5]
 90022aa:	465a      	mov	r2, fp
 90022ac:	3127      	adds	r1, #39	@ 0x27
 90022ae:	4218      	tst	r0, r3
 90022b0:	d000      	beq.n	90022b4 <trainer_pokemon_new+0x10c>
 90022b2:	003a      	movs	r2, r7
 90022b4:	0028      	movs	r0, r5
 90022b6:	f000 f9e0 	bl	900267a <ally_party_setup+0xae>
 90022ba:	4641      	mov	r1, r8
 90022bc:	7973      	ldrb	r3, [r6, #5]
 90022be:	9a05      	ldr	r2, [sp, #20]
 90022c0:	4219      	tst	r1, r3
 90022c2:	d001      	beq.n	90022c8 <trainer_pokemon_new+0x120>
 90022c4:	79ba      	ldrb	r2, [r7, #6]
 90022c6:	0892      	lsrs	r2, r2, #2
 90022c8:	0021      	movs	r1, r4
 90022ca:	9b06      	ldr	r3, [sp, #24]
 90022cc:	0028      	movs	r0, r5
 90022ce:	f000 f9cf 	bl	9002670 <ally_party_setup+0xa4>
 90022d2:	4641      	mov	r1, r8
 90022d4:	7973      	ldrb	r3, [r6, #5]
 90022d6:	4652      	mov	r2, sl
 90022d8:	4219      	tst	r1, r3
 90022da:	d000      	beq.n	90022de <trainer_pokemon_new+0x136>
 90022dc:	79ba      	ldrb	r2, [r7, #6]
 90022de:	0021      	movs	r1, r4
 90022e0:	0028      	movs	r0, r5
 90022e2:	9b07      	ldr	r3, [sp, #28]
 90022e4:	3401      	adds	r4, #1
 90022e6:	f000 f9c3 	bl	9002670 <ally_party_setup+0xa4>
 90022ea:	3701      	adds	r7, #1
 90022ec:	2c06      	cmp	r4, #6
 90022ee:	d1d9      	bne.n	90022a4 <trainer_pokemon_new+0xfc>
 90022f0:	8af3      	ldrh	r3, [r6, #22]
 90022f2:	2b00      	cmp	r3, #0
 90022f4:	d169      	bne.n	90023ca <trainer_pokemon_new+0x222>
 90022f6:	7973      	ldrb	r3, [r6, #5]
 90022f8:	07da      	lsls	r2, r3, #31
 90022fa:	d51e      	bpl.n	900233a <trainer_pokemon_new+0x192>
 90022fc:	4b44      	ldr	r3, [pc, #272]	@ (9002410 <trainer_pokemon_new+0x268>)
 90022fe:	4698      	mov	r8, r3
 9002300:	464b      	mov	r3, r9
 9002302:	0037      	movs	r7, r6
 9002304:	46b1      	mov	r9, r6
 9002306:	240d      	movs	r4, #13
 9002308:	001e      	movs	r6, r3
 900230a:	3718      	adds	r7, #24
 900230c:	003a      	movs	r2, r7
 900230e:	0021      	movs	r1, r4
 9002310:	0028      	movs	r0, r5
 9002312:	f000 f9b0 	bl	9002676 <ally_party_setup+0xaa>
 9002316:	883b      	ldrh	r3, [r7, #0]
 9002318:	005a      	lsls	r2, r3, #1
 900231a:	18d2      	adds	r2, r2, r3
 900231c:	0092      	lsls	r2, r2, #2
 900231e:	3204      	adds	r2, #4
 9002320:	1d21      	adds	r1, r4, #4
 9002322:	0028      	movs	r0, r5
 9002324:	4442      	add	r2, r8
 9002326:	3401      	adds	r4, #1
 9002328:	f000 f9a5 	bl	9002676 <ally_party_setup+0xaa>
 900232c:	3702      	adds	r7, #2
 900232e:	2c11      	cmp	r4, #17
 9002330:	d1ec      	bne.n	900230c <trainer_pokemon_new+0x164>
 9002332:	0033      	movs	r3, r6
 9002334:	464e      	mov	r6, r9
 9002336:	4699      	mov	r9, r3
 9002338:	7973      	ldrb	r3, [r6, #5]
 900233a:	079b      	lsls	r3, r3, #30
 900233c:	d44c      	bmi.n	90023d8 <trainer_pokemon_new+0x230>
 900233e:	6a32      	ldr	r2, [r6, #32]
 9002340:	2a00      	cmp	r2, #0
 9002342:	d003      	beq.n	900234c <trainer_pokemon_new+0x1a4>
 9002344:	2102      	movs	r1, #2
 9002346:	0028      	movs	r0, r5
 9002348:	f000 f997 	bl	900267a <ally_party_setup+0xae>
 900234c:	4b31      	ldr	r3, [pc, #196]	@ (9002414 <trainer_pokemon_new+0x26c>)
 900234e:	0028      	movs	r0, r5
 9002350:	f000 f98e 	bl	9002670 <ally_party_setup+0xa4>
 9002354:	4c30      	ldr	r4, [pc, #192]	@ (9002418 <trainer_pokemon_new+0x270>)
 9002356:	2200      	movs	r2, #0
 9002358:	213a      	movs	r1, #58	@ 0x3a
 900235a:	0028      	movs	r0, r5
 900235c:	f000 f989 	bl	9002672 <ally_party_setup+0xa6>
 9002360:	2200      	movs	r2, #0
 9002362:	0006      	movs	r6, r0
 9002364:	213b      	movs	r1, #59	@ 0x3b
 9002366:	0028      	movs	r0, r5
 9002368:	f000 f983 	bl	9002672 <ally_party_setup+0xa6>
 900236c:	2200      	movs	r2, #0
 900236e:	0007      	movs	r7, r0
 9002370:	213c      	movs	r1, #60	@ 0x3c
 9002372:	0028      	movs	r0, r5
 9002374:	f000 f97d 	bl	9002672 <ally_party_setup+0xa6>
 9002378:	2200      	movs	r2, #0
 900237a:	4680      	mov	r8, r0
 900237c:	213d      	movs	r1, #61	@ 0x3d
 900237e:	0028      	movs	r0, r5
 9002380:	f000 f977 	bl	9002672 <ally_party_setup+0xa6>
 9002384:	2200      	movs	r2, #0
 9002386:	4681      	mov	r9, r0
 9002388:	213e      	movs	r1, #62	@ 0x3e
 900238a:	0028      	movs	r0, r5
 900238c:	f000 f971 	bl	9002672 <ally_party_setup+0xa6>
 9002390:	4682      	mov	sl, r0
 9002392:	2200      	movs	r2, #0
 9002394:	213f      	movs	r1, #63	@ 0x3f
 9002396:	0028      	movs	r0, r5
 9002398:	f000 f96b 	bl	9002672 <ally_party_setup+0xa6>
 900239c:	4653      	mov	r3, sl
 900239e:	9302      	str	r3, [sp, #8]
 90023a0:	464b      	mov	r3, r9
 90023a2:	9301      	str	r3, [sp, #4]
 90023a4:	4643      	mov	r3, r8
 90023a6:	9003      	str	r0, [sp, #12]
 90023a8:	9300      	str	r3, [sp, #0]
 90023aa:	0032      	movs	r2, r6
 90023ac:	003b      	movs	r3, r7
 90023ae:	2004      	movs	r0, #4
 90023b0:	491a      	ldr	r1, [pc, #104]	@ (900241c <trainer_pokemon_new+0x274>)
 90023b2:	4c1b      	ldr	r4, [pc, #108]	@ (9002420 <trainer_pokemon_new+0x278>)
 90023b4:	f000 f95d 	bl	9002672 <ally_party_setup+0xa6>
 90023b8:	b00b      	add	sp, #44	@ 0x2c
 90023ba:	bcf0      	pop	{r4, r5, r6, r7}
 90023bc:	46bb      	mov	fp, r7
 90023be:	46b2      	mov	sl, r6
 90023c0:	46a9      	mov	r9, r5
 90023c2:	46a0      	mov	r8, r4
 90023c4:	bcf0      	pop	{r4, r5, r6, r7}
 90023c6:	bc01      	pop	{r0}
 90023c8:	4700      	bx	r0
 90023ca:	0032      	movs	r2, r6
 90023cc:	210c      	movs	r1, #12
 90023ce:	0028      	movs	r0, r5
 90023d0:	3216      	adds	r2, #22
 90023d2:	f000 f952 	bl	900267a <ally_party_setup+0xae>
 90023d6:	e78e      	b.n	90022f6 <trainer_pokemon_new+0x14e>
 90023d8:	0028      	movs	r0, r5
 90023da:	4b12      	ldr	r3, [pc, #72]	@ (9002424 <trainer_pokemon_new+0x27c>)
 90023dc:	f000 f948 	bl	9002670 <ally_party_setup+0xa4>
 90023e0:	e7ad      	b.n	900233e <trainer_pokemon_new+0x196>
 90023e2:	46c0      	nop			@ (mov r8, r8)
	...
 90023ec:	fffffeff 	.word	0xfffffeff
 90023f0:	ffffc1ff 	.word	0xffffc1ff
 90023f4:	fffe3fff 	.word	0xfffe3fff
 90023f8:	ffc1ffff 	.word	0xffc1ffff
 90023fc:	e0ffffff 	.word	0xe0ffffff
	...
 900241c:	00000328 	.word	0x00000328
	...

09002428 <party_setup_by_trainer_idx>:
 9002428:	b5f0      	push	{r4, r5, r6, r7, lr}
 900242a:	4645      	mov	r5, r8
 900242c:	46de      	mov	lr, fp
 900242e:	4657      	mov	r7, sl
 9002430:	464e      	mov	r6, r9
 9002432:	000b      	movs	r3, r1
 9002434:	b5e0      	push	{r5, r6, r7, lr}
 9002436:	3be1      	subs	r3, #225	@ 0xe1
 9002438:	3bff      	subs	r3, #255	@ 0xff
 900243a:	b089      	sub	sp, #36	@ 0x24
 900243c:	041b      	lsls	r3, r3, #16
 900243e:	4688      	mov	r8, r1
 9002440:	9001      	str	r0, [sp, #4]
 9002442:	0c1b      	lsrs	r3, r3, #16
 9002444:	2b03      	cmp	r3, #3
 9002446:	d95c      	bls.n	9002502 <party_setup_by_trainer_idx+0xda>
 9002448:	4641      	mov	r1, r8
 900244a:	4b39      	ldr	r3, [pc, #228]	@ (9002530 <party_setup_by_trainer_idx+0x108>)
 900244c:	4a39      	ldr	r2, [pc, #228]	@ (9002534 <party_setup_by_trainer_idx+0x10c>)
 900244e:	ae02      	add	r6, sp, #8
 9002450:	5099      	str	r1, [r3, r2]
 9002452:	0032      	movs	r2, r6
 9002454:	4b38      	ldr	r3, [pc, #224]	@ (9002538 <party_setup_by_trainer_idx+0x110>)
 9002456:	cb13      	ldmia	r3!, {r0, r1, r4}
 9002458:	c213      	stmia	r2!, {r0, r1, r4}
 900245a:	cb13      	ldmia	r3!, {r0, r1, r4}
 900245c:	c213      	stmia	r2!, {r0, r1, r4}
 900245e:	4b37      	ldr	r3, [pc, #220]	@ (900253c <party_setup_by_trainer_idx+0x114>)
 9002460:	4837      	ldr	r0, [pc, #220]	@ (9002540 <party_setup_by_trainer_idx+0x118>)
 9002462:	f000 f905 	bl	9002670 <ally_party_setup+0xa4>
 9002466:	8803      	ldrh	r3, [r0, #0]
 9002468:	2b02      	cmp	r3, #2
 900246a:	d04f      	beq.n	900250c <party_setup_by_trainer_idx+0xe4>
 900246c:	4b35      	ldr	r3, [pc, #212]	@ (9002544 <party_setup_by_trainer_idx+0x11c>)
 900246e:	469b      	mov	fp, r3
 9002470:	4643      	mov	r3, r8
 9002472:	009b      	lsls	r3, r3, #2
 9002474:	469a      	mov	sl, r3
 9002476:	2320      	movs	r3, #32
 9002478:	4652      	mov	r2, sl
 900247a:	4699      	mov	r9, r3
 900247c:	4442      	add	r2, r8
 900247e:	00d2      	lsls	r2, r2, #3
 9002480:	445a      	add	r2, fp
 9002482:	4491      	add	r9, r2
 9002484:	464b      	mov	r3, r9
 9002486:	781b      	ldrb	r3, [r3, #0]
 9002488:	2b00      	cmp	r3, #0
 900248a:	d04f      	beq.n	900252c <party_setup_by_trainer_idx+0x104>
 900248c:	4f2e      	ldr	r7, [pc, #184]	@ (9002548 <party_setup_by_trainer_idx+0x120>)
 900248e:	003b      	movs	r3, r7
 9002490:	4c2e      	ldr	r4, [pc, #184]	@ (900254c <party_setup_by_trainer_idx+0x124>)
 9002492:	2500      	movs	r5, #0
 9002494:	0027      	movs	r7, r4
 9002496:	464c      	mov	r4, r9
 9002498:	4699      	mov	r9, r3
 900249a:	002a      	movs	r2, r5
 900249c:	ce08      	ldmia	r6!, {r3}
 900249e:	0039      	movs	r1, r7
 90024a0:	2004      	movs	r0, #4
 90024a2:	f000 f8ea 	bl	900267a <ally_party_setup+0xae>
 90024a6:	7823      	ldrb	r3, [r4, #0]
 90024a8:	3501      	adds	r5, #1
 90024aa:	42ab      	cmp	r3, r5
 90024ac:	dcf5      	bgt.n	900249a <party_setup_by_trainer_idx+0x72>
 90024ae:	2b00      	cmp	r3, #0
 90024b0:	d03c      	beq.n	900252c <party_setup_by_trainer_idx+0x104>
 90024b2:	2320      	movs	r3, #32
 90024b4:	4657      	mov	r7, sl
 90024b6:	4699      	mov	r9, r3
 90024b8:	2600      	movs	r6, #0
 90024ba:	2500      	movs	r5, #0
 90024bc:	4447      	add	r7, r8
 90024be:	00ff      	lsls	r7, r7, #3
 90024c0:	445f      	add	r7, fp
 90024c2:	9c01      	ldr	r4, [sp, #4]
 90024c4:	44b9      	add	r9, r7
 90024c6:	6a79      	ldr	r1, [r7, #36]	@ 0x24
 90024c8:	0020      	movs	r0, r4
 90024ca:	1989      	adds	r1, r1, r6
 90024cc:	f7ff fe6c 	bl	90021a8 <trainer_pokemon_new>
 90024d0:	464b      	mov	r3, r9
 90024d2:	7818      	ldrb	r0, [r3, #0]
 90024d4:	3501      	adds	r5, #1
 90024d6:	3624      	adds	r6, #36	@ 0x24
 90024d8:	3464      	adds	r4, #100	@ 0x64
 90024da:	42a8      	cmp	r0, r5
 90024dc:	dcf3      	bgt.n	90024c6 <party_setup_by_trainer_idx+0x9e>
 90024de:	4653      	mov	r3, sl
 90024e0:	4443      	add	r3, r8
 90024e2:	4a1b      	ldr	r2, [pc, #108]	@ (9002550 <party_setup_by_trainer_idx+0x128>)
 90024e4:	00db      	lsls	r3, r3, #3
 90024e6:	445b      	add	r3, fp
 90024e8:	6811      	ldr	r1, [r2, #0]
 90024ea:	699b      	ldr	r3, [r3, #24]
 90024ec:	430b      	orrs	r3, r1
 90024ee:	6013      	str	r3, [r2, #0]
 90024f0:	b009      	add	sp, #36	@ 0x24
 90024f2:	bcf0      	pop	{r4, r5, r6, r7}
 90024f4:	46bb      	mov	fp, r7
 90024f6:	46b2      	mov	sl, r6
 90024f8:	46a9      	mov	r9, r5
 90024fa:	46a0      	mov	r8, r4
 90024fc:	bcf0      	pop	{r4, r5, r6, r7}
 90024fe:	bc02      	pop	{r1}
 9002500:	4708      	bx	r1
 9002502:	0008      	movs	r0, r1
 9002504:	4b13      	ldr	r3, [pc, #76]	@ (9002554 <party_setup_by_trainer_idx+0x12c>)
 9002506:	f000 f8b3 	bl	9002670 <ally_party_setup+0xa4>
 900250a:	e79d      	b.n	9002448 <party_setup_by_trainer_idx+0x20>
 900250c:	4b0d      	ldr	r3, [pc, #52]	@ (9002544 <party_setup_by_trainer_idx+0x11c>)
 900250e:	469b      	mov	fp, r3
 9002510:	4643      	mov	r3, r8
 9002512:	009b      	lsls	r3, r3, #2
 9002514:	469a      	mov	sl, r3
 9002516:	4443      	add	r3, r8
 9002518:	00db      	lsls	r3, r3, #3
 900251a:	445b      	add	r3, fp
 900251c:	3320      	adds	r3, #32
 900251e:	7819      	ldrb	r1, [r3, #0]
 9002520:	2200      	movs	r2, #0
 9002522:	0030      	movs	r0, r6
 9002524:	4b0c      	ldr	r3, [pc, #48]	@ (9002558 <party_setup_by_trainer_idx+0x130>)
 9002526:	f000 f8a3 	bl	9002670 <ally_party_setup+0xa4>
 900252a:	e7a4      	b.n	9002476 <party_setup_by_trainer_idx+0x4e>
 900252c:	2000      	movs	r0, #0
 900252e:	e7d6      	b.n	90024de <party_setup_by_trainer_idx+0xb6>
 9002530:	00000000 	.word	0x00000000
 9002534:	0000062c 	.word	0x0000062c
 9002538:	0000474c 	.word	0x0000474c
 900253c:	00000000 	.word	0x00000000
 9002540:	000050f9 	.word	0x000050f9
	...
 900254c:	00000354 	.word	0x00000354
	...

0900255c <trainer_party_setup>:
 900255c:	2290      	movs	r2, #144	@ 0x90
 900255e:	b570      	push	{r4, r5, r6, lr}
 9002560:	4d13      	ldr	r5, [pc, #76]	@ (90025b0 <trainer_party_setup+0x54>)
 9002562:	682b      	ldr	r3, [r5, #0]
 9002564:	0112      	lsls	r2, r2, #4
 9002566:	2400      	movs	r4, #0
 9002568:	4213      	tst	r3, r2
 900256a:	d103      	bne.n	9002574 <trainer_party_setup+0x18>
 900256c:	2b00      	cmp	r3, #0
 900256e:	db01      	blt.n	9002574 <trainer_party_setup+0x18>
 9002570:	071b      	lsls	r3, r3, #28
 9002572:	d403      	bmi.n	900257c <trainer_party_setup+0x20>
 9002574:	0020      	movs	r0, r4
 9002576:	bc70      	pop	{r4, r5, r6}
 9002578:	bc02      	pop	{r1}
 900257a:	4708      	bx	r1
 900257c:	4b0d      	ldr	r3, [pc, #52]	@ (90025b4 <trainer_party_setup+0x58>)
 900257e:	f000 f877 	bl	9002670 <ally_party_setup+0xa4>
 9002582:	4b0d      	ldr	r3, [pc, #52]	@ (90025b8 <trainer_party_setup+0x5c>)
 9002584:	4e0d      	ldr	r6, [pc, #52]	@ (90025bc <trainer_party_setup+0x60>)
 9002586:	8859      	ldrh	r1, [r3, #2]
 9002588:	0030      	movs	r0, r6
 900258a:	f7ff ff4d 	bl	9002428 <party_setup_by_trainer_idx>
 900258e:	682b      	ldr	r3, [r5, #0]
 9002590:	4a0b      	ldr	r2, [pc, #44]	@ (90025c0 <trainer_party_setup+0x64>)
 9002592:	0004      	movs	r4, r0
 9002594:	4013      	ands	r3, r2
 9002596:	4293      	cmp	r3, r2
 9002598:	d1ec      	bne.n	9002574 <trainer_party_setup+0x18>
 900259a:	0030      	movs	r0, r6
 900259c:	4b09      	ldr	r3, [pc, #36]	@ (90025c4 <trainer_party_setup+0x68>)
 900259e:	4a0a      	ldr	r2, [pc, #40]	@ (90025c8 <trainer_party_setup+0x6c>)
 90025a0:	302d      	adds	r0, #45	@ 0x2d
 90025a2:	5a99      	ldrh	r1, [r3, r2]
 90025a4:	30ff      	adds	r0, #255	@ 0xff
 90025a6:	f7ff ff3f 	bl	9002428 <party_setup_by_trainer_idx>
 90025aa:	1824      	adds	r4, r4, r0
 90025ac:	e7e2      	b.n	9002574 <trainer_party_setup+0x18>
 90025ae:	46c0      	nop			@ (mov r8, r8)
	...
 90025c0:	00100008 	.word	0x00100008
 90025c4:	00000000 	.word	0x00000000
 90025c8:	000006ca 	.word	0x000006ca

090025cc <ally_party_setup>:
 90025cc:	b5f0      	push	{r4, r5, r6, r7, lr}
 90025ce:	46c6      	mov	lr, r8
 90025d0:	b500      	push	{lr}
 90025d2:	4b1e      	ldr	r3, [pc, #120]	@ (900264c <ally_party_setup+0x80>)
 90025d4:	b082      	sub	sp, #8
 90025d6:	481e      	ldr	r0, [pc, #120]	@ (9002650 <ally_party_setup+0x84>)
 90025d8:	f000 f84a 	bl	9002670 <ally_party_setup+0xa4>
 90025dc:	2296      	movs	r2, #150	@ 0x96
 90025de:	4c1d      	ldr	r4, [pc, #116]	@ (9002654 <ally_party_setup+0x88>)
 90025e0:	8807      	ldrh	r7, [r0, #0]
 90025e2:	4b1d      	ldr	r3, [pc, #116]	@ (9002658 <ally_party_setup+0x8c>)
 90025e4:	0052      	lsls	r2, r2, #1
 90025e6:	2100      	movs	r1, #0
 90025e8:	0020      	movs	r0, r4
 90025ea:	f000 f841 	bl	9002670 <ally_party_setup+0xa4>
 90025ee:	0039      	movs	r1, r7
 90025f0:	0020      	movs	r0, r4
 90025f2:	f7ff ff19 	bl	9002428 <party_setup_by_trainer_idx>
 90025f6:	0026      	movs	r6, r4
 90025f8:	f7ff fffe 	bl	9002064 <trainer_pokemon_prng>
 90025fc:	4b17      	ldr	r3, [pc, #92]	@ (900265c <ally_party_setup+0x90>)
 90025fe:	4a18      	ldr	r2, [pc, #96]	@ (9002660 <ally_party_setup+0x94>)
 9002600:	362d      	adds	r6, #45	@ 0x2d
 9002602:	9001      	str	r0, [sp, #4]
 9002604:	509f      	str	r7, [r3, r2]
 9002606:	4d17      	ldr	r5, [pc, #92]	@ (9002664 <ally_party_setup+0x98>)
 9002608:	36ff      	adds	r6, #255	@ 0xff
 900260a:	2200      	movs	r2, #0
 900260c:	210b      	movs	r1, #11
 900260e:	0020      	movs	r0, r4
 9002610:	f000 f830 	bl	9002674 <ally_party_setup+0xa8>
 9002614:	2800      	cmp	r0, #0
 9002616:	d108      	bne.n	900262a <ally_party_setup+0x5e>
 9002618:	3464      	adds	r4, #100	@ 0x64
 900261a:	42b4      	cmp	r4, r6
 900261c:	d1f5      	bne.n	900260a <ally_party_setup+0x3e>
 900261e:	b002      	add	sp, #8
 9002620:	bc80      	pop	{r7}
 9002622:	46b8      	mov	r8, r7
 9002624:	bcf0      	pop	{r4, r5, r6, r7}
 9002626:	bc01      	pop	{r0}
 9002628:	4700      	bx	r0
 900262a:	0038      	movs	r0, r7
 900262c:	4b0e      	ldr	r3, [pc, #56]	@ (9002668 <ally_party_setup+0x9c>)
 900262e:	f000 f81f 	bl	9002670 <ally_party_setup+0xa4>
 9002632:	4b0e      	ldr	r3, [pc, #56]	@ (900266c <ally_party_setup+0xa0>)
 9002634:	0002      	movs	r2, r0
 9002636:	2107      	movs	r1, #7
 9002638:	0020      	movs	r0, r4
 900263a:	4698      	mov	r8, r3
 900263c:	f000 f818 	bl	9002670 <ally_party_setup+0xa4>
 9002640:	2101      	movs	r1, #1
 9002642:	0020      	movs	r0, r4
 9002644:	aa01      	add	r2, sp, #4
 9002646:	f000 f817 	bl	9002678 <ally_party_setup+0xac>
 900264a:	e7e5      	b.n	9002618 <ally_party_setup+0x4c>
 900264c:	00000000 	.word	0x00000000
 9002650:	000050c2 	.word	0x000050c2
 9002654:	0000012c 	.word	0x0000012c
	...
 9002660:	0000062c 	.word	0x0000062c
	...
 9002670:	4718      	bx	r3
 9002672:	4720      	bx	r4
 9002674:	4728      	bx	r5
 9002676:	4730      	bx	r6
 9002678:	4740      	bx	r8
 900267a:	4748      	bx	r9

0900267c <oam_callback_trainerschool_pokeball>:
 900267c:	8dc3      	ldrh	r3, [r0, #46]	@ 0x2e
 900267e:	3301      	adds	r3, #1
 9002680:	041b      	lsls	r3, r3, #16
 9002682:	0c1b      	lsrs	r3, r3, #16
 9002684:	2b05      	cmp	r3, #5
 9002686:	d919      	bls.n	90026bc <oam_callback_trainerschool_pokeball+0x40>
 9002688:	2300      	movs	r3, #0
 900268a:	8e02      	ldrh	r2, [r0, #48]	@ 0x30
 900268c:	85c3      	strh	r3, [r0, #46]	@ 0x2e
 900268e:	2a00      	cmp	r2, #0
 9002690:	d10a      	bne.n	90026a8 <oam_callback_trainerschool_pokeball+0x2c>
 9002692:	8e43      	ldrh	r3, [r0, #50]	@ 0x32
 9002694:	2b00      	cmp	r3, #0
 9002696:	d006      	beq.n	90026a6 <oam_callback_trainerschool_pokeball+0x2a>
 9002698:	8cc3      	ldrh	r3, [r0, #38]	@ 0x26
 900269a:	3301      	adds	r3, #1
 900269c:	041b      	lsls	r3, r3, #16
 900269e:	141b      	asrs	r3, r3, #16
 90026a0:	84c3      	strh	r3, [r0, #38]	@ 0x26
 90026a2:	2b04      	cmp	r3, #4
 90026a4:	d00c      	beq.n	90026c0 <oam_callback_trainerschool_pokeball+0x44>
 90026a6:	4770      	bx	lr
 90026a8:	8cc3      	ldrh	r3, [r0, #38]	@ 0x26
 90026aa:	3b01      	subs	r3, #1
 90026ac:	041b      	lsls	r3, r3, #16
 90026ae:	141b      	asrs	r3, r3, #16
 90026b0:	84c3      	strh	r3, [r0, #38]	@ 0x26
 90026b2:	d1f8      	bne.n	90026a6 <oam_callback_trainerschool_pokeball+0x2a>
 90026b4:	2301      	movs	r3, #1
 90026b6:	405a      	eors	r2, r3
 90026b8:	8602      	strh	r2, [r0, #48]	@ 0x30
 90026ba:	e7f4      	b.n	90026a6 <oam_callback_trainerschool_pokeball+0x2a>
 90026bc:	85c3      	strh	r3, [r0, #46]	@ 0x2e
 90026be:	e7f2      	b.n	90026a6 <oam_callback_trainerschool_pokeball+0x2a>
 90026c0:	3b03      	subs	r3, #3
 90026c2:	8603      	strh	r3, [r0, #48]	@ 0x30
 90026c4:	e7ef      	b.n	90026a6 <oam_callback_trainerschool_pokeball+0x2a>
 90026c6:	46c0      	nop			@ (mov r8, r8)

090026c8 <trainerschool_selection_done>:
 90026c8:	b510      	push	{r4, lr}
 90026ca:	4b0b      	ldr	r3, [pc, #44]	@ (90026f8 <trainerschool_selection_done+0x30>)
 90026cc:	f000 fc78 	bl	9002fc0 <trainerschool_selection_init+0x74>
 90026d0:	4b0a      	ldr	r3, [pc, #40]	@ (90026fc <trainerschool_selection_done+0x34>)
 90026d2:	f000 fc75 	bl	9002fc0 <trainerschool_selection_init+0x74>
 90026d6:	1e04      	subs	r4, r0, #0
 90026d8:	d002      	beq.n	90026e0 <trainerschool_selection_done+0x18>
 90026da:	bc10      	pop	{r4}
 90026dc:	bc01      	pop	{r0}
 90026de:	4700      	bx	r0
 90026e0:	4807      	ldr	r0, [pc, #28]	@ (9002700 <trainerschool_selection_done+0x38>)
 90026e2:	4b08      	ldr	r3, [pc, #32]	@ (9002704 <trainerschool_selection_done+0x3c>)
 90026e4:	f000 fc6c 	bl	9002fc0 <trainerschool_selection_init+0x74>
 90026e8:	4b07      	ldr	r3, [pc, #28]	@ (9002708 <trainerschool_selection_done+0x40>)
 90026ea:	4808      	ldr	r0, [pc, #32]	@ (900270c <trainerschool_selection_done+0x44>)
 90026ec:	701c      	strb	r4, [r3, #0]
 90026ee:	4b08      	ldr	r3, [pc, #32]	@ (9002710 <trainerschool_selection_done+0x48>)
 90026f0:	f000 fc66 	bl	9002fc0 <trainerschool_selection_init+0x74>
 90026f4:	e7f1      	b.n	90026da <trainerschool_selection_done+0x12>
 90026f6:	46c0      	nop			@ (mov r8, r8)
	...
 9002700:	00000916 	.word	0x00000916
 9002704:	00000000 	.word	0x00000000
 9002708:	03000ea8 	.word	0x03000ea8
	...

09002714 <trainerschool_selection_show_species_text>:
 9002714:	b5f0      	push	{r4, r5, r6, r7, lr}
 9002716:	46c6      	mov	lr, r8
 9002718:	b500      	push	{lr}
 900271a:	4f23      	ldr	r7, [pc, #140]	@ (90027a8 <trainerschool_selection_show_species_text+0x94>)
 900271c:	b088      	sub	sp, #32
 900271e:	f000 fc53 	bl	9002fc8 <trainerschool_selection_init+0x7c>
 9002722:	78c4      	ldrb	r4, [r0, #3]
 9002724:	3401      	adds	r4, #1
 9002726:	0624      	lsls	r4, r4, #24
 9002728:	0e24      	lsrs	r4, r4, #24
 900272a:	2111      	movs	r1, #17
 900272c:	0020      	movs	r0, r4
 900272e:	4b1f      	ldr	r3, [pc, #124]	@ (90027ac <trainerschool_selection_show_species_text+0x98>)
 9002730:	f000 fc46 	bl	9002fc0 <trainerschool_selection_init+0x74>
 9002734:	0020      	movs	r0, r4
 9002736:	4b1e      	ldr	r3, [pc, #120]	@ (90027b0 <trainerschool_selection_show_species_text+0x9c>)
 9002738:	f000 fc42 	bl	9002fc0 <trainerschool_selection_init+0x74>
 900273c:	4b1d      	ldr	r3, [pc, #116]	@ (90027b4 <trainerschool_selection_show_species_text+0xa0>)
 900273e:	681b      	ldr	r3, [r3, #0]
 9002740:	9307      	str	r3, [sp, #28]
 9002742:	f000 fc41 	bl	9002fc8 <trainerschool_selection_init+0x7c>
 9002746:	78c3      	ldrb	r3, [r0, #3]
 9002748:	4e1b      	ldr	r6, [pc, #108]	@ (90027b8 <trainerschool_selection_show_species_text+0xa4>)
 900274a:	005b      	lsls	r3, r3, #1
 900274c:	5b9b      	ldrh	r3, [r3, r6]
 900274e:	0099      	lsls	r1, r3, #2
 9002750:	18c9      	adds	r1, r1, r3
 9002752:	4d1a      	ldr	r5, [pc, #104]	@ (90027bc <trainerschool_selection_show_species_text+0xa8>)
 9002754:	0049      	lsls	r1, r1, #1
 9002756:	18c9      	adds	r1, r1, r3
 9002758:	1949      	adds	r1, r1, r5
 900275a:	2200      	movs	r2, #0
 900275c:	4b18      	ldr	r3, [pc, #96]	@ (90027c0 <trainerschool_selection_show_species_text+0xac>)
 900275e:	2002      	movs	r0, #2
 9002760:	f000 fc2e 	bl	9002fc0 <trainerschool_selection_init+0x74>
 9002764:	4680      	mov	r8, r0
 9002766:	f000 fc2f 	bl	9002fc8 <trainerschool_selection_init+0x7c>
 900276a:	4643      	mov	r3, r8
 900276c:	2240      	movs	r2, #64	@ 0x40
 900276e:	1ad2      	subs	r2, r2, r3
 9002770:	78c3      	ldrb	r3, [r0, #3]
 9002772:	005b      	lsls	r3, r3, #1
 9002774:	5b99      	ldrh	r1, [r3, r6]
 9002776:	008b      	lsls	r3, r1, #2
 9002778:	185b      	adds	r3, r3, r1
 900277a:	005b      	lsls	r3, r3, #1
 900277c:	185b      	adds	r3, r3, r1
 900277e:	195b      	adds	r3, r3, r5
 9002780:	9304      	str	r3, [sp, #16]
 9002782:	2300      	movs	r3, #0
 9002784:	a907      	add	r1, sp, #28
 9002786:	05d2      	lsls	r2, r2, #23
 9002788:	0020      	movs	r0, r4
 900278a:	9102      	str	r1, [sp, #8]
 900278c:	9303      	str	r3, [sp, #12]
 900278e:	2102      	movs	r1, #2
 9002790:	9301      	str	r3, [sp, #4]
 9002792:	9300      	str	r3, [sp, #0]
 9002794:	4c0b      	ldr	r4, [pc, #44]	@ (90027c4 <trainerschool_selection_show_species_text+0xb0>)
 9002796:	0e12      	lsrs	r2, r2, #24
 9002798:	f000 fc13 	bl	9002fc2 <trainerschool_selection_init+0x76>
 900279c:	b008      	add	sp, #32
 900279e:	bc80      	pop	{r7}
 90027a0:	46b8      	mov	r8, r7
 90027a2:	bcf0      	pop	{r4, r5, r6, r7}
 90027a4:	bc01      	pop	{r0}
 90027a6:	4700      	bx	r0
	...
 90027b4:	00004764 	.word	0x00004764
 90027b8:	0001b094 	.word	0x0001b094
	...

090027c8 <trainerschool_selection_init_components>:
 90027c8:	b5f0      	push	{r4, r5, r6, r7, lr}
 90027ca:	46de      	mov	lr, fp
 90027cc:	4657      	mov	r7, sl
 90027ce:	464e      	mov	r6, r9
 90027d0:	4645      	mov	r5, r8
 90027d2:	b5e0      	push	{r5, r6, r7, lr}
 90027d4:	4bce      	ldr	r3, [pc, #824]	@ (9002b10 <trainerschool_selection_init_components+0x348>)
 90027d6:	b087      	sub	sp, #28
 90027d8:	f000 fbf2 	bl	9002fc0 <trainerschool_selection_init+0x74>
 90027dc:	4bcd      	ldr	r3, [pc, #820]	@ (9002b14 <trainerschool_selection_init_components+0x34c>)
 90027de:	f000 fbef 	bl	9002fc0 <trainerschool_selection_init+0x74>
 90027e2:	2800      	cmp	r0, #0
 90027e4:	d008      	beq.n	90027f8 <trainerschool_selection_init_components+0x30>
 90027e6:	b007      	add	sp, #28
 90027e8:	bcf0      	pop	{r4, r5, r6, r7}
 90027ea:	46bb      	mov	fp, r7
 90027ec:	46b2      	mov	sl, r6
 90027ee:	46a9      	mov	r9, r5
 90027f0:	46a0      	mov	r8, r4
 90027f2:	bcf0      	pop	{r4, r5, r6, r7}
 90027f4:	bc01      	pop	{r0}
 90027f6:	4700      	bx	r0
 90027f8:	4bc7      	ldr	r3, [pc, #796]	@ (9002b18 <trainerschool_selection_init_components+0x350>)
 90027fa:	f000 fbe1 	bl	9002fc0 <trainerschool_selection_init+0x74>
 90027fe:	4bc7      	ldr	r3, [pc, #796]	@ (9002b1c <trainerschool_selection_init_components+0x354>)
 9002800:	f000 fbde 	bl	9002fc0 <trainerschool_selection_init+0x74>
 9002804:	4bc6      	ldr	r3, [pc, #792]	@ (9002b20 <trainerschool_selection_init_components+0x358>)
 9002806:	f000 fbdb 	bl	9002fc0 <trainerschool_selection_init+0x74>
 900280a:	2000      	movs	r0, #0
 900280c:	4bc5      	ldr	r3, [pc, #788]	@ (9002b24 <trainerschool_selection_init_components+0x35c>)
 900280e:	f000 fbd7 	bl	9002fc0 <trainerschool_selection_init+0x74>
 9002812:	4cc5      	ldr	r4, [pc, #788]	@ (9002b28 <trainerschool_selection_init_components+0x360>)
 9002814:	0021      	movs	r1, r4
 9002816:	2204      	movs	r2, #4
 9002818:	3108      	adds	r1, #8
 900281a:	4bc4      	ldr	r3, [pc, #784]	@ (9002b2c <trainerschool_selection_init_components+0x364>)
 900281c:	2000      	movs	r0, #0
 900281e:	f000 fbcf 	bl	9002fc0 <trainerschool_selection_init+0x74>
 9002822:	4dc3      	ldr	r5, [pc, #780]	@ (9002b30 <trainerschool_selection_init_components+0x368>)
 9002824:	2000      	movs	r0, #0
 9002826:	f000 fbcd 	bl	9002fc4 <trainerschool_selection_init+0x78>
 900282a:	2001      	movs	r0, #1
 900282c:	f000 fbca 	bl	9002fc4 <trainerschool_selection_init+0x78>
 9002830:	2002      	movs	r0, #2
 9002832:	f000 fbc7 	bl	9002fc4 <trainerschool_selection_init+0x78>
 9002836:	2003      	movs	r0, #3
 9002838:	f000 fbc4 	bl	9002fc4 <trainerschool_selection_init+0x78>
 900283c:	4bbd      	ldr	r3, [pc, #756]	@ (9002b34 <trainerschool_selection_init_components+0x36c>)
 900283e:	f000 fbbf 	bl	9002fc0 <trainerschool_selection_init+0x74>
 9002842:	4ebd      	ldr	r6, [pc, #756]	@ (9002b38 <trainerschool_selection_init_components+0x370>)
 9002844:	2200      	movs	r2, #0
 9002846:	2100      	movs	r1, #0
 9002848:	2000      	movs	r0, #0
 900284a:	f000 fbbc 	bl	9002fc6 <trainerschool_selection_init+0x7a>
 900284e:	4dbb      	ldr	r5, [pc, #748]	@ (9002b3c <trainerschool_selection_init_components+0x374>)
 9002850:	2200      	movs	r2, #0
 9002852:	2100      	movs	r1, #0
 9002854:	2000      	movs	r0, #0
 9002856:	f000 fbb5 	bl	9002fc4 <trainerschool_selection_init+0x78>
 900285a:	2200      	movs	r2, #0
 900285c:	2100      	movs	r1, #0
 900285e:	2001      	movs	r0, #1
 9002860:	f000 fbb1 	bl	9002fc6 <trainerschool_selection_init+0x7a>
 9002864:	2200      	movs	r2, #0
 9002866:	2100      	movs	r1, #0
 9002868:	2001      	movs	r0, #1
 900286a:	f000 fbab 	bl	9002fc4 <trainerschool_selection_init+0x78>
 900286e:	2200      	movs	r2, #0
 9002870:	2100      	movs	r1, #0
 9002872:	2002      	movs	r0, #2
 9002874:	f000 fba7 	bl	9002fc6 <trainerschool_selection_init+0x7a>
 9002878:	2200      	movs	r2, #0
 900287a:	2100      	movs	r1, #0
 900287c:	2002      	movs	r0, #2
 900287e:	f000 fba1 	bl	9002fc4 <trainerschool_selection_init+0x78>
 9002882:	2200      	movs	r2, #0
 9002884:	2100      	movs	r1, #0
 9002886:	2003      	movs	r0, #3
 9002888:	f000 fb9d 	bl	9002fc6 <trainerschool_selection_init+0x7a>
 900288c:	2200      	movs	r2, #0
 900288e:	2100      	movs	r1, #0
 9002890:	2003      	movs	r0, #3
 9002892:	f000 fb97 	bl	9002fc4 <trainerschool_selection_init+0x78>
 9002896:	4faa      	ldr	r7, [pc, #680]	@ (9002b40 <trainerschool_selection_init_components+0x378>)
 9002898:	2100      	movs	r1, #0
 900289a:	2010      	movs	r0, #16
 900289c:	f000 fb94 	bl	9002fc8 <trainerschool_selection_init+0x7c>
 90028a0:	2100      	movs	r1, #0
 90028a2:	2012      	movs	r0, #18
 90028a4:	f000 fb90 	bl	9002fc8 <trainerschool_selection_init+0x7c>
 90028a8:	2100      	movs	r1, #0
 90028aa:	2014      	movs	r0, #20
 90028ac:	f000 fb8c 	bl	9002fc8 <trainerschool_selection_init+0x7c>
 90028b0:	2100      	movs	r1, #0
 90028b2:	2016      	movs	r0, #22
 90028b4:	f000 fb88 	bl	9002fc8 <trainerschool_selection_init+0x7c>
 90028b8:	2100      	movs	r1, #0
 90028ba:	2018      	movs	r0, #24
 90028bc:	f000 fb84 	bl	9002fc8 <trainerschool_selection_init+0x7c>
 90028c0:	2100      	movs	r1, #0
 90028c2:	201a      	movs	r0, #26
 90028c4:	f000 fb80 	bl	9002fc8 <trainerschool_selection_init+0x7c>
 90028c8:	2100      	movs	r1, #0
 90028ca:	201c      	movs	r0, #28
 90028cc:	f000 fb7c 	bl	9002fc8 <trainerschool_selection_init+0x7c>
 90028d0:	2100      	movs	r1, #0
 90028d2:	201e      	movs	r0, #30
 90028d4:	f000 fb78 	bl	9002fc8 <trainerschool_selection_init+0x7c>
 90028d8:	2080      	movs	r0, #128	@ 0x80
 90028da:	4d9a      	ldr	r5, [pc, #616]	@ (9002b44 <trainerschool_selection_init_components+0x37c>)
 90028dc:	0100      	lsls	r0, r0, #4
 90028de:	f000 fb71 	bl	9002fc4 <trainerschool_selection_init+0x78>
 90028e2:	4681      	mov	r9, r0
 90028e4:	2080      	movs	r0, #128	@ 0x80
 90028e6:	0100      	lsls	r0, r0, #4
 90028e8:	f000 fb6c 	bl	9002fc4 <trainerschool_selection_init+0x78>
 90028ec:	4680      	mov	r8, r0
 90028ee:	2080      	movs	r0, #128	@ 0x80
 90028f0:	0100      	lsls	r0, r0, #4
 90028f2:	f000 fb67 	bl	9002fc4 <trainerschool_selection_init+0x78>
 90028f6:	0006      	movs	r6, r0
 90028f8:	2080      	movs	r0, #128	@ 0x80
 90028fa:	0100      	lsls	r0, r0, #4
 90028fc:	f000 fb62 	bl	9002fc4 <trainerschool_selection_init+0x78>
 9002900:	4b91      	ldr	r3, [pc, #580]	@ (9002b48 <trainerschool_selection_init_components+0x380>)
 9002902:	4649      	mov	r1, r9
 9002904:	9003      	str	r0, [sp, #12]
 9002906:	2000      	movs	r0, #0
 9002908:	469a      	mov	sl, r3
 900290a:	f000 fb59 	bl	9002fc0 <trainerschool_selection_init+0x74>
 900290e:	4641      	mov	r1, r8
 9002910:	2001      	movs	r0, #1
 9002912:	f000 fb5b 	bl	9002fcc <trainerschool_selection_init+0x80>
 9002916:	0031      	movs	r1, r6
 9002918:	2002      	movs	r0, #2
 900291a:	f000 fb57 	bl	9002fcc <trainerschool_selection_init+0x80>
 900291e:	2003      	movs	r0, #3
 9002920:	9903      	ldr	r1, [sp, #12]
 9002922:	f000 fb53 	bl	9002fcc <trainerschool_selection_init+0x80>
 9002926:	4b89      	ldr	r3, [pc, #548]	@ (9002b4c <trainerschool_selection_init_components+0x384>)
 9002928:	4889      	ldr	r0, [pc, #548]	@ (9002b50 <trainerschool_selection_init_components+0x388>)
 900292a:	498a      	ldr	r1, [pc, #552]	@ (9002b54 <trainerschool_selection_init_components+0x38c>)
 900292c:	469b      	mov	fp, r3
 900292e:	f000 fb47 	bl	9002fc0 <trainerschool_selection_init+0x74>
 9002932:	4b89      	ldr	r3, [pc, #548]	@ (9002b58 <trainerschool_selection_init_components+0x390>)
 9002934:	4641      	mov	r1, r8
 9002936:	4889      	ldr	r0, [pc, #548]	@ (9002b5c <trainerschool_selection_init_components+0x394>)
 9002938:	469a      	mov	sl, r3
 900293a:	f000 fb41 	bl	9002fc0 <trainerschool_selection_init+0x74>
 900293e:	4888      	ldr	r0, [pc, #544]	@ (9002b60 <trainerschool_selection_init_components+0x398>)
 9002940:	4988      	ldr	r1, [pc, #544]	@ (9002b64 <trainerschool_selection_init_components+0x39c>)
 9002942:	f000 fb44 	bl	9002fce <trainerschool_selection_init+0x82>
 9002946:	0031      	movs	r1, r6
 9002948:	4887      	ldr	r0, [pc, #540]	@ (9002b68 <trainerschool_selection_init_components+0x3a0>)
 900294a:	f000 fb3f 	bl	9002fcc <trainerschool_selection_init+0x80>
 900294e:	21c0      	movs	r1, #192	@ 0xc0
 9002950:	4886      	ldr	r0, [pc, #536]	@ (9002b6c <trainerschool_selection_init_components+0x3a4>)
 9002952:	04c9      	lsls	r1, r1, #19
 9002954:	f000 fb3b 	bl	9002fce <trainerschool_selection_init+0x82>
 9002958:	4885      	ldr	r0, [pc, #532]	@ (9002b70 <trainerschool_selection_init_components+0x3a8>)
 900295a:	9903      	ldr	r1, [sp, #12]
 900295c:	f000 fb36 	bl	9002fcc <trainerschool_selection_init+0x80>
 9002960:	2302      	movs	r3, #2
 9002962:	2280      	movs	r2, #128	@ 0x80
 9002964:	469a      	mov	sl, r3
 9002966:	4d83      	ldr	r5, [pc, #524]	@ (9002b74 <trainerschool_selection_init_components+0x3ac>)
 9002968:	4649      	mov	r1, r9
 900296a:	2000      	movs	r0, #0
 900296c:	9300      	str	r3, [sp, #0]
 900296e:	0112      	lsls	r2, r2, #4
 9002970:	2300      	movs	r3, #0
 9002972:	f000 fb27 	bl	9002fc4 <trainerschool_selection_init+0x78>
 9002976:	4653      	mov	r3, sl
 9002978:	2280      	movs	r2, #128	@ 0x80
 900297a:	4641      	mov	r1, r8
 900297c:	2001      	movs	r0, #1
 900297e:	9300      	str	r3, [sp, #0]
 9002980:	0112      	lsls	r2, r2, #4
 9002982:	2300      	movs	r3, #0
 9002984:	f000 fb1e 	bl	9002fc4 <trainerschool_selection_init+0x78>
 9002988:	4653      	mov	r3, sl
 900298a:	2280      	movs	r2, #128	@ 0x80
 900298c:	0031      	movs	r1, r6
 900298e:	2002      	movs	r0, #2
 9002990:	9300      	str	r3, [sp, #0]
 9002992:	0112      	lsls	r2, r2, #4
 9002994:	2300      	movs	r3, #0
 9002996:	f000 fb15 	bl	9002fc4 <trainerschool_selection_init+0x78>
 900299a:	4653      	mov	r3, sl
 900299c:	2280      	movs	r2, #128	@ 0x80
 900299e:	9903      	ldr	r1, [sp, #12]
 90029a0:	0112      	lsls	r2, r2, #4
 90029a2:	2003      	movs	r0, #3
 90029a4:	9300      	str	r3, [sp, #0]
 90029a6:	2300      	movs	r3, #0
 90029a8:	f000 fb0c 	bl	9002fc4 <trainerschool_selection_init+0x78>
 90029ac:	0020      	movs	r0, r4
 90029ae:	4b72      	ldr	r3, [pc, #456]	@ (9002b78 <trainerschool_selection_init_components+0x3b0>)
 90029b0:	3018      	adds	r0, #24
 90029b2:	f000 fb05 	bl	9002fc0 <trainerschool_selection_init+0x74>
 90029b6:	4d71      	ldr	r5, [pc, #452]	@ (9002b7c <trainerschool_selection_init_components+0x3b4>)
 90029b8:	6ba0      	ldr	r0, [r4, #56]	@ 0x38
 90029ba:	f000 fb03 	bl	9002fc4 <trainerschool_selection_init+0x78>
 90029be:	0020      	movs	r0, r4
 90029c0:	303c      	adds	r0, #60	@ 0x3c
 90029c2:	f000 faff 	bl	9002fc4 <trainerschool_selection_init+0x78>
 90029c6:	0020      	movs	r0, r4
 90029c8:	3044      	adds	r0, #68	@ 0x44
 90029ca:	f000 fafb 	bl	9002fc4 <trainerschool_selection_init+0x78>
 90029ce:	0020      	movs	r0, r4
 90029d0:	304c      	adds	r0, #76	@ 0x4c
 90029d2:	f000 faf7 	bl	9002fc4 <trainerschool_selection_init+0x78>
 90029d6:	4e6a      	ldr	r6, [pc, #424]	@ (9002b80 <trainerschool_selection_init_components+0x3b8>)
 90029d8:	486a      	ldr	r0, [pc, #424]	@ (9002b84 <trainerschool_selection_init_components+0x3bc>)
 90029da:	f000 faf4 	bl	9002fc6 <trainerschool_selection_init+0x7a>
 90029de:	3010      	adds	r0, #16
 90029e0:	0501      	lsls	r1, r0, #20
 90029e2:	4d69      	ldr	r5, [pc, #420]	@ (9002b88 <trainerschool_selection_init_components+0x3c0>)
 90029e4:	2220      	movs	r2, #32
 90029e6:	0c09      	lsrs	r1, r1, #16
 90029e8:	4868      	ldr	r0, [pc, #416]	@ (9002b8c <trainerschool_selection_init_components+0x3c4>)
 90029ea:	f000 faeb 	bl	9002fc4 <trainerschool_selection_init+0x78>
 90029ee:	4868      	ldr	r0, [pc, #416]	@ (9002b90 <trainerschool_selection_init_components+0x3c8>)
 90029f0:	f000 fae9 	bl	9002fc6 <trainerschool_selection_init+0x7a>
 90029f4:	3010      	adds	r0, #16
 90029f6:	0501      	lsls	r1, r0, #20
 90029f8:	2220      	movs	r2, #32
 90029fa:	0c09      	lsrs	r1, r1, #16
 90029fc:	4865      	ldr	r0, [pc, #404]	@ (9002b94 <trainerschool_selection_init_components+0x3cc>)
 90029fe:	f000 fae1 	bl	9002fc4 <trainerschool_selection_init+0x78>
 9002a02:	4865      	ldr	r0, [pc, #404]	@ (9002b98 <trainerschool_selection_init_components+0x3d0>)
 9002a04:	f000 fadf 	bl	9002fc6 <trainerschool_selection_init+0x7a>
 9002a08:	3010      	adds	r0, #16
 9002a0a:	0501      	lsls	r1, r0, #20
 9002a0c:	2220      	movs	r2, #32
 9002a0e:	0c09      	lsrs	r1, r1, #16
 9002a10:	4862      	ldr	r0, [pc, #392]	@ (9002b9c <trainerschool_selection_init_components+0x3d4>)
 9002a12:	f000 fad7 	bl	9002fc4 <trainerschool_selection_init+0x78>
 9002a16:	6d63      	ldr	r3, [r4, #84]	@ 0x54
 9002a18:	8898      	ldrh	r0, [r3, #4]
 9002a1a:	f000 fad4 	bl	9002fc6 <trainerschool_selection_init+0x7a>
 9002a1e:	6d63      	ldr	r3, [r4, #84]	@ 0x54
 9002a20:	3010      	adds	r0, #16
 9002a22:	0501      	lsls	r1, r0, #20
 9002a24:	2220      	movs	r2, #32
 9002a26:	6818      	ldr	r0, [r3, #0]
 9002a28:	0c09      	lsrs	r1, r1, #16
 9002a2a:	f000 facb 	bl	9002fc4 <trainerschool_selection_init+0x78>
 9002a2e:	2220      	movs	r2, #32
 9002a30:	2100      	movs	r1, #0
 9002a32:	485b      	ldr	r0, [pc, #364]	@ (9002ba0 <trainerschool_selection_init_components+0x3d8>)
 9002a34:	f000 fac6 	bl	9002fc4 <trainerschool_selection_init+0x78>
 9002a38:	4b5a      	ldr	r3, [pc, #360]	@ (9002ba4 <trainerschool_selection_init_components+0x3dc>)
 9002a3a:	f000 fac1 	bl	9002fc0 <trainerschool_selection_init+0x74>
 9002a3e:	0020      	movs	r0, r4
 9002a40:	4d59      	ldr	r5, [pc, #356]	@ (9002ba8 <trainerschool_selection_init_components+0x3e0>)
 9002a42:	2300      	movs	r3, #0
 9002a44:	226c      	movs	r2, #108	@ 0x6c
 9002a46:	2134      	movs	r1, #52	@ 0x34
 9002a48:	3058      	adds	r0, #88	@ 0x58
 9002a4a:	f000 fabb 	bl	9002fc4 <trainerschool_selection_init+0x78>
 9002a4e:	0020      	movs	r0, r4
 9002a50:	2300      	movs	r3, #0
 9002a52:	2272      	movs	r2, #114	@ 0x72
 9002a54:	2178      	movs	r1, #120	@ 0x78
 9002a56:	3070      	adds	r0, #112	@ 0x70
 9002a58:	f000 fab4 	bl	9002fc4 <trainerschool_selection_init+0x78>
 9002a5c:	4c53      	ldr	r4, [pc, #332]	@ (9002bac <trainerschool_selection_init_components+0x3e4>)
 9002a5e:	0020      	movs	r0, r4
 9002a60:	2300      	movs	r3, #0
 9002a62:	226c      	movs	r2, #108	@ 0x6c
 9002a64:	21bc      	movs	r1, #188	@ 0xbc
 9002a66:	3008      	adds	r0, #8
 9002a68:	f000 faac 	bl	9002fc4 <trainerschool_selection_init+0x78>
 9002a6c:	4b50      	ldr	r3, [pc, #320]	@ (9002bb0 <trainerschool_selection_init_components+0x3e8>)
 9002a6e:	9304      	str	r3, [sp, #16]
 9002a70:	23bc      	movs	r3, #188	@ 0xbc
 9002a72:	ae04      	add	r6, sp, #16
 9002a74:	80b3      	strh	r3, [r6, #4]
 9002a76:	4b4f      	ldr	r3, [pc, #316]	@ (9002bb4 <trainerschool_selection_init_components+0x3ec>)
 9002a78:	469a      	mov	sl, r3
 9002a7a:	2320      	movs	r3, #32
 9002a7c:	4699      	mov	r9, r3
 9002a7e:	46a8      	mov	r8, r5
 9002a80:	2500      	movs	r5, #0
 9002a82:	44a1      	add	r9, r4
 9002a84:	2200      	movs	r2, #0
 9002a86:	5eb3      	ldrsh	r3, [r6, r2]
 9002a88:	469b      	mov	fp, r3
 9002a8a:	f000 fa9f 	bl	9002fcc <trainerschool_selection_init+0x80>
 9002a8e:	2300      	movs	r3, #0
 9002a90:	0004      	movs	r4, r0
 9002a92:	2248      	movs	r2, #72	@ 0x48
 9002a94:	4659      	mov	r1, fp
 9002a96:	4648      	mov	r0, r9
 9002a98:	f000 fa97 	bl	9002fca <trainerschool_selection_init+0x7e>
 9002a9c:	1964      	adds	r4, r4, r5
 9002a9e:	3501      	adds	r5, #1
 9002aa0:	7120      	strb	r0, [r4, #4]
 9002aa2:	3602      	adds	r6, #2
 9002aa4:	2d03      	cmp	r5, #3
 9002aa6:	d1ed      	bne.n	9002a84 <trainerschool_selection_init_components+0x2bc>
 9002aa8:	f000 fa90 	bl	9002fcc <trainerschool_selection_init+0x80>
 9002aac:	0004      	movs	r4, r0
 9002aae:	f000 fa8d 	bl	9002fcc <trainerschool_selection_init+0x80>
 9002ab2:	78c2      	ldrb	r2, [r0, #3]
 9002ab4:	18a4      	adds	r4, r4, r2
 9002ab6:	7921      	ldrb	r1, [r4, #4]
 9002ab8:	010a      	lsls	r2, r1, #4
 9002aba:	1852      	adds	r2, r2, r1
 9002abc:	4b3e      	ldr	r3, [pc, #248]	@ (9002bb8 <trainerschool_selection_init_components+0x3f0>)
 9002abe:	0092      	lsls	r2, r2, #2
 9002ac0:	189b      	adds	r3, r3, r2
 9002ac2:	2201      	movs	r2, #1
 9002ac4:	865a      	strh	r2, [r3, #50]	@ 0x32
 9002ac6:	f7ff fffe 	bl	9002714 <trainerschool_selection_show_species_text>
 9002aca:	2100      	movs	r1, #0
 9002acc:	2000      	movs	r0, #0
 9002ace:	4b3b      	ldr	r3, [pc, #236]	@ (9002bbc <trainerschool_selection_init_components+0x3f4>)
 9002ad0:	f000 fa76 	bl	9002fc0 <trainerschool_selection_init+0x74>
 9002ad4:	4b3a      	ldr	r3, [pc, #232]	@ (9002bc0 <trainerschool_selection_init_components+0x3f8>)
 9002ad6:	483b      	ldr	r0, [pc, #236]	@ (9002bc4 <trainerschool_selection_init_components+0x3fc>)
 9002ad8:	f000 fa72 	bl	9002fc0 <trainerschool_selection_init+0x74>
 9002adc:	4c3a      	ldr	r4, [pc, #232]	@ (9002bc8 <trainerschool_selection_init_components+0x400>)
 9002ade:	2000      	movs	r0, #0
 9002ae0:	f000 fa6f 	bl	9002fc2 <trainerschool_selection_init+0x76>
 9002ae4:	2001      	movs	r0, #1
 9002ae6:	f000 fa6c 	bl	9002fc2 <trainerschool_selection_init+0x76>
 9002aea:	2002      	movs	r0, #2
 9002aec:	f000 fa69 	bl	9002fc2 <trainerschool_selection_init+0x76>
 9002af0:	2003      	movs	r0, #3
 9002af2:	f000 fa66 	bl	9002fc2 <trainerschool_selection_init+0x76>
 9002af6:	2048      	movs	r0, #72	@ 0x48
 9002af8:	4934      	ldr	r1, [pc, #208]	@ (9002bcc <trainerschool_selection_init_components+0x404>)
 9002afa:	f000 fa65 	bl	9002fc8 <trainerschool_selection_init+0x7c>
 9002afe:	2050      	movs	r0, #80	@ 0x50
 9002b00:	4933      	ldr	r1, [pc, #204]	@ (9002bd0 <trainerschool_selection_init_components+0x408>)
 9002b02:	f000 fa61 	bl	9002fc8 <trainerschool_selection_init+0x7c>
 9002b06:	2052      	movs	r0, #82	@ 0x52
 9002b08:	4932      	ldr	r1, [pc, #200]	@ (9002bd4 <trainerschool_selection_init_components+0x40c>)
 9002b0a:	f000 fa5d 	bl	9002fc8 <trainerschool_selection_init+0x7c>
 9002b0e:	e66a      	b.n	90027e6 <trainerschool_selection_init_components+0x1e>
	...
 9002b28:	0001b094 	.word	0x0001b094
	...
 9002b54:	0600c000 	.word	0x0600c000
	...
 9002b64:	06004000 	.word	0x06004000
	...
 9002b84:	0000a440 	.word	0x0000a440
	...
 9002b90:	0000a441 	.word	0x0000a441
 9002b94:	00000000 	.word	0x00000000
 9002b98:	0000a442 	.word	0x0000a442
	...
 9002bac:	0001b114 	.word	0x0001b114
 9002bb0:	00780034 	.word	0x00780034
	...
 9002bcc:	00001f3f 	.word	0x00001f3f
 9002bd0:	00003f41 	.word	0x00003f41
 9002bd4:	0000060f 	.word	0x0000060f

09002bd8 <trainerschool_selection_delete_species_text>:
 9002bd8:	b510      	push	{r4, lr}
 9002bda:	4b0f      	ldr	r3, [pc, #60]	@ (9002c18 <trainerschool_selection_delete_species_text+0x40>)
 9002bdc:	f000 f9f0 	bl	9002fc0 <trainerschool_selection_init+0x74>
 9002be0:	78c4      	ldrb	r4, [r0, #3]
 9002be2:	3401      	adds	r4, #1
 9002be4:	0624      	lsls	r4, r4, #24
 9002be6:	0e24      	lsrs	r4, r4, #24
 9002be8:	0022      	movs	r2, r4
 9002bea:	2004      	movs	r0, #4
 9002bec:	490b      	ldr	r1, [pc, #44]	@ (9002c1c <trainerschool_selection_delete_species_text+0x44>)
 9002bee:	4b0c      	ldr	r3, [pc, #48]	@ (9002c20 <trainerschool_selection_delete_species_text+0x48>)
 9002bf0:	f000 f9e6 	bl	9002fc0 <trainerschool_selection_init+0x74>
 9002bf4:	0020      	movs	r0, r4
 9002bf6:	2100      	movs	r1, #0
 9002bf8:	4b0a      	ldr	r3, [pc, #40]	@ (9002c24 <trainerschool_selection_delete_species_text+0x4c>)
 9002bfa:	f000 f9e1 	bl	9002fc0 <trainerschool_selection_init+0x74>
 9002bfe:	2103      	movs	r1, #3
 9002c00:	0020      	movs	r0, r4
 9002c02:	4b09      	ldr	r3, [pc, #36]	@ (9002c28 <trainerschool_selection_delete_species_text+0x50>)
 9002c04:	f000 f9dc 	bl	9002fc0 <trainerschool_selection_init+0x74>
 9002c08:	2000      	movs	r0, #0
 9002c0a:	4b08      	ldr	r3, [pc, #32]	@ (9002c2c <trainerschool_selection_delete_species_text+0x54>)
 9002c0c:	f000 f9d8 	bl	9002fc0 <trainerschool_selection_init+0x74>
 9002c10:	bc10      	pop	{r4}
 9002c12:	bc01      	pop	{r0}
 9002c14:	4700      	bx	r0
 9002c16:	46c0      	nop			@ (mov r8, r8)
 9002c18:	00000000 	.word	0x00000000
 9002c1c:	00000374 	.word	0x00000374
	...

09002c30 <trainerschool_selection_select>:
 9002c30:	b5f0      	push	{r4, r5, r6, r7, lr}
 9002c32:	4c29      	ldr	r4, [pc, #164]	@ (9002cd8 <trainerschool_selection_select+0xa8>)
 9002c34:	b089      	sub	sp, #36	@ 0x24
 9002c36:	f000 f9c4 	bl	9002fc2 <trainerschool_selection_init+0x76>
 9002c3a:	0006      	movs	r6, r0
 9002c3c:	f000 f9c1 	bl	9002fc2 <trainerschool_selection_init+0x76>
 9002c40:	78c3      	ldrb	r3, [r0, #3]
 9002c42:	18f6      	adds	r6, r6, r3
 9002c44:	7932      	ldrb	r2, [r6, #4]
 9002c46:	2601      	movs	r6, #1
 9002c48:	0113      	lsls	r3, r2, #4
 9002c4a:	189b      	adds	r3, r3, r2
 9002c4c:	4d23      	ldr	r5, [pc, #140]	@ (9002cdc <trainerschool_selection_select+0xac>)
 9002c4e:	009b      	lsls	r3, r3, #2
 9002c50:	18eb      	adds	r3, r5, r3
 9002c52:	332a      	adds	r3, #42	@ 0x2a
 9002c54:	701e      	strb	r6, [r3, #0]
 9002c56:	f000 f9b4 	bl	9002fc2 <trainerschool_selection_init+0x76>
 9002c5a:	0007      	movs	r7, r0
 9002c5c:	f000 f9b1 	bl	9002fc2 <trainerschool_selection_init+0x76>
 9002c60:	78c3      	ldrb	r3, [r0, #3]
 9002c62:	18ff      	adds	r7, r7, r3
 9002c64:	793b      	ldrb	r3, [r7, #4]
 9002c66:	0118      	lsls	r0, r3, #4
 9002c68:	18c0      	adds	r0, r0, r3
 9002c6a:	0080      	lsls	r0, r0, #2
 9002c6c:	2100      	movs	r1, #0
 9002c6e:	4b1c      	ldr	r3, [pc, #112]	@ (9002ce0 <trainerschool_selection_select+0xb0>)
 9002c70:	1940      	adds	r0, r0, r5
 9002c72:	f000 f9a5 	bl	9002fc0 <trainerschool_selection_init+0x74>
 9002c76:	f000 f9a4 	bl	9002fc2 <trainerschool_selection_init+0x76>
 9002c7a:	78c2      	ldrb	r2, [r0, #3]
 9002c7c:	4b19      	ldr	r3, [pc, #100]	@ (9002ce4 <trainerschool_selection_select+0xb4>)
 9002c7e:	0052      	lsls	r2, r2, #1
 9002c80:	5ad0      	ldrh	r0, [r2, r3]
 9002c82:	2100      	movs	r1, #0
 9002c84:	4b18      	ldr	r3, [pc, #96]	@ (9002ce8 <trainerschool_selection_select+0xb8>)
 9002c86:	f000 f99b 	bl	9002fc0 <trainerschool_selection_init+0x74>
 9002c8a:	2111      	movs	r1, #17
 9002c8c:	2000      	movs	r0, #0
 9002c8e:	4b17      	ldr	r3, [pc, #92]	@ (9002cec <trainerschool_selection_select+0xbc>)
 9002c90:	f000 f996 	bl	9002fc0 <trainerschool_selection_init+0x74>
 9002c94:	2000      	movs	r0, #0
 9002c96:	4b16      	ldr	r3, [pc, #88]	@ (9002cf0 <trainerschool_selection_select+0xc0>)
 9002c98:	f000 f992 	bl	9002fc0 <trainerschool_selection_init+0x74>
 9002c9c:	2103      	movs	r1, #3
 9002c9e:	2000      	movs	r0, #0
 9002ca0:	4b14      	ldr	r3, [pc, #80]	@ (9002cf4 <trainerschool_selection_select+0xc4>)
 9002ca2:	f000 f98d 	bl	9002fc0 <trainerschool_selection_init+0x74>
 9002ca6:	4b14      	ldr	r3, [pc, #80]	@ (9002cf8 <trainerschool_selection_select+0xc8>)
 9002ca8:	681b      	ldr	r3, [r3, #0]
 9002caa:	9307      	str	r3, [sp, #28]
 9002cac:	4b13      	ldr	r3, [pc, #76]	@ (9002cfc <trainerschool_selection_select+0xcc>)
 9002cae:	9304      	str	r3, [sp, #16]
 9002cb0:	2300      	movs	r3, #0
 9002cb2:	aa07      	add	r2, sp, #28
 9002cb4:	2102      	movs	r1, #2
 9002cb6:	9303      	str	r3, [sp, #12]
 9002cb8:	9202      	str	r2, [sp, #8]
 9002cba:	9301      	str	r3, [sp, #4]
 9002cbc:	2200      	movs	r2, #0
 9002cbe:	9300      	str	r3, [sp, #0]
 9002cc0:	2000      	movs	r0, #0
 9002cc2:	4d0f      	ldr	r5, [pc, #60]	@ (9002d00 <trainerschool_selection_select+0xd0>)
 9002cc4:	f000 f97e 	bl	9002fc4 <trainerschool_selection_init+0x78>
 9002cc8:	f000 f97b 	bl	9002fc2 <trainerschool_selection_init+0x76>
 9002ccc:	71c6      	strb	r6, [r0, #7]
 9002cce:	b009      	add	sp, #36	@ 0x24
 9002cd0:	bcf0      	pop	{r4, r5, r6, r7}
 9002cd2:	bc01      	pop	{r0}
 9002cd4:	4700      	bx	r0
 9002cd6:	46c0      	nop			@ (mov r8, r8)
	...
 9002ce4:	0001b094 	.word	0x0001b094
	...
 9002cf8:	00004764 	.word	0x00004764
 9002cfc:	0001b14c 	.word	0x0001b14c
 9002d00:	00000000 	.word	0x00000000

09002d04 <trainerschool_selection_idle>:
 9002d04:	b5f8      	push	{r3, r4, r5, r6, r7, lr}
 9002d06:	4b7f      	ldr	r3, [pc, #508]	@ (9002f04 <trainerschool_selection_idle+0x200>)
 9002d08:	f000 f95a 	bl	9002fc0 <trainerschool_selection_init+0x74>
 9002d0c:	4c7e      	ldr	r4, [pc, #504]	@ (9002f08 <trainerschool_selection_idle+0x204>)
 9002d0e:	f000 f958 	bl	9002fc2 <trainerschool_selection_init+0x76>
 9002d12:	7883      	ldrb	r3, [r0, #2]
 9002d14:	2b00      	cmp	r3, #0
 9002d16:	d114      	bne.n	9002d42 <trainerschool_selection_idle+0x3e>
 9002d18:	f000 f953 	bl	9002fc2 <trainerschool_selection_init+0x76>
 9002d1c:	8801      	ldrh	r1, [r0, #0]
 9002d1e:	1e4b      	subs	r3, r1, #1
 9002d20:	8003      	strh	r3, [r0, #0]
 9002d22:	4b7a      	ldr	r3, [pc, #488]	@ (9002f0c <trainerschool_selection_idle+0x208>)
 9002d24:	201c      	movs	r0, #28
 9002d26:	f000 f94b 	bl	9002fc0 <trainerschool_selection_init+0x74>
 9002d2a:	f000 f94a 	bl	9002fc2 <trainerschool_selection_init+0x76>
 9002d2e:	2308      	movs	r3, #8
 9002d30:	7083      	strb	r3, [r0, #2]
 9002d32:	4b77      	ldr	r3, [pc, #476]	@ (9002f10 <trainerschool_selection_idle+0x20c>)
 9002d34:	f000 f944 	bl	9002fc0 <trainerschool_selection_init+0x74>
 9002d38:	1e05      	subs	r5, r0, #0
 9002d3a:	d00c      	beq.n	9002d56 <trainerschool_selection_idle+0x52>
 9002d3c:	bcf8      	pop	{r3, r4, r5, r6, r7}
 9002d3e:	bc01      	pop	{r0}
 9002d40:	4700      	bx	r0
 9002d42:	f000 f93e 	bl	9002fc2 <trainerschool_selection_init+0x76>
 9002d46:	7883      	ldrb	r3, [r0, #2]
 9002d48:	3b01      	subs	r3, #1
 9002d4a:	7083      	strb	r3, [r0, #2]
 9002d4c:	4b70      	ldr	r3, [pc, #448]	@ (9002f10 <trainerschool_selection_idle+0x20c>)
 9002d4e:	f000 f937 	bl	9002fc0 <trainerschool_selection_init+0x74>
 9002d52:	1e05      	subs	r5, r0, #0
 9002d54:	d1f2      	bne.n	9002d3c <trainerschool_selection_idle+0x38>
 9002d56:	f000 f934 	bl	9002fc2 <trainerschool_selection_init+0x76>
 9002d5a:	222a      	movs	r2, #42	@ 0x2a
 9002d5c:	4b6d      	ldr	r3, [pc, #436]	@ (9002f14 <trainerschool_selection_idle+0x210>)
 9002d5e:	79c6      	ldrb	r6, [r0, #7]
 9002d60:	5c9b      	ldrb	r3, [r3, r2]
 9002d62:	2e00      	cmp	r6, #0
 9002d64:	d10c      	bne.n	9002d80 <trainerschool_selection_idle+0x7c>
 9002d66:	3a1a      	subs	r2, #26
 9002d68:	0017      	movs	r7, r2
 9002d6a:	401f      	ands	r7, r3
 9002d6c:	421a      	tst	r2, r3
 9002d6e:	d12b      	bne.n	9002dc8 <trainerschool_selection_idle+0xc4>
 9002d70:	069a      	lsls	r2, r3, #26
 9002d72:	d500      	bpl.n	9002d76 <trainerschool_selection_idle+0x72>
 9002d74:	e091      	b.n	9002e9a <trainerschool_selection_idle+0x196>
 9002d76:	07db      	lsls	r3, r3, #31
 9002d78:	d5e0      	bpl.n	9002d3c <trainerschool_selection_idle+0x38>
 9002d7a:	f7ff fffe 	bl	9002c30 <trainerschool_selection_select>
 9002d7e:	e7dd      	b.n	9002d3c <trainerschool_selection_idle+0x38>
 9002d80:	079a      	lsls	r2, r3, #30
 9002d82:	d450      	bmi.n	9002e26 <trainerschool_selection_idle+0x122>
 9002d84:	07db      	lsls	r3, r3, #31
 9002d86:	d5d9      	bpl.n	9002d3c <trainerschool_selection_idle+0x38>
 9002d88:	f000 f91b 	bl	9002fc2 <trainerschool_selection_init+0x76>
 9002d8c:	4d62      	ldr	r5, [pc, #392]	@ (9002f18 <trainerschool_selection_idle+0x214>)
 9002d8e:	78c6      	ldrb	r6, [r0, #3]
 9002d90:	4862      	ldr	r0, [pc, #392]	@ (9002f1c <trainerschool_selection_idle+0x218>)
 9002d92:	f000 f917 	bl	9002fc4 <trainerschool_selection_init+0x78>
 9002d96:	8006      	strh	r6, [r0, #0]
 9002d98:	f000 f913 	bl	9002fc2 <trainerschool_selection_init+0x76>
 9002d9c:	78c4      	ldrb	r4, [r0, #3]
 9002d9e:	4860      	ldr	r0, [pc, #384]	@ (9002f20 <trainerschool_selection_idle+0x21c>)
 9002da0:	f000 f910 	bl	9002fc4 <trainerschool_selection_init+0x78>
 9002da4:	4b5f      	ldr	r3, [pc, #380]	@ (9002f24 <trainerschool_selection_idle+0x220>)
 9002da6:	0064      	lsls	r4, r4, #1
 9002da8:	5ae3      	ldrh	r3, [r4, r3]
 9002daa:	8003      	strh	r3, [r0, #0]
 9002dac:	2005      	movs	r0, #5
 9002dae:	4b5e      	ldr	r3, [pc, #376]	@ (9002f28 <trainerschool_selection_idle+0x224>)
 9002db0:	f000 f906 	bl	9002fc0 <trainerschool_selection_init+0x74>
 9002db4:	2100      	movs	r1, #0
 9002db6:	2001      	movs	r0, #1
 9002db8:	4b5c      	ldr	r3, [pc, #368]	@ (9002f2c <trainerschool_selection_idle+0x228>)
 9002dba:	f000 f901 	bl	9002fc0 <trainerschool_selection_init+0x74>
 9002dbe:	485c      	ldr	r0, [pc, #368]	@ (9002f30 <trainerschool_selection_idle+0x22c>)
 9002dc0:	4b5c      	ldr	r3, [pc, #368]	@ (9002f34 <trainerschool_selection_idle+0x230>)
 9002dc2:	f000 f8fd 	bl	9002fc0 <trainerschool_selection_init+0x74>
 9002dc6:	e7b9      	b.n	9002d3c <trainerschool_selection_idle+0x38>
 9002dc8:	4b57      	ldr	r3, [pc, #348]	@ (9002f28 <trainerschool_selection_idle+0x224>)
 9002dca:	2005      	movs	r0, #5
 9002dcc:	f000 f8f8 	bl	9002fc0 <trainerschool_selection_init+0x74>
 9002dd0:	f7ff fffe 	bl	9002bd8 <trainerschool_selection_delete_species_text>
 9002dd4:	f000 f8f5 	bl	9002fc2 <trainerschool_selection_init+0x76>
 9002dd8:	0007      	movs	r7, r0
 9002dda:	f000 f8f2 	bl	9002fc2 <trainerschool_selection_init+0x76>
 9002dde:	78c3      	ldrb	r3, [r0, #3]
 9002de0:	18ff      	adds	r7, r7, r3
 9002de2:	793a      	ldrb	r2, [r7, #4]
 9002de4:	0113      	lsls	r3, r2, #4
 9002de6:	189b      	adds	r3, r3, r2
 9002de8:	4d53      	ldr	r5, [pc, #332]	@ (9002f38 <trainerschool_selection_idle+0x234>)
 9002dea:	009b      	lsls	r3, r3, #2
 9002dec:	18eb      	adds	r3, r5, r3
 9002dee:	865e      	strh	r6, [r3, #50]	@ 0x32
 9002df0:	f000 f8e7 	bl	9002fc2 <trainerschool_selection_init+0x76>
 9002df4:	78c3      	ldrb	r3, [r0, #3]
 9002df6:	3301      	adds	r3, #1
 9002df8:	70c3      	strb	r3, [r0, #3]
 9002dfa:	f000 f8e2 	bl	9002fc2 <trainerschool_selection_init+0x76>
 9002dfe:	78c3      	ldrb	r3, [r0, #3]
 9002e00:	2b03      	cmp	r3, #3
 9002e02:	d045      	beq.n	9002e90 <trainerschool_selection_idle+0x18c>
 9002e04:	f7ff fffe 	bl	9002714 <trainerschool_selection_show_species_text>
 9002e08:	f000 f8db 	bl	9002fc2 <trainerschool_selection_init+0x76>
 9002e0c:	0006      	movs	r6, r0
 9002e0e:	f000 f8d8 	bl	9002fc2 <trainerschool_selection_init+0x76>
 9002e12:	78c3      	ldrb	r3, [r0, #3]
 9002e14:	18f6      	adds	r6, r6, r3
 9002e16:	7932      	ldrb	r2, [r6, #4]
 9002e18:	0113      	lsls	r3, r2, #4
 9002e1a:	189b      	adds	r3, r3, r2
 9002e1c:	2201      	movs	r2, #1
 9002e1e:	009b      	lsls	r3, r3, #2
 9002e20:	18eb      	adds	r3, r5, r3
 9002e22:	865a      	strh	r2, [r3, #50]	@ 0x32
 9002e24:	e78a      	b.n	9002d3c <trainerschool_selection_idle+0x38>
 9002e26:	2005      	movs	r0, #5
 9002e28:	4b3f      	ldr	r3, [pc, #252]	@ (9002f28 <trainerschool_selection_idle+0x224>)
 9002e2a:	f000 f8c9 	bl	9002fc0 <trainerschool_selection_init+0x74>
 9002e2e:	2100      	movs	r1, #0
 9002e30:	2000      	movs	r0, #0
 9002e32:	4b42      	ldr	r3, [pc, #264]	@ (9002f3c <trainerschool_selection_idle+0x238>)
 9002e34:	f000 f8c4 	bl	9002fc0 <trainerschool_selection_init+0x74>
 9002e38:	2000      	movs	r0, #0
 9002e3a:	4b41      	ldr	r3, [pc, #260]	@ (9002f40 <trainerschool_selection_idle+0x23c>)
 9002e3c:	f000 f8c0 	bl	9002fc0 <trainerschool_selection_init+0x74>
 9002e40:	2103      	movs	r1, #3
 9002e42:	4b40      	ldr	r3, [pc, #256]	@ (9002f44 <trainerschool_selection_idle+0x240>)
 9002e44:	2000      	movs	r0, #0
 9002e46:	f000 f8bb 	bl	9002fc0 <trainerschool_selection_init+0x74>
 9002e4a:	f000 f8ba 	bl	9002fc2 <trainerschool_selection_init+0x76>
 9002e4e:	0007      	movs	r7, r0
 9002e50:	f000 f8b7 	bl	9002fc2 <trainerschool_selection_init+0x76>
 9002e54:	78c3      	ldrb	r3, [r0, #3]
 9002e56:	18ff      	adds	r7, r7, r3
 9002e58:	793a      	ldrb	r2, [r7, #4]
 9002e5a:	0113      	lsls	r3, r2, #4
 9002e5c:	189b      	adds	r3, r3, r2
 9002e5e:	4e36      	ldr	r6, [pc, #216]	@ (9002f38 <trainerschool_selection_idle+0x234>)
 9002e60:	009b      	lsls	r3, r3, #2
 9002e62:	18f3      	adds	r3, r6, r3
 9002e64:	332a      	adds	r3, #42	@ 0x2a
 9002e66:	701d      	strb	r5, [r3, #0]
 9002e68:	f000 f8ab 	bl	9002fc2 <trainerschool_selection_init+0x76>
 9002e6c:	0007      	movs	r7, r0
 9002e6e:	f000 f8a8 	bl	9002fc2 <trainerschool_selection_init+0x76>
 9002e72:	78c3      	ldrb	r3, [r0, #3]
 9002e74:	18ff      	adds	r7, r7, r3
 9002e76:	793b      	ldrb	r3, [r7, #4]
 9002e78:	0118      	lsls	r0, r3, #4
 9002e7a:	18c0      	adds	r0, r0, r3
 9002e7c:	0080      	lsls	r0, r0, #2
 9002e7e:	2100      	movs	r1, #0
 9002e80:	4b31      	ldr	r3, [pc, #196]	@ (9002f48 <trainerschool_selection_idle+0x244>)
 9002e82:	1980      	adds	r0, r0, r6
 9002e84:	f000 f89c 	bl	9002fc0 <trainerschool_selection_init+0x74>
 9002e88:	f000 f89b 	bl	9002fc2 <trainerschool_selection_init+0x76>
 9002e8c:	71c5      	strb	r5, [r0, #7]
 9002e8e:	e755      	b.n	9002d3c <trainerschool_selection_idle+0x38>
 9002e90:	f000 f897 	bl	9002fc2 <trainerschool_selection_init+0x76>
 9002e94:	2300      	movs	r3, #0
 9002e96:	70c3      	strb	r3, [r0, #3]
 9002e98:	e7b4      	b.n	9002e04 <trainerschool_selection_idle+0x100>
 9002e9a:	4b23      	ldr	r3, [pc, #140]	@ (9002f28 <trainerschool_selection_idle+0x224>)
 9002e9c:	2005      	movs	r0, #5
 9002e9e:	f000 f88f 	bl	9002fc0 <trainerschool_selection_init+0x74>
 9002ea2:	f7ff fffe 	bl	9002bd8 <trainerschool_selection_delete_species_text>
 9002ea6:	f000 f88c 	bl	9002fc2 <trainerschool_selection_init+0x76>
 9002eaa:	0006      	movs	r6, r0
 9002eac:	f000 f889 	bl	9002fc2 <trainerschool_selection_init+0x76>
 9002eb0:	78c3      	ldrb	r3, [r0, #3]
 9002eb2:	18f6      	adds	r6, r6, r3
 9002eb4:	7932      	ldrb	r2, [r6, #4]
 9002eb6:	0113      	lsls	r3, r2, #4
 9002eb8:	189b      	adds	r3, r3, r2
 9002eba:	4d1f      	ldr	r5, [pc, #124]	@ (9002f38 <trainerschool_selection_idle+0x234>)
 9002ebc:	009b      	lsls	r3, r3, #2
 9002ebe:	18eb      	adds	r3, r5, r3
 9002ec0:	865f      	strh	r7, [r3, #50]	@ 0x32
 9002ec2:	f000 f87e 	bl	9002fc2 <trainerschool_selection_init+0x76>
 9002ec6:	78c3      	ldrb	r3, [r0, #3]
 9002ec8:	3b01      	subs	r3, #1
 9002eca:	70c3      	strb	r3, [r0, #3]
 9002ecc:	f000 f879 	bl	9002fc2 <trainerschool_selection_init+0x76>
 9002ed0:	78c3      	ldrb	r3, [r0, #3]
 9002ed2:	2bff      	cmp	r3, #255	@ 0xff
 9002ed4:	d010      	beq.n	9002ef8 <trainerschool_selection_idle+0x1f4>
 9002ed6:	f7ff fffe 	bl	9002714 <trainerschool_selection_show_species_text>
 9002eda:	f000 f872 	bl	9002fc2 <trainerschool_selection_init+0x76>
 9002ede:	0006      	movs	r6, r0
 9002ee0:	f000 f86f 	bl	9002fc2 <trainerschool_selection_init+0x76>
 9002ee4:	78c3      	ldrb	r3, [r0, #3]
 9002ee6:	18f6      	adds	r6, r6, r3
 9002ee8:	7932      	ldrb	r2, [r6, #4]
 9002eea:	0113      	lsls	r3, r2, #4
 9002eec:	189b      	adds	r3, r3, r2
 9002eee:	009b      	lsls	r3, r3, #2
 9002ef0:	18ed      	adds	r5, r5, r3
 9002ef2:	2301      	movs	r3, #1
 9002ef4:	866b      	strh	r3, [r5, #50]	@ 0x32
 9002ef6:	e721      	b.n	9002d3c <trainerschool_selection_idle+0x38>
 9002ef8:	f000 f863 	bl	9002fc2 <trainerschool_selection_init+0x76>
 9002efc:	2302      	movs	r3, #2
 9002efe:	70c3      	strb	r3, [r0, #3]
 9002f00:	e7e9      	b.n	9002ed6 <trainerschool_selection_idle+0x1d2>
 9002f02:	46c0      	nop			@ (mov r8, r8)
	...
 9002f1c:	00004052 	.word	0x00004052
 9002f20:	0000800d 	.word	0x0000800d
 9002f24:	0001b094 	.word	0x0001b094
	...

09002f4c <trainerschool_selection_init>:
 9002f4c:	b510      	push	{r4, lr}
 9002f4e:	4b11      	ldr	r3, [pc, #68]	@ (9002f94 <trainerschool_selection_init+0x48>)
 9002f50:	f000 f836 	bl	9002fc0 <trainerschool_selection_init+0x74>
 9002f54:	4b10      	ldr	r3, [pc, #64]	@ (9002f98 <trainerschool_selection_init+0x4c>)
 9002f56:	2008      	movs	r0, #8
 9002f58:	f000 f832 	bl	9002fc0 <trainerschool_selection_init+0x74>
 9002f5c:	4b0f      	ldr	r3, [pc, #60]	@ (9002f9c <trainerschool_selection_init+0x50>)
 9002f5e:	f000 f82f 	bl	9002fc0 <trainerschool_selection_init+0x74>
 9002f62:	4b0f      	ldr	r3, [pc, #60]	@ (9002fa0 <trainerschool_selection_init+0x54>)
 9002f64:	f000 f82c 	bl	9002fc0 <trainerschool_selection_init+0x74>
 9002f68:	2301      	movs	r3, #1
 9002f6a:	2100      	movs	r1, #0
 9002f6c:	70c3      	strb	r3, [r0, #3]
 9002f6e:	2001      	movs	r0, #1
 9002f70:	4b0c      	ldr	r3, [pc, #48]	@ (9002fa4 <trainerschool_selection_init+0x58>)
 9002f72:	f000 f825 	bl	9002fc0 <trainerschool_selection_init+0x74>
 9002f76:	480c      	ldr	r0, [pc, #48]	@ (9002fa8 <trainerschool_selection_init+0x5c>)
 9002f78:	4b0c      	ldr	r3, [pc, #48]	@ (9002fac <trainerschool_selection_init+0x60>)
 9002f7a:	f000 f821 	bl	9002fc0 <trainerschool_selection_init+0x74>
 9002f7e:	480c      	ldr	r0, [pc, #48]	@ (9002fb0 <trainerschool_selection_init+0x64>)
 9002f80:	4b0c      	ldr	r3, [pc, #48]	@ (9002fb4 <trainerschool_selection_init+0x68>)
 9002f82:	f000 f81d 	bl	9002fc0 <trainerschool_selection_init+0x74>
 9002f86:	480c      	ldr	r0, [pc, #48]	@ (9002fb8 <trainerschool_selection_init+0x6c>)
 9002f88:	4b0c      	ldr	r3, [pc, #48]	@ (9002fbc <trainerschool_selection_init+0x70>)
 9002f8a:	f000 f819 	bl	9002fc0 <trainerschool_selection_init+0x74>
 9002f8e:	bc10      	pop	{r4}
 9002f90:	bc01      	pop	{r0}
 9002f92:	4700      	bx	r0
	...
 9002fb8:	00000916 	.word	0x00000916
 9002fbc:	00000000 	.word	0x00000000
 9002fc0:	4718      	bx	r3
 9002fc2:	4720      	bx	r4
 9002fc4:	4728      	bx	r5
 9002fc6:	4730      	bx	r6
 9002fc8:	4738      	bx	r7
 9002fca:	4740      	bx	r8
 9002fcc:	4750      	bx	sl
 9002fce:	4758      	bx	fp

09002fd0 <trainerschool_wildbattle_secondary_starter_prng>:
 9002fd0:	b510      	push	{r4, lr}
 9002fd2:	4b05      	ldr	r3, [pc, #20]	@ (9002fe8 <trainerschool_wildbattle_secondary_starter_prng+0x18>)
 9002fd4:	f000 f8c0 	bl	9003158 <trainerschool_wildbattle_initialize_secondary_starter+0x12c>
 9002fd8:	4b04      	ldr	r3, [pc, #16]	@ (9002fec <trainerschool_wildbattle_secondary_starter_prng+0x1c>)
 9002fda:	f000 f8bd 	bl	9003158 <trainerschool_wildbattle_initialize_secondary_starter+0x12c>
 9002fde:	0400      	lsls	r0, r0, #16
 9002fe0:	0c00      	lsrs	r0, r0, #16
 9002fe2:	bc10      	pop	{r4}
 9002fe4:	bc02      	pop	{r1}
 9002fe6:	4708      	bx	r1
	...

09002ff0 <trainerschool_wildbattle_secondary_starter_feature_generator>:
 9002ff0:	b510      	push	{r4, lr}
 9002ff2:	480a      	ldr	r0, [pc, #40]	@ (900301c <trainerschool_wildbattle_secondary_starter_feature_generator+0x2c>)
 9002ff4:	4b0a      	ldr	r3, [pc, #40]	@ (9003020 <trainerschool_wildbattle_secondary_starter_feature_generator+0x30>)
 9002ff6:	f000 f8af 	bl	9003158 <trainerschool_wildbattle_initialize_secondary_starter+0x12c>
 9002ffa:	8804      	ldrh	r4, [r0, #0]
 9002ffc:	2c00      	cmp	r4, #0
 9002ffe:	d103      	bne.n	9003008 <trainerschool_wildbattle_secondary_starter_feature_generator+0x18>
 9003000:	4808      	ldr	r0, [pc, #32]	@ (9003024 <trainerschool_wildbattle_secondary_starter_feature_generator+0x34>)
 9003002:	bc10      	pop	{r4}
 9003004:	bc02      	pop	{r1}
 9003006:	4708      	bx	r1
 9003008:	f7ff fffe 	bl	9002fd0 <trainerschool_wildbattle_secondary_starter_prng>
 900300c:	0021      	movs	r1, r4
 900300e:	4b06      	ldr	r3, [pc, #24]	@ (9003028 <trainerschool_wildbattle_secondary_starter_feature_generator+0x38>)
 9003010:	f000 f8a2 	bl	9003158 <trainerschool_wildbattle_initialize_secondary_starter+0x12c>
 9003014:	0400      	lsls	r0, r0, #16
 9003016:	0c00      	lsrs	r0, r0, #16
 9003018:	e7f3      	b.n	9003002 <trainerschool_wildbattle_secondary_starter_feature_generator+0x12>
 900301a:	46c0      	nop			@ (mov r8, r8)
 900301c:	000050f4 	.word	0x000050f4
 9003020:	00000000 	.word	0x00000000
 9003024:	000001ff 	.word	0x000001ff
 9003028:	00000000 	.word	0x00000000

0900302c <trainerschool_wildbattle_initialize_secondary_starter>:
 900302c:	b5f0      	push	{r4, r5, r6, r7, lr}
 900302e:	4837      	ldr	r0, [pc, #220]	@ (900310c <trainerschool_wildbattle_initialize_secondary_starter+0xe0>)
 9003030:	4c37      	ldr	r4, [pc, #220]	@ (9003110 <trainerschool_wildbattle_initialize_secondary_starter+0xe4>)
 9003032:	b089      	sub	sp, #36	@ 0x24
 9003034:	f000 f891 	bl	900315a <trainerschool_wildbattle_initialize_secondary_starter+0x12e>
 9003038:	8803      	ldrh	r3, [r0, #0]
 900303a:	2000      	movs	r0, #0
 900303c:	2b06      	cmp	r3, #6
 900303e:	d003      	beq.n	9003048 <trainerschool_wildbattle_initialize_secondary_starter+0x1c>
 9003040:	b009      	add	sp, #36	@ 0x24
 9003042:	bcf0      	pop	{r4, r5, r6, r7}
 9003044:	bc02      	pop	{r1}
 9003046:	4708      	bx	r1
 9003048:	4832      	ldr	r0, [pc, #200]	@ (9003114 <trainerschool_wildbattle_initialize_secondary_starter+0xe8>)
 900304a:	f000 f886 	bl	900315a <trainerschool_wildbattle_initialize_secondary_starter+0x12e>
 900304e:	8803      	ldrh	r3, [r0, #0]
 9003050:	2b02      	cmp	r3, #2
 9003052:	d83c      	bhi.n	90030ce <trainerschool_wildbattle_initialize_secondary_starter+0xa2>
 9003054:	4a30      	ldr	r2, [pc, #192]	@ (9003118 <trainerschool_wildbattle_initialize_secondary_starter+0xec>)
 9003056:	005b      	lsls	r3, r3, #1
 9003058:	5a9e      	ldrh	r6, [r3, r2]
 900305a:	4b30      	ldr	r3, [pc, #192]	@ (900311c <trainerschool_wildbattle_initialize_secondary_starter+0xf0>)
 900305c:	f000 f87c 	bl	9003158 <trainerschool_wildbattle_initialize_secondary_starter+0x12c>
 9003060:	4b2f      	ldr	r3, [pc, #188]	@ (9003120 <trainerschool_wildbattle_initialize_secondary_starter+0xf4>)
 9003062:	2004      	movs	r0, #4
 9003064:	f000 f878 	bl	9003158 <trainerschool_wildbattle_initialize_secondary_starter+0x12c>
 9003068:	4b2e      	ldr	r3, [pc, #184]	@ (9003124 <trainerschool_wildbattle_initialize_secondary_starter+0xf8>)
 900306a:	681b      	ldr	r3, [r3, #0]
 900306c:	895a      	ldrh	r2, [r3, #10]
 900306e:	899b      	ldrh	r3, [r3, #12]
 9003070:	041b      	lsls	r3, r3, #16
 9003072:	4313      	orrs	r3, r2
 9003074:	6003      	str	r3, [r0, #0]
 9003076:	4b2c      	ldr	r3, [pc, #176]	@ (9003128 <trainerschool_wildbattle_initialize_secondary_starter+0xfc>)
 9003078:	0005      	movs	r5, r0
 900307a:	f000 f86d 	bl	9003158 <trainerschool_wildbattle_initialize_secondary_starter+0x12c>
 900307e:	f7ff fffe 	bl	9002ff0 <trainerschool_wildbattle_secondary_starter_feature_generator>
 9003082:	0007      	movs	r7, r0
 9003084:	f7ff fffe 	bl	9002ff0 <trainerschool_wildbattle_secondary_starter_feature_generator>
 9003088:	4b28      	ldr	r3, [pc, #160]	@ (900312c <trainerschool_wildbattle_initialize_secondary_starter+0x100>)
 900308a:	9305      	str	r3, [sp, #20]
 900308c:	4b28      	ldr	r3, [pc, #160]	@ (9003130 <trainerschool_wildbattle_initialize_secondary_starter+0x104>)
 900308e:	9304      	str	r3, [sp, #16]
 9003090:	2300      	movs	r3, #0
 9003092:	0400      	lsls	r0, r0, #16
 9003094:	4338      	orrs	r0, r7
 9003096:	4f27      	ldr	r7, [pc, #156]	@ (9003134 <trainerschool_wildbattle_initialize_secondary_starter+0x108>)
 9003098:	9303      	str	r3, [sp, #12]
 900309a:	9302      	str	r3, [sp, #8]
 900309c:	3301      	adds	r3, #1
 900309e:	0031      	movs	r1, r6
 90030a0:	2205      	movs	r2, #5
 90030a2:	9001      	str	r0, [sp, #4]
 90030a4:	9300      	str	r3, [sp, #0]
 90030a6:	0038      	movs	r0, r7
 90030a8:	331f      	adds	r3, #31
 90030aa:	4e23      	ldr	r6, [pc, #140]	@ (9003138 <trainerschool_wildbattle_initialize_secondary_starter+0x10c>)
 90030ac:	f000 f856 	bl	900315c <trainerschool_wildbattle_initialize_secondary_starter+0x130>
 90030b0:	4822      	ldr	r0, [pc, #136]	@ (900313c <trainerschool_wildbattle_initialize_secondary_starter+0x110>)
 90030b2:	f000 f852 	bl	900315a <trainerschool_wildbattle_initialize_secondary_starter+0x12e>
 90030b6:	8803      	ldrh	r3, [r0, #0]
 90030b8:	2b0a      	cmp	r3, #10
 90030ba:	d013      	beq.n	90030e4 <trainerschool_wildbattle_initialize_secondary_starter+0xb8>
 90030bc:	4b20      	ldr	r3, [pc, #128]	@ (9003140 <trainerschool_wildbattle_initialize_secondary_starter+0x114>)
 90030be:	f000 f84b 	bl	9003158 <trainerschool_wildbattle_initialize_secondary_starter+0x12c>
 90030c2:	0028      	movs	r0, r5
 90030c4:	4b1f      	ldr	r3, [pc, #124]	@ (9003144 <trainerschool_wildbattle_initialize_secondary_starter+0x118>)
 90030c6:	f000 f847 	bl	9003158 <trainerschool_wildbattle_initialize_secondary_starter+0x12c>
 90030ca:	2001      	movs	r0, #1
 90030cc:	e7b8      	b.n	9003040 <trainerschool_wildbattle_initialize_secondary_starter+0x14>
 90030ce:	4811      	ldr	r0, [pc, #68]	@ (9003114 <trainerschool_wildbattle_initialize_secondary_starter+0xe8>)
 90030d0:	f000 f843 	bl	900315a <trainerschool_wildbattle_initialize_secondary_starter+0x12e>
 90030d4:	491c      	ldr	r1, [pc, #112]	@ (9003148 <trainerschool_wildbattle_initialize_secondary_starter+0x11c>)
 90030d6:	8802      	ldrh	r2, [r0, #0]
 90030d8:	4b1c      	ldr	r3, [pc, #112]	@ (900314c <trainerschool_wildbattle_initialize_secondary_starter+0x120>)
 90030da:	2001      	movs	r0, #1
 90030dc:	f000 f83c 	bl	9003158 <trainerschool_wildbattle_initialize_secondary_starter+0x12c>
 90030e0:	2600      	movs	r6, #0
 90030e2:	e7ba      	b.n	900305a <trainerschool_wildbattle_initialize_secondary_starter+0x2e>
 90030e4:	2200      	movs	r2, #0
 90030e6:	2100      	movs	r1, #0
 90030e8:	0038      	movs	r0, r7
 90030ea:	4b19      	ldr	r3, [pc, #100]	@ (9003150 <trainerschool_wildbattle_initialize_secondary_starter+0x124>)
 90030ec:	f000 f834 	bl	9003158 <trainerschool_wildbattle_initialize_secondary_starter+0x12c>
 90030f0:	2201      	movs	r2, #1
 90030f2:	0a03      	lsrs	r3, r0, #8
 90030f4:	4313      	orrs	r3, r2
 90030f6:	221d      	movs	r2, #29
 90030f8:	446a      	add	r2, sp
 90030fa:	9007      	str	r0, [sp, #28]
 90030fc:	2100      	movs	r1, #0
 90030fe:	7013      	strb	r3, [r2, #0]
 9003100:	0038      	movs	r0, r7
 9003102:	4b14      	ldr	r3, [pc, #80]	@ (9003154 <trainerschool_wildbattle_initialize_secondary_starter+0x128>)
 9003104:	aa07      	add	r2, sp, #28
 9003106:	f000 f827 	bl	9003158 <trainerschool_wildbattle_initialize_secondary_starter+0x12c>
 900310a:	e7d7      	b.n	90030bc <trainerschool_wildbattle_initialize_secondary_starter+0x90>
 900310c:	000050cb 	.word	0x000050cb
 9003110:	00000000 	.word	0x00000000
 9003114:	00004052 	.word	0x00004052
 9003118:	00004788 	.word	0x00004788
	...
 900313c:	000050f4 	.word	0x000050f4
	...
 9003148:	00000390 	.word	0x00000390
	...
 9003158:	4718      	bx	r3
 900315a:	4720      	bx	r4
 900315c:	4730      	bx	r6
 900315e:	46c0      	nop			@ (mov r8, r8)

09003160 <trainerschool_test_done>:
 9003160:	b510      	push	{r4, lr}
 9003162:	4b09      	ldr	r3, [pc, #36]	@ (9003188 <trainerschool_test_done+0x28>)
 9003164:	f000 fcc6 	bl	9003af4 <trainerschool_exam_init+0x70>
 9003168:	4b08      	ldr	r3, [pc, #32]	@ (900318c <trainerschool_test_done+0x2c>)
 900316a:	f000 fcc3 	bl	9003af4 <trainerschool_exam_init+0x70>
 900316e:	2800      	cmp	r0, #0
 9003170:	d002      	beq.n	9003178 <trainerschool_test_done+0x18>
 9003172:	bc10      	pop	{r4}
 9003174:	bc01      	pop	{r0}
 9003176:	4700      	bx	r0
 9003178:	4b05      	ldr	r3, [pc, #20]	@ (9003190 <trainerschool_test_done+0x30>)
 900317a:	f000 fcbb 	bl	9003af4 <trainerschool_exam_init+0x70>
 900317e:	4805      	ldr	r0, [pc, #20]	@ (9003194 <trainerschool_test_done+0x34>)
 9003180:	4b05      	ldr	r3, [pc, #20]	@ (9003198 <trainerschool_test_done+0x38>)
 9003182:	f000 fcb7 	bl	9003af4 <trainerschool_exam_init+0x70>
 9003186:	e7f4      	b.n	9003172 <trainerschool_test_done+0x12>
	...

0900319c <trainerschool_times_up>:
 900319c:	4b0d      	ldr	r3, [pc, #52]	@ (90031d4 <trainerschool_times_up+0x38>)
 900319e:	b510      	push	{r4, lr}
 90031a0:	f000 fca8 	bl	9003af4 <trainerschool_exam_init+0x70>
 90031a4:	4b0c      	ldr	r3, [pc, #48]	@ (90031d8 <trainerschool_times_up+0x3c>)
 90031a6:	79db      	ldrb	r3, [r3, #7]
 90031a8:	2b7f      	cmp	r3, #127	@ 0x7f
 90031aa:	d806      	bhi.n	90031ba <trainerschool_times_up+0x1e>
 90031ac:	4b0b      	ldr	r3, [pc, #44]	@ (90031dc <trainerschool_times_up+0x40>)
 90031ae:	69da      	ldr	r2, [r3, #28]
 90031b0:	8893      	ldrh	r3, [r2, #4]
 90031b2:	2b00      	cmp	r3, #0
 90031b4:	d004      	beq.n	90031c0 <trainerschool_times_up+0x24>
 90031b6:	3b01      	subs	r3, #1
 90031b8:	8093      	strh	r3, [r2, #4]
 90031ba:	bc10      	pop	{r4}
 90031bc:	bc01      	pop	{r0}
 90031be:	4700      	bx	r0
 90031c0:	2100      	movs	r1, #0
 90031c2:	2001      	movs	r0, #1
 90031c4:	4b06      	ldr	r3, [pc, #24]	@ (90031e0 <trainerschool_times_up+0x44>)
 90031c6:	f000 fc95 	bl	9003af4 <trainerschool_exam_init+0x70>
 90031ca:	4806      	ldr	r0, [pc, #24]	@ (90031e4 <trainerschool_times_up+0x48>)
 90031cc:	4b06      	ldr	r3, [pc, #24]	@ (90031e8 <trainerschool_times_up+0x4c>)
 90031ce:	f000 fc91 	bl	9003af4 <trainerschool_exam_init+0x70>
 90031d2:	e7f2      	b.n	90031ba <trainerschool_times_up+0x1e>
	...

090031ec <trainerschool_clock_callback>:
 90031ec:	b5f0      	push	{r4, r5, r6, r7, lr}
 90031ee:	46c6      	mov	lr, r8
 90031f0:	b500      	push	{lr}
 90031f2:	4e2f      	ldr	r6, [pc, #188]	@ (90032b0 <trainerschool_clock_callback+0xc4>)
 90031f4:	69f3      	ldr	r3, [r6, #28]
 90031f6:	7a9f      	ldrb	r7, [r3, #10]
 90031f8:	0004      	movs	r4, r0
 90031fa:	2f00      	cmp	r7, #0
 90031fc:	d004      	beq.n	9003208 <trainerschool_clock_callback+0x1c>
 90031fe:	bc80      	pop	{r7}
 9003200:	46b8      	mov	r8, r7
 9003202:	bcf0      	pop	{r4, r5, r6, r7}
 9003204:	bc01      	pop	{r0}
 9003206:	4700      	bx	r0
 9003208:	891b      	ldrh	r3, [r3, #8]
 900320a:	21e1      	movs	r1, #225	@ 0xe1
 900320c:	4698      	mov	r8, r3
 900320e:	0089      	lsls	r1, r1, #2
 9003210:	4b28      	ldr	r3, [pc, #160]	@ (90032b4 <trainerschool_clock_callback+0xc8>)
 9003212:	4640      	mov	r0, r8
 9003214:	f000 fc6e 	bl	9003af4 <trainerschool_exam_init+0x70>
 9003218:	4642      	mov	r2, r8
 900321a:	4b27      	ldr	r3, [pc, #156]	@ (90032b8 <trainerschool_clock_callback+0xcc>)
 900321c:	0605      	lsls	r5, r0, #24
 900321e:	4927      	ldr	r1, [pc, #156]	@ (90032bc <trainerschool_clock_callback+0xd0>)
 9003220:	2004      	movs	r0, #4
 9003222:	f000 fc67 	bl	9003af4 <trainerschool_exam_init+0x70>
 9003226:	232a      	movs	r3, #42	@ 0x2a
 9003228:	5ce2      	ldrb	r2, [r4, r3]
 900322a:	0e2d      	lsrs	r5, r5, #24
 900322c:	42aa      	cmp	r2, r5
 900322e:	d005      	beq.n	900323c <trainerschool_clock_callback+0x50>
 9003230:	54e5      	strb	r5, [r4, r3]
 9003232:	2100      	movs	r1, #0
 9003234:	0020      	movs	r0, r4
 9003236:	4b22      	ldr	r3, [pc, #136]	@ (90032c0 <trainerschool_clock_callback+0xd4>)
 9003238:	f000 fc5c 	bl	9003af4 <trainerschool_exam_init+0x70>
 900323c:	233f      	movs	r3, #63	@ 0x3f
 900323e:	8e65      	ldrh	r5, [r4, #50]	@ 0x32
 9003240:	1c6a      	adds	r2, r5, #1
 9003242:	4013      	ands	r3, r2
 9003244:	8663      	strh	r3, [r4, #50]	@ 0x32
 9003246:	69f2      	ldr	r2, [r6, #28]
 9003248:	4b1e      	ldr	r3, [pc, #120]	@ (90032c4 <trainerschool_clock_callback+0xd8>)
 900324a:	8912      	ldrh	r2, [r2, #8]
 900324c:	429a      	cmp	r2, r3
 900324e:	d9d6      	bls.n	90031fe <trainerschool_clock_callback+0x12>
 9003250:	4b1d      	ldr	r3, [pc, #116]	@ (90032c8 <trainerschool_clock_callback+0xdc>)
 9003252:	79db      	ldrb	r3, [r3, #7]
 9003254:	2b7f      	cmp	r3, #127	@ 0x7f
 9003256:	d908      	bls.n	900326a <trainerschool_clock_callback+0x7e>
 9003258:	4e1c      	ldr	r6, [pc, #112]	@ (90032cc <trainerschool_clock_callback+0xe0>)
 900325a:	200f      	movs	r0, #15
 900325c:	4028      	ands	r0, r5
 900325e:	2103      	movs	r1, #3
 9003260:	0100      	lsls	r0, r0, #4
 9003262:	f000 fc4a 	bl	9003afa <trainerschool_exam_init+0x76>
 9003266:	84a0      	strh	r0, [r4, #36]	@ 0x24
 9003268:	e7c9      	b.n	90031fe <trainerschool_clock_callback+0x12>
 900326a:	00ab      	lsls	r3, r5, #2
 900326c:	041b      	lsls	r3, r3, #16
 900326e:	141b      	asrs	r3, r3, #16
 9003270:	2104      	movs	r1, #4
 9003272:	0018      	movs	r0, r3
 9003274:	4e15      	ldr	r6, [pc, #84]	@ (90032cc <trainerschool_clock_callback+0xe0>)
 9003276:	4698      	mov	r8, r3
 9003278:	f000 fc3f 	bl	9003afa <trainerschool_exam_init+0x76>
 900327c:	3004      	adds	r0, #4
 900327e:	da0e      	bge.n	900329e <trainerschool_clock_callback+0xb2>
 9003280:	6963      	ldr	r3, [r4, #20]
 9003282:	8858      	ldrh	r0, [r3, #2]
 9003284:	4b12      	ldr	r3, [pc, #72]	@ (90032d0 <trainerschool_clock_callback+0xe4>)
 9003286:	f000 fc35 	bl	9003af4 <trainerschool_exam_init+0x70>
 900328a:	3010      	adds	r0, #16
 900328c:	0500      	lsls	r0, r0, #20
 900328e:	003a      	movs	r2, r7
 9003290:	231f      	movs	r3, #31
 9003292:	2110      	movs	r1, #16
 9003294:	4f0f      	ldr	r7, [pc, #60]	@ (90032d4 <trainerschool_clock_callback+0xe8>)
 9003296:	0c00      	lsrs	r0, r0, #16
 9003298:	f000 fc30 	bl	9003afc <trainerschool_exam_init+0x78>
 900329c:	e7dd      	b.n	900325a <trainerschool_clock_callback+0x6e>
 900329e:	2104      	movs	r1, #4
 90032a0:	4640      	mov	r0, r8
 90032a2:	f000 fc2a 	bl	9003afa <trainerschool_exam_init+0x76>
 90032a6:	3004      	adds	r0, #4
 90032a8:	0607      	lsls	r7, r0, #24
 90032aa:	0e3f      	lsrs	r7, r7, #24
 90032ac:	e7e8      	b.n	9003280 <trainerschool_clock_callback+0x94>
 90032ae:	46c0      	nop			@ (mov r8, r8)
	...
 90032bc:	000003b4 	.word	0x000003b4
 90032c0:	00000000 	.word	0x00000000
 90032c4:	00000ca7 	.word	0x00000ca7
	...

090032d8 <trainerschool_test_load_answers>:
 90032d8:	b5f0      	push	{r4, r5, r6, r7, lr}
 90032da:	46de      	mov	lr, fp
 90032dc:	4645      	mov	r5, r8
 90032de:	4657      	mov	r7, sl
 90032e0:	464e      	mov	r6, r9
 90032e2:	4b39      	ldr	r3, [pc, #228]	@ (90033c8 <trainerschool_test_load_answers+0xf0>)
 90032e4:	b5e0      	push	{r5, r6, r7, lr}
 90032e6:	469a      	mov	sl, r3
 90032e8:	69db      	ldr	r3, [r3, #28]
 90032ea:	781d      	ldrb	r5, [r3, #0]
 90032ec:	4b37      	ldr	r3, [pc, #220]	@ (90033cc <trainerschool_test_load_answers+0xf4>)
 90032ee:	b091      	sub	sp, #68	@ 0x44
 90032f0:	002a      	movs	r2, r5
 90032f2:	4937      	ldr	r1, [pc, #220]	@ (90033d0 <trainerschool_test_load_answers+0xf8>)
 90032f4:	2004      	movs	r0, #4
 90032f6:	4699      	mov	r9, r3
 90032f8:	f000 fbfc 	bl	9003af4 <trainerschool_exam_init+0x70>
 90032fc:	4b35      	ldr	r3, [pc, #212]	@ (90033d4 <trainerschool_test_load_answers+0xfc>)
 90032fe:	9308      	str	r3, [sp, #32]
 9003300:	4b35      	ldr	r3, [pc, #212]	@ (90033d8 <trainerschool_test_load_answers+0x100>)
 9003302:	9309      	str	r3, [sp, #36]	@ 0x24
 9003304:	4b35      	ldr	r3, [pc, #212]	@ (90033dc <trainerschool_test_load_answers+0x104>)
 9003306:	930a      	str	r3, [sp, #40]	@ 0x28
 9003308:	006b      	lsls	r3, r5, #1
 900330a:	195b      	adds	r3, r3, r5
 900330c:	009b      	lsls	r3, r3, #2
 900330e:	469c      	mov	ip, r3
 9003310:	4933      	ldr	r1, [pc, #204]	@ (90033e0 <trainerschool_test_load_answers+0x108>)
 9003312:	4688      	mov	r8, r1
 9003314:	4933      	ldr	r1, [pc, #204]	@ (90033e4 <trainerschool_test_load_answers+0x10c>)
 9003316:	4a34      	ldr	r2, [pc, #208]	@ (90033e8 <trainerschool_test_load_answers+0x110>)
 9003318:	910c      	str	r1, [sp, #48]	@ 0x30
 900331a:	4934      	ldr	r1, [pc, #208]	@ (90033ec <trainerschool_test_load_answers+0x114>)
 900331c:	920b      	str	r2, [sp, #44]	@ 0x2c
 900331e:	4462      	add	r2, ip
 9003320:	2400      	movs	r4, #0
 9003322:	4693      	mov	fp, r2
 9003324:	9307      	str	r3, [sp, #28]
 9003326:	910d      	str	r1, [sp, #52]	@ 0x34
 9003328:	e024      	b.n	9003374 <trainerschool_test_load_answers+0x9c>
 900332a:	4653      	mov	r3, sl
 900332c:	69db      	ldr	r3, [r3, #28]
 900332e:	785b      	ldrb	r3, [r3, #1]
 9003330:	4641      	mov	r1, r8
 9003332:	42a3      	cmp	r3, r4
 9003334:	d000      	beq.n	9003338 <trainerschool_test_load_answers+0x60>
 9003336:	3104      	adds	r1, #4
 9003338:	4e2d      	ldr	r6, [pc, #180]	@ (90033f0 <trainerschool_test_load_answers+0x118>)
 900333a:	4b2e      	ldr	r3, [pc, #184]	@ (90033f4 <trainerschool_test_load_answers+0x11c>)
 900333c:	0030      	movs	r0, r6
 900333e:	f000 fbd9 	bl	9003af4 <trainerschool_exam_init+0x70>
 9003342:	465b      	mov	r3, fp
 9003344:	689b      	ldr	r3, [r3, #8]
 9003346:	00a4      	lsls	r4, r4, #2
 9003348:	58e1      	ldr	r1, [r4, r3]
 900334a:	0030      	movs	r0, r6
 900334c:	4b2a      	ldr	r3, [pc, #168]	@ (90033f8 <trainerschool_test_load_answers+0x120>)
 900334e:	f000 fbd1 	bl	9003af4 <trainerschool_exam_init+0x70>
 9003352:	9604      	str	r6, [sp, #16]
 9003354:	4642      	mov	r2, r8
 9003356:	2300      	movs	r3, #0
 9003358:	3208      	adds	r2, #8
 900335a:	9202      	str	r2, [sp, #8]
 900335c:	9c0c      	ldr	r4, [sp, #48]	@ 0x30
 900335e:	2200      	movs	r2, #0
 9003360:	2102      	movs	r1, #2
 9003362:	0028      	movs	r0, r5
 9003364:	9303      	str	r3, [sp, #12]
 9003366:	9301      	str	r3, [sp, #4]
 9003368:	9300      	str	r3, [sp, #0]
 900336a:	f000 fbc4 	bl	9003af6 <trainerschool_exam_init+0x72>
 900336e:	003c      	movs	r4, r7
 9003370:	2f05      	cmp	r7, #5
 9003372:	d020      	beq.n	90033b6 <trainerschool_test_load_answers+0xde>
 9003374:	1c67      	adds	r7, r4, #1
 9003376:	063d      	lsls	r5, r7, #24
 9003378:	0022      	movs	r2, r4
 900337a:	2004      	movs	r0, #4
 900337c:	9908      	ldr	r1, [sp, #32]
 900337e:	0e2d      	lsrs	r5, r5, #24
 9003380:	f000 fbbe 	bl	9003b00 <trainerschool_exam_init+0x7c>
 9003384:	2100      	movs	r1, #0
 9003386:	0028      	movs	r0, r5
 9003388:	9b09      	ldr	r3, [sp, #36]	@ 0x24
 900338a:	f000 fbb3 	bl	9003af4 <trainerschool_exam_init+0x70>
 900338e:	9b0a      	ldr	r3, [sp, #40]	@ 0x28
 9003390:	0028      	movs	r0, r5
 9003392:	f000 fbaf 	bl	9003af4 <trainerschool_exam_init+0x70>
 9003396:	9b0b      	ldr	r3, [sp, #44]	@ 0x2c
 9003398:	9a07      	ldr	r2, [sp, #28]
 900339a:	5c9b      	ldrb	r3, [r3, r2]
 900339c:	42a3      	cmp	r3, r4
 900339e:	dcc4      	bgt.n	900332a <trainerschool_test_load_answers+0x52>
 90033a0:	0022      	movs	r2, r4
 90033a2:	2004      	movs	r0, #4
 90033a4:	990d      	ldr	r1, [sp, #52]	@ 0x34
 90033a6:	f000 fbab 	bl	9003b00 <trainerschool_exam_init+0x7c>
 90033aa:	4a14      	ldr	r2, [pc, #80]	@ (90033fc <trainerschool_test_load_answers+0x124>)
 90033ac:	7812      	ldrb	r2, [r2, #0]
 90033ae:	ab0f      	add	r3, sp, #60	@ 0x3c
 90033b0:	701a      	strb	r2, [r3, #0]
 90033b2:	9304      	str	r3, [sp, #16]
 90033b4:	e7ce      	b.n	9003354 <trainerschool_test_load_answers+0x7c>
 90033b6:	b011      	add	sp, #68	@ 0x44
 90033b8:	bcf0      	pop	{r4, r5, r6, r7}
 90033ba:	46bb      	mov	fp, r7
 90033bc:	46b2      	mov	sl, r6
 90033be:	46a9      	mov	r9, r5
 90033c0:	46a0      	mov	r8, r4
 90033c2:	bcf0      	pop	{r4, r5, r6, r7}
 90033c4:	bc01      	pop	{r0}
 90033c6:	4700      	bx	r0
	...
 90033d0:	000003c0 	.word	0x000003c0
 90033d4:	000003d0 	.word	0x000003d0
	...
 90033e0:	0001b1b4 	.word	0x0001b1b4
 90033e4:	00000000 	.word	0x00000000
 90033e8:	0006415c 	.word	0x0006415c
 90033ec:	000003e4 	.word	0x000003e4
	...
 90033fc:	000003f8 	.word	0x000003f8

09003400 <trainerschool_test_idle>:
 9003400:	b5f8      	push	{r3, r4, r5, r6, r7, lr}
 9003402:	4b48      	ldr	r3, [pc, #288]	@ (9003524 <trainerschool_test_idle+0x124>)
 9003404:	f000 fb76 	bl	9003af4 <trainerschool_exam_init+0x70>
 9003408:	22e1      	movs	r2, #225	@ 0xe1
 900340a:	4d47      	ldr	r5, [pc, #284]	@ (9003528 <trainerschool_test_idle+0x128>)
 900340c:	69ec      	ldr	r4, [r5, #28]
 900340e:	8923      	ldrh	r3, [r4, #8]
 9003410:	3301      	adds	r3, #1
 9003412:	041b      	lsls	r3, r3, #16
 9003414:	0c1b      	lsrs	r3, r3, #16
 9003416:	8123      	strh	r3, [r4, #8]
 9003418:	0112      	lsls	r2, r2, #4
 900341a:	4293      	cmp	r3, r2
 900341c:	d257      	bcs.n	90034ce <trainerschool_test_idle+0xce>
 900341e:	222a      	movs	r2, #42	@ 0x2a
 9003420:	4b42      	ldr	r3, [pc, #264]	@ (900352c <trainerschool_test_idle+0x12c>)
 9003422:	5c9b      	ldrb	r3, [r3, r2]
 9003424:	061a      	lsls	r2, r3, #24
 9003426:	d43d      	bmi.n	90034a4 <trainerschool_test_idle+0xa4>
 9003428:	2240      	movs	r2, #64	@ 0x40
 900342a:	0016      	movs	r6, r2
 900342c:	401e      	ands	r6, r3
 900342e:	421a      	tst	r2, r3
 9003430:	d00f      	beq.n	9003452 <trainerschool_test_idle+0x52>
 9003432:	7863      	ldrb	r3, [r4, #1]
 9003434:	2b00      	cmp	r3, #0
 9003436:	d057      	beq.n	90034e8 <trainerschool_test_idle+0xe8>
 9003438:	3b01      	subs	r3, #1
 900343a:	061b      	lsls	r3, r3, #24
 900343c:	0e1b      	lsrs	r3, r3, #24
 900343e:	2005      	movs	r0, #5
 9003440:	7063      	strb	r3, [r4, #1]
 9003442:	4b3b      	ldr	r3, [pc, #236]	@ (9003530 <trainerschool_test_idle+0x130>)
 9003444:	f000 fb56 	bl	9003af4 <trainerschool_exam_init+0x70>
 9003448:	f7ff fffe 	bl	90032d8 <trainerschool_test_load_answers>
 900344c:	bcf8      	pop	{r3, r4, r5, r6, r7}
 900344e:	bc01      	pop	{r0}
 9003450:	4700      	bx	r0
 9003452:	07db      	lsls	r3, r3, #31
 9003454:	d5fa      	bpl.n	900344c <trainerschool_test_idle+0x4c>
 9003456:	7820      	ldrb	r0, [r4, #0]
 9003458:	0041      	lsls	r1, r0, #1
 900345a:	4b36      	ldr	r3, [pc, #216]	@ (9003534 <trainerschool_test_idle+0x134>)
 900345c:	1809      	adds	r1, r1, r0
 900345e:	0089      	lsls	r1, r1, #2
 9003460:	7862      	ldrb	r2, [r4, #1]
 9003462:	185b      	adds	r3, r3, r1
 9003464:	785b      	ldrb	r3, [r3, #1]
 9003466:	0117      	lsls	r7, r2, #4
 9003468:	3753      	adds	r7, #83	@ 0x53
 900346a:	4293      	cmp	r3, r2
 900346c:	d046      	beq.n	90034fc <trainerschool_test_idle+0xfc>
 900346e:	2010      	movs	r0, #16
 9003470:	4b31      	ldr	r3, [pc, #196]	@ (9003538 <trainerschool_test_idle+0x138>)
 9003472:	30ff      	adds	r0, #255	@ 0xff
 9003474:	f000 fb3e 	bl	9003af4 <trainerschool_exam_init+0x70>
 9003478:	200c      	movs	r0, #12
 900347a:	4b2d      	ldr	r3, [pc, #180]	@ (9003530 <trainerschool_test_idle+0x130>)
 900347c:	f000 fb3a 	bl	9003af4 <trainerschool_exam_init+0x70>
 9003480:	69ec      	ldr	r4, [r5, #28]
 9003482:	482e      	ldr	r0, [pc, #184]	@ (900353c <trainerschool_test_idle+0x13c>)
 9003484:	003a      	movs	r2, r7
 9003486:	2300      	movs	r3, #0
 9003488:	21a8      	movs	r1, #168	@ 0xa8
 900348a:	4f2d      	ldr	r7, [pc, #180]	@ (9003540 <trainerschool_test_idle+0x140>)
 900348c:	f000 fb36 	bl	9003afc <trainerschool_exam_init+0x78>
 9003490:	22c0      	movs	r2, #192	@ 0xc0
 9003492:	70a0      	strb	r0, [r4, #2]
 9003494:	69eb      	ldr	r3, [r5, #28]
 9003496:	482b      	ldr	r0, [pc, #172]	@ (9003544 <trainerschool_test_idle+0x144>)
 9003498:	809a      	strh	r2, [r3, #4]
 900349a:	719e      	strb	r6, [r3, #6]
 900349c:	4b2a      	ldr	r3, [pc, #168]	@ (9003548 <trainerschool_test_idle+0x148>)
 900349e:	f000 fb29 	bl	9003af4 <trainerschool_exam_init+0x70>
 90034a2:	e7d3      	b.n	900344c <trainerschool_test_idle+0x4c>
 90034a4:	7821      	ldrb	r1, [r4, #0]
 90034a6:	7860      	ldrb	r0, [r4, #1]
 90034a8:	004b      	lsls	r3, r1, #1
 90034aa:	4a22      	ldr	r2, [pc, #136]	@ (9003534 <trainerschool_test_idle+0x134>)
 90034ac:	185b      	adds	r3, r3, r1
 90034ae:	3001      	adds	r0, #1
 90034b0:	009b      	lsls	r3, r3, #2
 90034b2:	0600      	lsls	r0, r0, #24
 90034b4:	5c99      	ldrb	r1, [r3, r2]
 90034b6:	0e00      	lsrs	r0, r0, #24
 90034b8:	4b24      	ldr	r3, [pc, #144]	@ (900354c <trainerschool_test_idle+0x14c>)
 90034ba:	f000 fb1b 	bl	9003af4 <trainerschool_exam_init+0x70>
 90034be:	2005      	movs	r0, #5
 90034c0:	7061      	strb	r1, [r4, #1]
 90034c2:	4b1b      	ldr	r3, [pc, #108]	@ (9003530 <trainerschool_test_idle+0x130>)
 90034c4:	f000 fb16 	bl	9003af4 <trainerschool_exam_init+0x70>
 90034c8:	f7ff fffe 	bl	90032d8 <trainerschool_test_load_answers>
 90034cc:	e7be      	b.n	900344c <trainerschool_test_idle+0x4c>
 90034ce:	2301      	movs	r3, #1
 90034d0:	72a3      	strb	r3, [r4, #10]
 90034d2:	333f      	adds	r3, #63	@ 0x3f
 90034d4:	80a3      	strh	r3, [r4, #4]
 90034d6:	201a      	movs	r0, #26
 90034d8:	4b15      	ldr	r3, [pc, #84]	@ (9003530 <trainerschool_test_idle+0x130>)
 90034da:	f000 fb0b 	bl	9003af4 <trainerschool_exam_init+0x70>
 90034de:	481c      	ldr	r0, [pc, #112]	@ (9003550 <trainerschool_test_idle+0x150>)
 90034e0:	4b19      	ldr	r3, [pc, #100]	@ (9003548 <trainerschool_test_idle+0x148>)
 90034e2:	f000 fb07 	bl	9003af4 <trainerschool_exam_init+0x70>
 90034e6:	e7b1      	b.n	900344c <trainerschool_test_idle+0x4c>
 90034e8:	7821      	ldrb	r1, [r4, #0]
 90034ea:	004b      	lsls	r3, r1, #1
 90034ec:	4a11      	ldr	r2, [pc, #68]	@ (9003534 <trainerschool_test_idle+0x134>)
 90034ee:	185b      	adds	r3, r3, r1
 90034f0:	009b      	lsls	r3, r3, #2
 90034f2:	5c9b      	ldrb	r3, [r3, r2]
 90034f4:	3b01      	subs	r3, #1
 90034f6:	061b      	lsls	r3, r3, #24
 90034f8:	0e1b      	lsrs	r3, r3, #24
 90034fa:	e7a0      	b.n	900343e <trainerschool_test_idle+0x3e>
 90034fc:	200e      	movs	r0, #14
 90034fe:	4b0e      	ldr	r3, [pc, #56]	@ (9003538 <trainerschool_test_idle+0x138>)
 9003500:	30ff      	adds	r0, #255	@ 0xff
 9003502:	f000 faf7 	bl	9003af4 <trainerschool_exam_init+0x70>
 9003506:	200c      	movs	r0, #12
 9003508:	4b09      	ldr	r3, [pc, #36]	@ (9003530 <trainerschool_test_idle+0x130>)
 900350a:	f000 faf3 	bl	9003af4 <trainerschool_exam_init+0x70>
 900350e:	4b11      	ldr	r3, [pc, #68]	@ (9003554 <trainerschool_test_idle+0x154>)
 9003510:	4811      	ldr	r0, [pc, #68]	@ (9003558 <trainerschool_test_idle+0x158>)
 9003512:	f000 faef 	bl	9003af4 <trainerschool_exam_init+0x70>
 9003516:	8803      	ldrh	r3, [r0, #0]
 9003518:	3301      	adds	r3, #1
 900351a:	8003      	strh	r3, [r0, #0]
 900351c:	69ec      	ldr	r4, [r5, #28]
 900351e:	480f      	ldr	r0, [pc, #60]	@ (900355c <trainerschool_test_idle+0x15c>)
 9003520:	e7b0      	b.n	9003484 <trainerschool_test_idle+0x84>
 9003522:	46c0      	nop			@ (mov r8, r8)
	...
 9003534:	0006415c 	.word	0x0006415c
 9003538:	00000000 	.word	0x00000000
 900353c:	0001b1d8 	.word	0x0001b1d8
	...
 9003558:	000050f4 	.word	0x000050f4
 900355c:	0001b1c0 	.word	0x0001b1c0

09003560 <trainerschool_test_load_question>:
 9003560:	b530      	push	{r4, r5, lr}
 9003562:	2400      	movs	r4, #0
 9003564:	4b13      	ldr	r3, [pc, #76]	@ (90035b4 <trainerschool_test_load_question+0x54>)
 9003566:	69db      	ldr	r3, [r3, #28]
 9003568:	b087      	sub	sp, #28
 900356a:	781d      	ldrb	r5, [r3, #0]
 900356c:	2100      	movs	r1, #0
 900356e:	705c      	strb	r4, [r3, #1]
 9003570:	2000      	movs	r0, #0
 9003572:	4b11      	ldr	r3, [pc, #68]	@ (90035b8 <trainerschool_test_load_question+0x58>)
 9003574:	f000 fabe 	bl	9003af4 <trainerschool_exam_init+0x70>
 9003578:	2000      	movs	r0, #0
 900357a:	4b10      	ldr	r3, [pc, #64]	@ (90035bc <trainerschool_test_load_question+0x5c>)
 900357c:	f000 faba 	bl	9003af4 <trainerschool_exam_init+0x70>
 9003580:	006a      	lsls	r2, r5, #1
 9003582:	4b0f      	ldr	r3, [pc, #60]	@ (90035c0 <trainerschool_test_load_question+0x60>)
 9003584:	1952      	adds	r2, r2, r5
 9003586:	0092      	lsls	r2, r2, #2
 9003588:	189b      	adds	r3, r3, r2
 900358a:	685b      	ldr	r3, [r3, #4]
 900358c:	9304      	str	r3, [sp, #16]
 900358e:	4b0d      	ldr	r3, [pc, #52]	@ (90035c4 <trainerschool_test_load_question+0x64>)
 9003590:	2200      	movs	r2, #0
 9003592:	2102      	movs	r1, #2
 9003594:	2000      	movs	r0, #0
 9003596:	9403      	str	r4, [sp, #12]
 9003598:	9302      	str	r3, [sp, #8]
 900359a:	9401      	str	r4, [sp, #4]
 900359c:	2300      	movs	r3, #0
 900359e:	9400      	str	r4, [sp, #0]
 90035a0:	4c09      	ldr	r4, [pc, #36]	@ (90035c8 <trainerschool_test_load_question+0x68>)
 90035a2:	f000 faa8 	bl	9003af6 <trainerschool_exam_init+0x72>
 90035a6:	f7ff fffe 	bl	90032d8 <trainerschool_test_load_answers>
 90035aa:	b007      	add	sp, #28
 90035ac:	bc30      	pop	{r4, r5}
 90035ae:	bc01      	pop	{r0}
 90035b0:	4700      	bx	r0
 90035b2:	46c0      	nop			@ (mov r8, r8)
	...
 90035c0:	0006415c 	.word	0x0006415c
 90035c4:	0001b1bc 	.word	0x0001b1bc
 90035c8:	00000000 	.word	0x00000000

090035cc <trainerschool_test_question_done>:
 90035cc:	b5f0      	push	{r4, r5, r6, r7, lr}
 90035ce:	46c6      	mov	lr, r8
 90035d0:	b500      	push	{lr}
 90035d2:	4b64      	ldr	r3, [pc, #400]	@ (9003764 <trainerschool_test_question_done+0x198>)
 90035d4:	b082      	sub	sp, #8
 90035d6:	f000 fa8d 	bl	9003af4 <trainerschool_exam_init+0x70>
 90035da:	4c63      	ldr	r4, [pc, #396]	@ (9003768 <trainerschool_test_question_done+0x19c>)
 90035dc:	69e2      	ldr	r2, [r4, #28]
 90035de:	8893      	ldrh	r3, [r2, #4]
 90035e0:	2b00      	cmp	r3, #0
 90035e2:	d007      	beq.n	90035f4 <trainerschool_test_question_done+0x28>
 90035e4:	3b01      	subs	r3, #1
 90035e6:	8093      	strh	r3, [r2, #4]
 90035e8:	b002      	add	sp, #8
 90035ea:	bc80      	pop	{r7}
 90035ec:	46b8      	mov	r8, r7
 90035ee:	bcf0      	pop	{r4, r5, r6, r7}
 90035f0:	bc01      	pop	{r0}
 90035f2:	4700      	bx	r0
 90035f4:	7995      	ldrb	r5, [r2, #6]
 90035f6:	2d01      	cmp	r5, #1
 90035f8:	d100      	bne.n	90035fc <trainerschool_test_question_done+0x30>
 90035fa:	e089      	b.n	9003710 <trainerschool_test_question_done+0x144>
 90035fc:	2d02      	cmp	r5, #2
 90035fe:	d061      	beq.n	90036c4 <trainerschool_test_question_done+0xf8>
 9003600:	2d00      	cmp	r5, #0
 9003602:	d00b      	beq.n	900361c <trainerschool_test_question_done+0x50>
 9003604:	2001      	movs	r0, #1
 9003606:	4b59      	ldr	r3, [pc, #356]	@ (900376c <trainerschool_test_question_done+0x1a0>)
 9003608:	f000 fa74 	bl	9003af4 <trainerschool_exam_init+0x70>
 900360c:	4b58      	ldr	r3, [pc, #352]	@ (9003770 <trainerschool_test_question_done+0x1a4>)
 900360e:	f000 fa71 	bl	9003af4 <trainerschool_exam_init+0x70>
 9003612:	4858      	ldr	r0, [pc, #352]	@ (9003774 <trainerschool_test_question_done+0x1a8>)
 9003614:	4b58      	ldr	r3, [pc, #352]	@ (9003778 <trainerschool_test_question_done+0x1ac>)
 9003616:	f000 fa6d 	bl	9003af4 <trainerschool_exam_init+0x70>
 900361a:	e7e5      	b.n	90035e8 <trainerschool_test_question_done+0x1c>
 900361c:	7813      	ldrb	r3, [r2, #0]
 900361e:	3301      	adds	r3, #1
 9003620:	061b      	lsls	r3, r3, #24
 9003622:	0e1b      	lsrs	r3, r3, #24
 9003624:	7013      	strb	r3, [r2, #0]
 9003626:	2b0a      	cmp	r3, #10
 9003628:	d100      	bne.n	900362c <trainerschool_test_question_done+0x60>
 900362a:	e08e      	b.n	900374a <trainerschool_test_question_done+0x17e>
 900362c:	f7ff fffe 	bl	9003560 <trainerschool_test_load_question>
 9003630:	201e      	movs	r0, #30
 9003632:	4b52      	ldr	r3, [pc, #328]	@ (900377c <trainerschool_test_question_done+0x1b0>)
 9003634:	f000 fa5e 	bl	9003af4 <trainerschool_exam_init+0x70>
 9003638:	2001      	movs	r0, #1
 900363a:	4b51      	ldr	r3, [pc, #324]	@ (9003780 <trainerschool_test_question_done+0x1b4>)
 900363c:	f000 fa5a 	bl	9003af4 <trainerschool_exam_init+0x70>
 9003640:	4b4b      	ldr	r3, [pc, #300]	@ (9003770 <trainerschool_test_question_done+0x1a4>)
 9003642:	f000 fa57 	bl	9003af4 <trainerschool_exam_init+0x70>
 9003646:	69e3      	ldr	r3, [r4, #28]
 9003648:	789b      	ldrb	r3, [r3, #2]
 900364a:	0118      	lsls	r0, r3, #4
 900364c:	4d4d      	ldr	r5, [pc, #308]	@ (9003784 <trainerschool_test_question_done+0x1b8>)
 900364e:	18c0      	adds	r0, r0, r3
 9003650:	0080      	lsls	r0, r0, #2
 9003652:	1940      	adds	r0, r0, r5
 9003654:	4b4c      	ldr	r3, [pc, #304]	@ (9003788 <trainerschool_test_question_done+0x1bc>)
 9003656:	f000 fa4d 	bl	9003af4 <trainerschool_exam_init+0x70>
 900365a:	69e3      	ldr	r3, [r4, #28]
 900365c:	789b      	ldrb	r3, [r3, #2]
 900365e:	0118      	lsls	r0, r3, #4
 9003660:	18c0      	adds	r0, r0, r3
 9003662:	0080      	lsls	r0, r0, #2
 9003664:	4b49      	ldr	r3, [pc, #292]	@ (900378c <trainerschool_test_question_done+0x1c0>)
 9003666:	1940      	adds	r0, r0, r5
 9003668:	f000 fa44 	bl	9003af4 <trainerschool_exam_init+0x70>
 900366c:	4d48      	ldr	r5, [pc, #288]	@ (9003790 <trainerschool_test_question_done+0x1c4>)
 900366e:	4849      	ldr	r0, [pc, #292]	@ (9003794 <trainerschool_test_question_done+0x1c8>)
 9003670:	0029      	movs	r1, r5
 9003672:	4f49      	ldr	r7, [pc, #292]	@ (9003798 <trainerschool_test_question_done+0x1cc>)
 9003674:	f000 fa42 	bl	9003afc <trainerschool_exam_init+0x78>
 9003678:	2001      	movs	r0, #1
 900367a:	4e48      	ldr	r6, [pc, #288]	@ (900379c <trainerschool_test_question_done+0x1d0>)
 900367c:	f000 fa3d 	bl	9003afa <trainerschool_exam_init+0x76>
 9003680:	4b47      	ldr	r3, [pc, #284]	@ (90037a0 <trainerschool_test_question_done+0x1d4>)
 9003682:	0001      	movs	r1, r0
 9003684:	0018      	movs	r0, r3
 9003686:	f000 fa39 	bl	9003afc <trainerschool_exam_init+0x78>
 900368a:	2301      	movs	r3, #1
 900368c:	2280      	movs	r2, #128	@ 0x80
 900368e:	0029      	movs	r1, r5
 9003690:	2001      	movs	r0, #1
 9003692:	9300      	str	r3, [sp, #0]
 9003694:	4d43      	ldr	r5, [pc, #268]	@ (90037a4 <trainerschool_test_question_done+0x1d8>)
 9003696:	2300      	movs	r3, #0
 9003698:	0152      	lsls	r2, r2, #5
 900369a:	f000 fa2d 	bl	9003af8 <trainerschool_exam_init+0x74>
 900369e:	2001      	movs	r0, #1
 90036a0:	f000 fa2b 	bl	9003afa <trainerschool_exam_init+0x76>
 90036a4:	2302      	movs	r3, #2
 90036a6:	2280      	movs	r2, #128	@ 0x80
 90036a8:	0001      	movs	r1, r0
 90036aa:	9300      	str	r3, [sp, #0]
 90036ac:	2001      	movs	r0, #1
 90036ae:	2300      	movs	r3, #0
 90036b0:	0112      	lsls	r2, r2, #4
 90036b2:	f000 fa21 	bl	9003af8 <trainerschool_exam_init+0x74>
 90036b6:	220a      	movs	r2, #10
 90036b8:	69e3      	ldr	r3, [r4, #28]
 90036ba:	809a      	strh	r2, [r3, #4]
 90036bc:	799a      	ldrb	r2, [r3, #6]
 90036be:	3201      	adds	r2, #1
 90036c0:	719a      	strb	r2, [r3, #6]
 90036c2:	e791      	b.n	90035e8 <trainerschool_test_question_done+0x1c>
 90036c4:	4e32      	ldr	r6, [pc, #200]	@ (9003790 <trainerschool_test_question_done+0x1c4>)
 90036c6:	4b34      	ldr	r3, [pc, #208]	@ (9003798 <trainerschool_test_question_done+0x1cc>)
 90036c8:	0031      	movs	r1, r6
 90036ca:	4837      	ldr	r0, [pc, #220]	@ (90037a8 <trainerschool_test_question_done+0x1dc>)
 90036cc:	4698      	mov	r8, r3
 90036ce:	f000 fa11 	bl	9003af4 <trainerschool_exam_init+0x70>
 90036d2:	4f32      	ldr	r7, [pc, #200]	@ (900379c <trainerschool_test_question_done+0x1d0>)
 90036d4:	2001      	movs	r0, #1
 90036d6:	f000 fa11 	bl	9003afc <trainerschool_exam_init+0x78>
 90036da:	4b34      	ldr	r3, [pc, #208]	@ (90037ac <trainerschool_test_question_done+0x1e0>)
 90036dc:	0001      	movs	r1, r0
 90036de:	0018      	movs	r0, r3
 90036e0:	f000 fa0d 	bl	9003afe <trainerschool_exam_init+0x7a>
 90036e4:	2301      	movs	r3, #1
 90036e6:	2280      	movs	r2, #128	@ 0x80
 90036e8:	0031      	movs	r1, r6
 90036ea:	9300      	str	r3, [sp, #0]
 90036ec:	0152      	lsls	r2, r2, #5
 90036ee:	2300      	movs	r3, #0
 90036f0:	2001      	movs	r0, #1
 90036f2:	4e2c      	ldr	r6, [pc, #176]	@ (90037a4 <trainerschool_test_question_done+0x1d8>)
 90036f4:	f000 fa01 	bl	9003afa <trainerschool_exam_init+0x76>
 90036f8:	2001      	movs	r0, #1
 90036fa:	f000 f9ff 	bl	9003afc <trainerschool_exam_init+0x78>
 90036fe:	2280      	movs	r2, #128	@ 0x80
 9003700:	0001      	movs	r1, r0
 9003702:	2300      	movs	r3, #0
 9003704:	2001      	movs	r0, #1
 9003706:	9500      	str	r5, [sp, #0]
 9003708:	0112      	lsls	r2, r2, #4
 900370a:	f000 f9f6 	bl	9003afa <trainerschool_exam_init+0x76>
 900370e:	e7d2      	b.n	90036b6 <trainerschool_test_question_done+0xea>
 9003710:	4e1f      	ldr	r6, [pc, #124]	@ (9003790 <trainerschool_test_question_done+0x1c4>)
 9003712:	4b21      	ldr	r3, [pc, #132]	@ (9003798 <trainerschool_test_question_done+0x1cc>)
 9003714:	0031      	movs	r1, r6
 9003716:	4826      	ldr	r0, [pc, #152]	@ (90037b0 <trainerschool_test_question_done+0x1e4>)
 9003718:	4698      	mov	r8, r3
 900371a:	f000 f9eb 	bl	9003af4 <trainerschool_exam_init+0x70>
 900371e:	4f1f      	ldr	r7, [pc, #124]	@ (900379c <trainerschool_test_question_done+0x1d0>)
 9003720:	2001      	movs	r0, #1
 9003722:	f000 f9eb 	bl	9003afc <trainerschool_exam_init+0x78>
 9003726:	4b23      	ldr	r3, [pc, #140]	@ (90037b4 <trainerschool_test_question_done+0x1e8>)
 9003728:	0001      	movs	r1, r0
 900372a:	0018      	movs	r0, r3
 900372c:	f000 f9e7 	bl	9003afe <trainerschool_exam_init+0x7a>
 9003730:	2280      	movs	r2, #128	@ 0x80
 9003732:	9500      	str	r5, [sp, #0]
 9003734:	2300      	movs	r3, #0
 9003736:	0031      	movs	r1, r6
 9003738:	2001      	movs	r0, #1
 900373a:	4d1a      	ldr	r5, [pc, #104]	@ (90037a4 <trainerschool_test_question_done+0x1d8>)
 900373c:	0152      	lsls	r2, r2, #5
 900373e:	f000 f9db 	bl	9003af8 <trainerschool_exam_init+0x74>
 9003742:	2001      	movs	r0, #1
 9003744:	f000 f9da 	bl	9003afc <trainerschool_exam_init+0x78>
 9003748:	e7ac      	b.n	90036a4 <trainerschool_test_question_done+0xd8>
 900374a:	3b09      	subs	r3, #9
 900374c:	7293      	strb	r3, [r2, #10]
 900374e:	2100      	movs	r1, #0
 9003750:	2001      	movs	r0, #1
 9003752:	4b19      	ldr	r3, [pc, #100]	@ (90037b8 <trainerschool_test_question_done+0x1ec>)
 9003754:	f000 f9ce 	bl	9003af4 <trainerschool_exam_init+0x70>
 9003758:	4818      	ldr	r0, [pc, #96]	@ (90037bc <trainerschool_test_question_done+0x1f0>)
 900375a:	4b07      	ldr	r3, [pc, #28]	@ (9003778 <trainerschool_test_question_done+0x1ac>)
 900375c:	f000 f9ca 	bl	9003af4 <trainerschool_exam_init+0x70>
 9003760:	e742      	b.n	90035e8 <trainerschool_test_question_done+0x1c>
 9003762:	46c0      	nop			@ (mov r8, r8)
	...

090037c0 <trainerschool_exam_init_components>:
 90037c0:	b5f0      	push	{r4, r5, r6, r7, lr}
 90037c2:	46c6      	mov	lr, r8
 90037c4:	b500      	push	{lr}
 90037c6:	4b85      	ldr	r3, [pc, #532]	@ (90039dc <trainerschool_exam_init_components+0x21c>)
 90037c8:	b082      	sub	sp, #8
 90037ca:	f000 f993 	bl	9003af4 <trainerschool_exam_init+0x70>
 90037ce:	4b84      	ldr	r3, [pc, #528]	@ (90039e0 <trainerschool_exam_init_components+0x220>)
 90037d0:	f000 f990 	bl	9003af4 <trainerschool_exam_init+0x70>
 90037d4:	2800      	cmp	r0, #0
 90037d6:	d005      	beq.n	90037e4 <trainerschool_exam_init_components+0x24>
 90037d8:	b002      	add	sp, #8
 90037da:	bc80      	pop	{r7}
 90037dc:	46b8      	mov	r8, r7
 90037de:	bcf0      	pop	{r4, r5, r6, r7}
 90037e0:	bc01      	pop	{r0}
 90037e2:	4700      	bx	r0
 90037e4:	4b7f      	ldr	r3, [pc, #508]	@ (90039e4 <trainerschool_exam_init_components+0x224>)
 90037e6:	f000 f985 	bl	9003af4 <trainerschool_exam_init+0x70>
 90037ea:	4b7f      	ldr	r3, [pc, #508]	@ (90039e8 <trainerschool_exam_init_components+0x228>)
 90037ec:	f000 f982 	bl	9003af4 <trainerschool_exam_init+0x70>
 90037f0:	4b7e      	ldr	r3, [pc, #504]	@ (90039ec <trainerschool_exam_init_components+0x22c>)
 90037f2:	f000 f97f 	bl	9003af4 <trainerschool_exam_init+0x70>
 90037f6:	2000      	movs	r0, #0
 90037f8:	4b7d      	ldr	r3, [pc, #500]	@ (90039f0 <trainerschool_exam_init_components+0x230>)
 90037fa:	f000 f97b 	bl	9003af4 <trainerschool_exam_init+0x70>
 90037fe:	4c7d      	ldr	r4, [pc, #500]	@ (90039f4 <trainerschool_exam_init_components+0x234>)
 9003800:	0021      	movs	r1, r4
 9003802:	2203      	movs	r2, #3
 9003804:	313c      	adds	r1, #60	@ 0x3c
 9003806:	4b7c      	ldr	r3, [pc, #496]	@ (90039f8 <trainerschool_exam_init_components+0x238>)
 9003808:	2000      	movs	r0, #0
 900380a:	f000 f973 	bl	9003af4 <trainerschool_exam_init+0x70>
 900380e:	4d7b      	ldr	r5, [pc, #492]	@ (90039fc <trainerschool_exam_init_components+0x23c>)
 9003810:	2000      	movs	r0, #0
 9003812:	f000 f971 	bl	9003af8 <trainerschool_exam_init+0x74>
 9003816:	2001      	movs	r0, #1
 9003818:	f000 f96e 	bl	9003af8 <trainerschool_exam_init+0x74>
 900381c:	2002      	movs	r0, #2
 900381e:	f000 f96b 	bl	9003af8 <trainerschool_exam_init+0x74>
 9003822:	4b77      	ldr	r3, [pc, #476]	@ (9003a00 <trainerschool_exam_init_components+0x240>)
 9003824:	f000 f966 	bl	9003af4 <trainerschool_exam_init+0x70>
 9003828:	4e76      	ldr	r6, [pc, #472]	@ (9003a04 <trainerschool_exam_init_components+0x244>)
 900382a:	2200      	movs	r2, #0
 900382c:	2100      	movs	r1, #0
 900382e:	2000      	movs	r0, #0
 9003830:	f000 f963 	bl	9003afa <trainerschool_exam_init+0x76>
 9003834:	4d74      	ldr	r5, [pc, #464]	@ (9003a08 <trainerschool_exam_init_components+0x248>)
 9003836:	2200      	movs	r2, #0
 9003838:	2100      	movs	r1, #0
 900383a:	2000      	movs	r0, #0
 900383c:	f000 f95c 	bl	9003af8 <trainerschool_exam_init+0x74>
 9003840:	2200      	movs	r2, #0
 9003842:	2100      	movs	r1, #0
 9003844:	2001      	movs	r0, #1
 9003846:	f000 f958 	bl	9003afa <trainerschool_exam_init+0x76>
 900384a:	2200      	movs	r2, #0
 900384c:	2100      	movs	r1, #0
 900384e:	2001      	movs	r0, #1
 9003850:	f000 f952 	bl	9003af8 <trainerschool_exam_init+0x74>
 9003854:	2200      	movs	r2, #0
 9003856:	2100      	movs	r1, #0
 9003858:	2002      	movs	r0, #2
 900385a:	f000 f94e 	bl	9003afa <trainerschool_exam_init+0x76>
 900385e:	2200      	movs	r2, #0
 9003860:	2100      	movs	r1, #0
 9003862:	2002      	movs	r0, #2
 9003864:	f000 f948 	bl	9003af8 <trainerschool_exam_init+0x74>
 9003868:	4d68      	ldr	r5, [pc, #416]	@ (9003a0c <trainerschool_exam_init_components+0x24c>)
 900386a:	2100      	movs	r1, #0
 900386c:	2010      	movs	r0, #16
 900386e:	f000 f943 	bl	9003af8 <trainerschool_exam_init+0x74>
 9003872:	2104      	movs	r1, #4
 9003874:	2012      	movs	r0, #18
 9003876:	f000 f93f 	bl	9003af8 <trainerschool_exam_init+0x74>
 900387a:	2100      	movs	r1, #0
 900387c:	2014      	movs	r0, #20
 900387e:	f000 f93b 	bl	9003af8 <trainerschool_exam_init+0x74>
 9003882:	2100      	movs	r1, #0
 9003884:	2016      	movs	r0, #22
 9003886:	f000 f937 	bl	9003af8 <trainerschool_exam_init+0x74>
 900388a:	2100      	movs	r1, #0
 900388c:	2018      	movs	r0, #24
 900388e:	f000 f933 	bl	9003af8 <trainerschool_exam_init+0x74>
 9003892:	2100      	movs	r1, #0
 9003894:	201a      	movs	r0, #26
 9003896:	f000 f92f 	bl	9003af8 <trainerschool_exam_init+0x74>
 900389a:	2080      	movs	r0, #128	@ 0x80
 900389c:	4d5c      	ldr	r5, [pc, #368]	@ (9003a10 <trainerschool_exam_init_components+0x250>)
 900389e:	0100      	lsls	r0, r0, #4
 90038a0:	f000 f92a 	bl	9003af8 <trainerschool_exam_init+0x74>
 90038a4:	0007      	movs	r7, r0
 90038a6:	2080      	movs	r0, #128	@ 0x80
 90038a8:	0100      	lsls	r0, r0, #4
 90038aa:	f000 f925 	bl	9003af8 <trainerschool_exam_init+0x74>
 90038ae:	0006      	movs	r6, r0
 90038b0:	2080      	movs	r0, #128	@ 0x80
 90038b2:	0100      	lsls	r0, r0, #4
 90038b4:	f000 f920 	bl	9003af8 <trainerschool_exam_init+0x74>
 90038b8:	0005      	movs	r5, r0
 90038ba:	4b56      	ldr	r3, [pc, #344]	@ (9003a14 <trainerschool_exam_init_components+0x254>)
 90038bc:	0039      	movs	r1, r7
 90038be:	2000      	movs	r0, #0
 90038c0:	4698      	mov	r8, r3
 90038c2:	f000 f917 	bl	9003af4 <trainerschool_exam_init+0x70>
 90038c6:	0031      	movs	r1, r6
 90038c8:	2001      	movs	r0, #1
 90038ca:	f000 f918 	bl	9003afe <trainerschool_exam_init+0x7a>
 90038ce:	0029      	movs	r1, r5
 90038d0:	2002      	movs	r0, #2
 90038d2:	f000 f914 	bl	9003afe <trainerschool_exam_init+0x7a>
 90038d6:	0029      	movs	r1, r5
 90038d8:	484f      	ldr	r0, [pc, #316]	@ (9003a18 <trainerschool_exam_init_components+0x258>)
 90038da:	4b50      	ldr	r3, [pc, #320]	@ (9003a1c <trainerschool_exam_init_components+0x25c>)
 90038dc:	f000 f90a 	bl	9003af4 <trainerschool_exam_init+0x70>
 90038e0:	21c0      	movs	r1, #192	@ 0xc0
 90038e2:	4b4f      	ldr	r3, [pc, #316]	@ (9003a20 <trainerschool_exam_init_components+0x260>)
 90038e4:	484f      	ldr	r0, [pc, #316]	@ (9003a24 <trainerschool_exam_init_components+0x264>)
 90038e6:	04c9      	lsls	r1, r1, #19
 90038e8:	4698      	mov	r8, r3
 90038ea:	f000 f903 	bl	9003af4 <trainerschool_exam_init+0x70>
 90038ee:	484e      	ldr	r0, [pc, #312]	@ (9003a28 <trainerschool_exam_init_components+0x268>)
 90038f0:	494e      	ldr	r1, [pc, #312]	@ (9003a2c <trainerschool_exam_init_components+0x26c>)
 90038f2:	f000 f904 	bl	9003afe <trainerschool_exam_init+0x7a>
 90038f6:	2302      	movs	r3, #2
 90038f8:	2280      	movs	r2, #128	@ 0x80
 90038fa:	4698      	mov	r8, r3
 90038fc:	0039      	movs	r1, r7
 90038fe:	9300      	str	r3, [sp, #0]
 9003900:	4f4b      	ldr	r7, [pc, #300]	@ (9003a30 <trainerschool_exam_init_components+0x270>)
 9003902:	2300      	movs	r3, #0
 9003904:	2000      	movs	r0, #0
 9003906:	0112      	lsls	r2, r2, #4
 9003908:	f000 f8f8 	bl	9003afc <trainerschool_exam_init+0x78>
 900390c:	4643      	mov	r3, r8
 900390e:	2280      	movs	r2, #128	@ 0x80
 9003910:	0031      	movs	r1, r6
 9003912:	9300      	str	r3, [sp, #0]
 9003914:	2001      	movs	r0, #1
 9003916:	2300      	movs	r3, #0
 9003918:	0112      	lsls	r2, r2, #4
 900391a:	f000 f8ef 	bl	9003afc <trainerschool_exam_init+0x78>
 900391e:	4643      	mov	r3, r8
 9003920:	2280      	movs	r2, #128	@ 0x80
 9003922:	0029      	movs	r1, r5
 9003924:	9300      	str	r3, [sp, #0]
 9003926:	2002      	movs	r0, #2
 9003928:	2300      	movs	r3, #0
 900392a:	0112      	lsls	r2, r2, #4
 900392c:	f000 f8e6 	bl	9003afc <trainerschool_exam_init+0x78>
 9003930:	4d40      	ldr	r5, [pc, #256]	@ (9003a34 <trainerschool_exam_init_components+0x274>)
 9003932:	2220      	movs	r2, #32
 9003934:	2100      	movs	r1, #0
 9003936:	4840      	ldr	r0, [pc, #256]	@ (9003a38 <trainerschool_exam_init_components+0x278>)
 9003938:	f000 f8de 	bl	9003af8 <trainerschool_exam_init+0x74>
 900393c:	4e3f      	ldr	r6, [pc, #252]	@ (9003a3c <trainerschool_exam_init_components+0x27c>)
 900393e:	4840      	ldr	r0, [pc, #256]	@ (9003a40 <trainerschool_exam_init_components+0x280>)
 9003940:	f000 f8db 	bl	9003afa <trainerschool_exam_init+0x76>
 9003944:	3010      	adds	r0, #16
 9003946:	0501      	lsls	r1, r0, #20
 9003948:	2220      	movs	r2, #32
 900394a:	0c09      	lsrs	r1, r1, #16
 900394c:	483d      	ldr	r0, [pc, #244]	@ (9003a44 <trainerschool_exam_init_components+0x284>)
 900394e:	f000 f8d3 	bl	9003af8 <trainerschool_exam_init+0x74>
 9003952:	483d      	ldr	r0, [pc, #244]	@ (9003a48 <trainerschool_exam_init_components+0x288>)
 9003954:	f000 f8d1 	bl	9003afa <trainerschool_exam_init+0x76>
 9003958:	0001      	movs	r1, r0
 900395a:	3110      	adds	r1, #16
 900395c:	0509      	lsls	r1, r1, #20
 900395e:	2220      	movs	r2, #32
 9003960:	483a      	ldr	r0, [pc, #232]	@ (9003a4c <trainerschool_exam_init_components+0x28c>)
 9003962:	0c09      	lsrs	r1, r1, #16
 9003964:	f000 f8c8 	bl	9003af8 <trainerschool_exam_init+0x74>
 9003968:	2220      	movs	r2, #32
 900396a:	21f0      	movs	r1, #240	@ 0xf0
 900396c:	4838      	ldr	r0, [pc, #224]	@ (9003a50 <trainerschool_exam_init_components+0x290>)
 900396e:	4b39      	ldr	r3, [pc, #228]	@ (9003a54 <trainerschool_exam_init_components+0x294>)
 9003970:	f000 f8c0 	bl	9003af4 <trainerschool_exam_init+0x70>
 9003974:	4b38      	ldr	r3, [pc, #224]	@ (9003a58 <trainerschool_exam_init_components+0x298>)
 9003976:	f000 f8bd 	bl	9003af4 <trainerschool_exam_init+0x70>
 900397a:	0020      	movs	r0, r4
 900397c:	4b37      	ldr	r3, [pc, #220]	@ (9003a5c <trainerschool_exam_init_components+0x29c>)
 900397e:	3048      	adds	r0, #72	@ 0x48
 9003980:	f000 f8b8 	bl	9003af4 <trainerschool_exam_init+0x70>
 9003984:	f7ff fffe 	bl	9003560 <trainerschool_test_load_question>
 9003988:	4c35      	ldr	r4, [pc, #212]	@ (9003a60 <trainerschool_exam_init_components+0x2a0>)
 900398a:	4d36      	ldr	r5, [pc, #216]	@ (9003a64 <trainerschool_exam_init_components+0x2a4>)
 900398c:	0020      	movs	r0, r4
 900398e:	f000 f8b3 	bl	9003af8 <trainerschool_exam_init+0x74>
 9003992:	0020      	movs	r0, r4
 9003994:	3008      	adds	r0, #8
 9003996:	f000 f8af 	bl	9003af8 <trainerschool_exam_init+0x74>
 900399a:	0020      	movs	r0, r4
 900399c:	2230      	movs	r2, #48	@ 0x30
 900399e:	2301      	movs	r3, #1
 90039a0:	21d4      	movs	r1, #212	@ 0xd4
 90039a2:	4c31      	ldr	r4, [pc, #196]	@ (9003a68 <trainerschool_exam_init_components+0x2a8>)
 90039a4:	3010      	adds	r0, #16
 90039a6:	f000 f8a6 	bl	9003af6 <trainerschool_exam_init+0x72>
 90039aa:	2100      	movs	r1, #0
 90039ac:	2000      	movs	r0, #0
 90039ae:	4b2f      	ldr	r3, [pc, #188]	@ (9003a6c <trainerschool_exam_init_components+0x2ac>)
 90039b0:	f000 f8a0 	bl	9003af4 <trainerschool_exam_init+0x70>
 90039b4:	482e      	ldr	r0, [pc, #184]	@ (9003a70 <trainerschool_exam_init_components+0x2b0>)
 90039b6:	4b2f      	ldr	r3, [pc, #188]	@ (9003a74 <trainerschool_exam_init_components+0x2b4>)
 90039b8:	f000 f89c 	bl	9003af4 <trainerschool_exam_init+0x70>
 90039bc:	4b2e      	ldr	r3, [pc, #184]	@ (9003a78 <trainerschool_exam_init_components+0x2b8>)
 90039be:	482f      	ldr	r0, [pc, #188]	@ (9003a7c <trainerschool_exam_init_components+0x2bc>)
 90039c0:	f000 f898 	bl	9003af4 <trainerschool_exam_init+0x70>
 90039c4:	4c2e      	ldr	r4, [pc, #184]	@ (9003a80 <trainerschool_exam_init_components+0x2c0>)
 90039c6:	2000      	movs	r0, #0
 90039c8:	f000 f895 	bl	9003af6 <trainerschool_exam_init+0x72>
 90039cc:	2001      	movs	r0, #1
 90039ce:	f000 f892 	bl	9003af6 <trainerschool_exam_init+0x72>
 90039d2:	2002      	movs	r0, #2
 90039d4:	f000 f88f 	bl	9003af6 <trainerschool_exam_init+0x72>
 90039d8:	e6fe      	b.n	90037d8 <trainerschool_exam_init_components+0x18>
 90039da:	46c0      	nop			@ (mov r8, r8)
	...
 90039f4:	0001b1b4 	.word	0x0001b1b4
	...
 9003a2c:	06004000 	.word	0x06004000
	...
 9003a40:	0000a0e0 	.word	0x0000a0e0
 9003a44:	00000000 	.word	0x00000000
 9003a48:	0000a0e2 	.word	0x0000a0e2
 9003a4c:	00000000 	.word	0x00000000
 9003a50:	00004790 	.word	0x00004790
	...
 9003a60:	0001b234 	.word	0x0001b234
	...

09003a84 <trainerschool_exam_init>:
 9003a84:	b570      	push	{r4, r5, r6, lr}
 9003a86:	4b11      	ldr	r3, [pc, #68]	@ (9003acc <trainerschool_exam_init+0x48>)
 9003a88:	f000 f834 	bl	9003af4 <trainerschool_exam_init+0x70>
 9003a8c:	4b10      	ldr	r3, [pc, #64]	@ (9003ad0 <trainerschool_exam_init+0x4c>)
 9003a8e:	4811      	ldr	r0, [pc, #68]	@ (9003ad4 <trainerschool_exam_init+0x50>)
 9003a90:	f000 f830 	bl	9003af4 <trainerschool_exam_init+0x70>
 9003a94:	2500      	movs	r5, #0
 9003a96:	4b10      	ldr	r3, [pc, #64]	@ (9003ad8 <trainerschool_exam_init+0x54>)
 9003a98:	8005      	strh	r5, [r0, #0]
 9003a9a:	200c      	movs	r0, #12
 9003a9c:	f000 f82a 	bl	9003af4 <trainerschool_exam_init+0x70>
 9003aa0:	2400      	movs	r4, #0
 9003aa2:	4b0e      	ldr	r3, [pc, #56]	@ (9003adc <trainerschool_exam_init+0x58>)
 9003aa4:	2100      	movs	r1, #0
 9003aa6:	61d8      	str	r0, [r3, #28]
 9003aa8:	8105      	strh	r5, [r0, #8]
 9003aaa:	7004      	strb	r4, [r0, #0]
 9003aac:	7284      	strb	r4, [r0, #10]
 9003aae:	4b0c      	ldr	r3, [pc, #48]	@ (9003ae0 <trainerschool_exam_init+0x5c>)
 9003ab0:	2001      	movs	r0, #1
 9003ab2:	f000 f81f 	bl	9003af4 <trainerschool_exam_init+0x70>
 9003ab6:	480b      	ldr	r0, [pc, #44]	@ (9003ae4 <trainerschool_exam_init+0x60>)
 9003ab8:	4b0b      	ldr	r3, [pc, #44]	@ (9003ae8 <trainerschool_exam_init+0x64>)
 9003aba:	f000 f81b 	bl	9003af4 <trainerschool_exam_init+0x70>
 9003abe:	480b      	ldr	r0, [pc, #44]	@ (9003aec <trainerschool_exam_init+0x68>)
 9003ac0:	4b0b      	ldr	r3, [pc, #44]	@ (9003af0 <trainerschool_exam_init+0x6c>)
 9003ac2:	f000 f817 	bl	9003af4 <trainerschool_exam_init+0x70>
 9003ac6:	bc70      	pop	{r4, r5, r6}
 9003ac8:	bc01      	pop	{r0}
 9003aca:	4700      	bx	r0
	...
 9003ad4:	000050f4 	.word	0x000050f4
	...
 9003af4:	4718      	bx	r3
 9003af6:	4720      	bx	r4
 9003af8:	4728      	bx	r5
 9003afa:	4730      	bx	r6
 9003afc:	4738      	bx	r7
 9003afe:	4740      	bx	r8
 9003b00:	4748      	bx	r9
 9003b02:	46c0      	nop			@ (mov r8, r8)

09003b04 <transparency_used_by_weather>:
 9003b04:	b510      	push	{r4, lr}
 9003b06:	4b05      	ldr	r3, [pc, #20]	@ (9003b1c <transparency_used_by_weather+0x18>)
 9003b08:	f000 f8e6 	bl	9003cd8 <overworld_tbox_delete+0x38>
 9003b0c:	4b04      	ldr	r3, [pc, #16]	@ (9003b20 <transparency_used_by_weather+0x1c>)
 9003b0e:	5c18      	ldrb	r0, [r3, r0]
 9003b10:	1e43      	subs	r3, r0, #1
 9003b12:	4198      	sbcs	r0, r3
 9003b14:	bc10      	pop	{r4}
 9003b16:	bc02      	pop	{r1}
 9003b18:	4708      	bx	r1
 9003b1a:	46c0      	nop			@ (mov r8, r8)
 9003b1c:	00000000 	.word	0x00000000
 9003b20:	000047b0 	.word	0x000047b0

09003b24 <transparency_is_on>:
 9003b24:	4b09      	ldr	r3, [pc, #36]	@ (9003b4c <transparency_is_on+0x28>)
 9003b26:	b510      	push	{r4, lr}
 9003b28:	4809      	ldr	r0, [pc, #36]	@ (9003b50 <transparency_is_on+0x2c>)
 9003b2a:	f000 f8d5 	bl	9003cd8 <overworld_tbox_delete+0x38>
 9003b2e:	0003      	movs	r3, r0
 9003b30:	2000      	movs	r0, #0
 9003b32:	2b00      	cmp	r3, #0
 9003b34:	d002      	beq.n	9003b3c <transparency_is_on+0x18>
 9003b36:	bc10      	pop	{r4}
 9003b38:	bc02      	pop	{r1}
 9003b3a:	4708      	bx	r1
 9003b3c:	f7ff fffe 	bl	9003b04 <transparency_used_by_weather>
 9003b40:	2301      	movs	r3, #1
 9003b42:	4058      	eors	r0, r3
 9003b44:	0600      	lsls	r0, r0, #24
 9003b46:	0e00      	lsrs	r0, r0, #24
 9003b48:	e7f5      	b.n	9003b36 <transparency_is_on+0x12>
 9003b4a:	46c0      	nop			@ (mov r8, r8)
 9003b4c:	00000000 	.word	0x00000000
 9003b50:	00000911 	.word	0x00000911

09003b54 <transparency_on>:
 9003b54:	b510      	push	{r4, lr}
 9003b56:	f7ff fffe 	bl	9003b04 <transparency_used_by_weather>
 9003b5a:	2800      	cmp	r0, #0
 9003b5c:	d10c      	bne.n	9003b78 <transparency_on+0x24>
 9003b5e:	4908      	ldr	r1, [pc, #32]	@ (9003b80 <transparency_on+0x2c>)
 9003b60:	4c08      	ldr	r4, [pc, #32]	@ (9003b84 <transparency_on+0x30>)
 9003b62:	3048      	adds	r0, #72	@ 0x48
 9003b64:	f000 f8b9 	bl	9003cda <overworld_tbox_delete+0x3a>
 9003b68:	2050      	movs	r0, #80	@ 0x50
 9003b6a:	4907      	ldr	r1, [pc, #28]	@ (9003b88 <transparency_on+0x34>)
 9003b6c:	f000 f8b5 	bl	9003cda <overworld_tbox_delete+0x3a>
 9003b70:	2052      	movs	r0, #82	@ 0x52
 9003b72:	4906      	ldr	r1, [pc, #24]	@ (9003b8c <transparency_on+0x38>)
 9003b74:	f000 f8b1 	bl	9003cda <overworld_tbox_delete+0x3a>
 9003b78:	bc10      	pop	{r4}
 9003b7a:	bc01      	pop	{r0}
 9003b7c:	4700      	bx	r0
 9003b7e:	46c0      	nop			@ (mov r8, r8)
 9003b80:	00001f3f 	.word	0x00001f3f
 9003b84:	00000000 	.word	0x00000000
 9003b88:	00003f41 	.word	0x00003f41
 9003b8c:	0000060f 	.word	0x0000060f

09003b90 <transparency_off>:
 9003b90:	b510      	push	{r4, lr}
 9003b92:	f7ff fffe 	bl	9003b04 <transparency_used_by_weather>
 9003b96:	2800      	cmp	r0, #0
 9003b98:	d002      	beq.n	9003ba0 <transparency_off+0x10>
 9003b9a:	bc10      	pop	{r4}
 9003b9c:	bc01      	pop	{r0}
 9003b9e:	4700      	bx	r0
 9003ba0:	4c07      	ldr	r4, [pc, #28]	@ (9003bc0 <transparency_off+0x30>)
 9003ba2:	4908      	ldr	r1, [pc, #32]	@ (9003bc4 <transparency_off+0x34>)
 9003ba4:	3048      	adds	r0, #72	@ 0x48
 9003ba6:	f000 f898 	bl	9003cda <overworld_tbox_delete+0x3a>
 9003baa:	21f2      	movs	r1, #242	@ 0xf2
 9003bac:	2050      	movs	r0, #80	@ 0x50
 9003bae:	0149      	lsls	r1, r1, #5
 9003bb0:	f000 f893 	bl	9003cda <overworld_tbox_delete+0x3a>
 9003bb4:	2110      	movs	r1, #16
 9003bb6:	2052      	movs	r0, #82	@ 0x52
 9003bb8:	f000 f88f 	bl	9003cda <overworld_tbox_delete+0x3a>
 9003bbc:	e7ed      	b.n	9003b9a <transparency_off+0xa>
 9003bbe:	46c0      	nop			@ (mov r8, r8)
 9003bc0:	00000000 	.word	0x00000000
 9003bc4:	00001f1f 	.word	0x00001f1f

09003bc8 <tbox_frame_std_load_gfx_and_pal>:
 9003bc8:	b570      	push	{r4, r5, r6, lr}
 9003bca:	4b0c      	ldr	r3, [pc, #48]	@ (9003bfc <tbox_frame_std_load_gfx_and_pal+0x34>)
 9003bcc:	000d      	movs	r5, r1
 9003bce:	2100      	movs	r1, #0
 9003bd0:	0014      	movs	r4, r2
 9003bd2:	f000 f881 	bl	9003cd8 <overworld_tbox_delete+0x38>
 9003bd6:	22a0      	movs	r2, #160	@ 0xa0
 9003bd8:	0600      	lsls	r0, r0, #24
 9003bda:	002b      	movs	r3, r5
 9003bdc:	4908      	ldr	r1, [pc, #32]	@ (9003c00 <tbox_frame_std_load_gfx_and_pal+0x38>)
 9003bde:	4d09      	ldr	r5, [pc, #36]	@ (9003c04 <tbox_frame_std_load_gfx_and_pal+0x3c>)
 9003be0:	0e00      	lsrs	r0, r0, #24
 9003be2:	0092      	lsls	r2, r2, #2
 9003be4:	f000 f87a 	bl	9003cdc <overworld_tbox_delete+0x3c>
 9003be8:	2220      	movs	r2, #32
 9003bea:	0021      	movs	r1, r4
 9003bec:	4806      	ldr	r0, [pc, #24]	@ (9003c08 <tbox_frame_std_load_gfx_and_pal+0x40>)
 9003bee:	4b07      	ldr	r3, [pc, #28]	@ (9003c0c <tbox_frame_std_load_gfx_and_pal+0x44>)
 9003bf0:	f000 f872 	bl	9003cd8 <overworld_tbox_delete+0x38>
 9003bf4:	bc70      	pop	{r4, r5, r6}
 9003bf6:	bc01      	pop	{r0}
 9003bf8:	4700      	bx	r0
 9003bfa:	46c0      	nop			@ (mov r8, r8)
	...

09003c10 <tbox_frame_transparent_load_gfx_and_pal>:
 9003c10:	b510      	push	{r4, lr}
 9003c12:	2100      	movs	r1, #0
 9003c14:	4b0b      	ldr	r3, [pc, #44]	@ (9003c44 <tbox_frame_transparent_load_gfx_and_pal+0x34>)
 9003c16:	2000      	movs	r0, #0
 9003c18:	f000 f85e 	bl	9003cd8 <overworld_tbox_delete+0x38>
 9003c1c:	2380      	movs	r3, #128	@ 0x80
 9003c1e:	22a0      	movs	r2, #160	@ 0xa0
 9003c20:	0600      	lsls	r0, r0, #24
 9003c22:	4909      	ldr	r1, [pc, #36]	@ (9003c48 <tbox_frame_transparent_load_gfx_and_pal+0x38>)
 9003c24:	4c09      	ldr	r4, [pc, #36]	@ (9003c4c <tbox_frame_transparent_load_gfx_and_pal+0x3c>)
 9003c26:	0e00      	lsrs	r0, r0, #24
 9003c28:	009b      	lsls	r3, r3, #2
 9003c2a:	0092      	lsls	r2, r2, #2
 9003c2c:	f000 f855 	bl	9003cda <overworld_tbox_delete+0x3a>
 9003c30:	2220      	movs	r2, #32
 9003c32:	21f0      	movs	r1, #240	@ 0xf0
 9003c34:	4806      	ldr	r0, [pc, #24]	@ (9003c50 <tbox_frame_transparent_load_gfx_and_pal+0x40>)
 9003c36:	4b07      	ldr	r3, [pc, #28]	@ (9003c54 <tbox_frame_transparent_load_gfx_and_pal+0x44>)
 9003c38:	f000 f84e 	bl	9003cd8 <overworld_tbox_delete+0x38>
 9003c3c:	bc10      	pop	{r4}
 9003c3e:	bc01      	pop	{r0}
 9003c40:	4700      	bx	r0
 9003c42:	46c0      	nop			@ (mov r8, r8)
	...
 9003c50:	000047c8 	.word	0x000047c8
 9003c54:	00000000 	.word	0x00000000

09003c58 <overworld_tbox_load_gfx>:
 9003c58:	b510      	push	{r4, lr}
 9003c5a:	f7ff fffe 	bl	9003b24 <transparency_is_on>
 9003c5e:	2800      	cmp	r0, #0
 9003c60:	d006      	beq.n	9003c70 <overworld_tbox_load_gfx+0x18>
 9003c62:	f7ff fffe 	bl	9003b54 <transparency_on>
 9003c66:	f7ff fffe 	bl	9003c10 <tbox_frame_transparent_load_gfx_and_pal>
 9003c6a:	bc10      	pop	{r4}
 9003c6c:	bc01      	pop	{r0}
 9003c6e:	4700      	bx	r0
 9003c70:	4b08      	ldr	r3, [pc, #32]	@ (9003c94 <overworld_tbox_load_gfx+0x3c>)
 9003c72:	f000 f831 	bl	9003cd8 <overworld_tbox_delete+0x38>
 9003c76:	2800      	cmp	r0, #0
 9003c78:	d005      	beq.n	9003c86 <overworld_tbox_load_gfx+0x2e>
 9003c7a:	f7ff fffe 	bl	9003b90 <transparency_off>
 9003c7e:	4b06      	ldr	r3, [pc, #24]	@ (9003c98 <overworld_tbox_load_gfx+0x40>)
 9003c80:	f000 f82a 	bl	9003cd8 <overworld_tbox_delete+0x38>
 9003c84:	e7f1      	b.n	9003c6a <overworld_tbox_load_gfx+0x12>
 9003c86:	f7ff fffe 	bl	9003b90 <transparency_off>
 9003c8a:	4b04      	ldr	r3, [pc, #16]	@ (9003c9c <overworld_tbox_load_gfx+0x44>)
 9003c8c:	f000 f824 	bl	9003cd8 <overworld_tbox_delete+0x38>
 9003c90:	e7eb      	b.n	9003c6a <overworld_tbox_load_gfx+0x12>
 9003c92:	46c0      	nop			@ (mov r8, r8)
	...

09003ca0 <overworld_tbox_delete>:
 9003ca0:	b510      	push	{r4, lr}
 9003ca2:	4b0a      	ldr	r3, [pc, #40]	@ (9003ccc <overworld_tbox_delete+0x2c>)
 9003ca4:	f000 f818 	bl	9003cd8 <overworld_tbox_delete+0x38>
 9003ca8:	4b09      	ldr	r3, [pc, #36]	@ (9003cd0 <overworld_tbox_delete+0x30>)
 9003caa:	2101      	movs	r1, #1
 9003cac:	2000      	movs	r0, #0
 9003cae:	f000 f813 	bl	9003cd8 <overworld_tbox_delete+0x38>
 9003cb2:	2200      	movs	r2, #0
 9003cb4:	4b07      	ldr	r3, [pc, #28]	@ (9003cd4 <overworld_tbox_delete+0x34>)
 9003cb6:	701a      	strb	r2, [r3, #0]
 9003cb8:	f7ff fffe 	bl	9003b24 <transparency_is_on>
 9003cbc:	2800      	cmp	r0, #0
 9003cbe:	d102      	bne.n	9003cc6 <overworld_tbox_delete+0x26>
 9003cc0:	bc10      	pop	{r4}
 9003cc2:	bc01      	pop	{r0}
 9003cc4:	4700      	bx	r0
 9003cc6:	f7ff fffe 	bl	9003b90 <transparency_off>
 9003cca:	e7f9      	b.n	9003cc0 <overworld_tbox_delete+0x20>
	...
 9003cd8:	4718      	bx	r3
 9003cda:	4720      	bx	r4
 9003cdc:	4728      	bx	r5
 9003cde:	46c0      	nop			@ (mov r8, r8)

09003ce0 <color_multiply>:
 9003ce0:	b530      	push	{r4, r5, lr}
 9003ce2:	0583      	lsls	r3, r0, #22
 9003ce4:	4a0d      	ldr	r2, [pc, #52]	@ (9003d1c <color_multiply+0x3c>)
 9003ce6:	0edb      	lsrs	r3, r3, #27
 9003ce8:	058c      	lsls	r4, r1, #22
 9003cea:	015b      	lsls	r3, r3, #5
 9003cec:	18d3      	adds	r3, r2, r3
 9003cee:	0ee4      	lsrs	r4, r4, #27
 9003cf0:	5d1c      	ldrb	r4, [r3, r4]
 9003cf2:	0443      	lsls	r3, r0, #17
 9003cf4:	0edb      	lsrs	r3, r3, #27
 9003cf6:	044d      	lsls	r5, r1, #17
 9003cf8:	015b      	lsls	r3, r3, #5
 9003cfa:	0eed      	lsrs	r5, r5, #27
 9003cfc:	18d3      	adds	r3, r2, r3
 9003cfe:	5d5b      	ldrb	r3, [r3, r5]
 9003d00:	0164      	lsls	r4, r4, #5
 9003d02:	029b      	lsls	r3, r3, #10
 9003d04:	431c      	orrs	r4, r3
 9003d06:	06c3      	lsls	r3, r0, #27
 9003d08:	0d9b      	lsrs	r3, r3, #22
 9003d0a:	06c9      	lsls	r1, r1, #27
 9003d0c:	0ec9      	lsrs	r1, r1, #27
 9003d0e:	18d2      	adds	r2, r2, r3
 9003d10:	5c50      	ldrb	r0, [r2, r1]
 9003d12:	4320      	orrs	r0, r4
 9003d14:	bc30      	pop	{r4, r5}
 9003d16:	bc02      	pop	{r1}
 9003d18:	4708      	bx	r1
 9003d1a:	46c0      	nop			@ (mov r8, r8)
 9003d1c:	00000000 	.word	0x00000000

09003d20 <color_alpha_blend>:
 9003d20:	b530      	push	{r4, r5, lr}
 9003d22:	1c04      	adds	r4, r0, #0
 9003d24:	06e0      	lsls	r0, r4, #27
 9003d26:	06cb      	lsls	r3, r1, #27
 9003d28:	0ec0      	lsrs	r0, r0, #27
 9003d2a:	0edb      	lsrs	r3, r3, #27
 9003d2c:	1a1b      	subs	r3, r3, r0
 9003d2e:	4353      	muls	r3, r2
 9003d30:	111b      	asrs	r3, r3, #4
 9003d32:	181b      	adds	r3, r3, r0
 9003d34:	05a5      	lsls	r5, r4, #22
 9003d36:	0588      	lsls	r0, r1, #22
 9003d38:	0464      	lsls	r4, r4, #17
 9003d3a:	0449      	lsls	r1, r1, #17
 9003d3c:	0eed      	lsrs	r5, r5, #27
 9003d3e:	0ee4      	lsrs	r4, r4, #27
 9003d40:	0ec0      	lsrs	r0, r0, #27
 9003d42:	0ec9      	lsrs	r1, r1, #27
 9003d44:	1b40      	subs	r0, r0, r5
 9003d46:	1b09      	subs	r1, r1, r4
 9003d48:	4350      	muls	r0, r2
 9003d4a:	434a      	muls	r2, r1
 9003d4c:	211f      	movs	r1, #31
 9003d4e:	1100      	asrs	r0, r0, #4
 9003d50:	1940      	adds	r0, r0, r5
 9003d52:	1112      	asrs	r2, r2, #4
 9003d54:	1912      	adds	r2, r2, r4
 9003d56:	4008      	ands	r0, r1
 9003d58:	400b      	ands	r3, r1
 9003d5a:	0140      	lsls	r0, r0, #5
 9003d5c:	4011      	ands	r1, r2
 9003d5e:	4318      	orrs	r0, r3
 9003d60:	0289      	lsls	r1, r1, #10
 9003d62:	4308      	orrs	r0, r1
 9003d64:	bc30      	pop	{r4, r5}
 9003d66:	bc02      	pop	{r1}
 9003d68:	4708      	bx	r1
 9003d6a:	46c0      	nop			@ (mov r8, r8)

09003d6c <color_blend_and_multiply>:
 9003d6c:	b510      	push	{r4, lr}
 9003d6e:	4b06      	ldr	r3, [pc, #24]	@ (9003d88 <color_blend_and_multiply+0x1c>)
 9003d70:	1c0c      	adds	r4, r1, #0
 9003d72:	1c01      	adds	r1, r0, #0
 9003d74:	1c18      	adds	r0, r3, #0
 9003d76:	f7ff fffe 	bl	9003d20 <color_alpha_blend>
 9003d7a:	1c21      	adds	r1, r4, #0
 9003d7c:	f7ff ffb0 	bl	9003ce0 <color_multiply>
 9003d80:	bc10      	pop	{r4}
 9003d82:	bc02      	pop	{r1}
 9003d84:	4708      	bx	r1
 9003d86:	46c0      	nop			@ (mov r8, r8)
 9003d88:	00007fff 	.word	0x00007fff

09003d8c <color_to_grayscale>:
 9003d8c:	06c2      	lsls	r2, r0, #27
 9003d8e:	0581      	lsls	r1, r0, #22
 9003d90:	0440      	lsls	r0, r0, #17
 9003d92:	0ec3      	lsrs	r3, r0, #27
 9003d94:	b510      	push	{r4, lr}
 9003d96:	0018      	movs	r0, r3
 9003d98:	001c      	movs	r4, r3
 9003d9a:	0ed2      	lsrs	r2, r2, #27
 9003d9c:	0ec9      	lsrs	r1, r1, #27
 9003d9e:	4299      	cmp	r1, r3
 9003da0:	d900      	bls.n	9003da4 <color_to_grayscale+0x18>
 9003da2:	0008      	movs	r0, r1
 9003da4:	4282      	cmp	r2, r0
 9003da6:	dd00      	ble.n	9003daa <color_to_grayscale+0x1e>
 9003da8:	0010      	movs	r0, r2
 9003daa:	429a      	cmp	r2, r3
 9003dac:	d900      	bls.n	9003db0 <color_to_grayscale+0x24>
 9003dae:	0014      	movs	r4, r2
 9003db0:	1900      	adds	r0, r0, r4
 9003db2:	0840      	lsrs	r0, r0, #1
 9003db4:	0282      	lsls	r2, r0, #10
 9003db6:	0143      	lsls	r3, r0, #5
 9003db8:	4313      	orrs	r3, r2
 9003dba:	4318      	orrs	r0, r3
 9003dbc:	bc10      	pop	{r4}
 9003dbe:	bc02      	pop	{r1}
 9003dc0:	4708      	bx	r1
 9003dc2:	46c0      	nop			@ (mov r8, r8)

09003dc4 <pal_tmp_synchronize_with_pal_restore>:
 9003dc4:	2280      	movs	r2, #128	@ 0x80
 9003dc6:	b510      	push	{r4, lr}
 9003dc8:	4904      	ldr	r1, [pc, #16]	@ (9003ddc <pal_tmp_synchronize_with_pal_restore+0x18>)
 9003dca:	4805      	ldr	r0, [pc, #20]	@ (9003de0 <pal_tmp_synchronize_with_pal_restore+0x1c>)
 9003dcc:	4b05      	ldr	r3, [pc, #20]	@ (9003de4 <pal_tmp_synchronize_with_pal_restore+0x20>)
 9003dce:	0092      	lsls	r2, r2, #2
 9003dd0:	f000 f80a 	bl	9003de8 <pal_tmp_synchronize_with_pal_restore+0x24>
 9003dd4:	bc10      	pop	{r4}
 9003dd6:	bc01      	pop	{r0}
 9003dd8:	4700      	bx	r0
 9003dda:	46c0      	nop			@ (mov r8, r8)
	...
 9003de8:	4718      	bx	r3
 9003dea:	46c0      	nop			@ (mov r8, r8)

09003dec <fading_is_active>:
 9003dec:	4b01      	ldr	r3, [pc, #4]	@ (9003df4 <fading_is_active+0x8>)
 9003dee:	79d8      	ldrb	r0, [r3, #7]
 9003df0:	09c0      	lsrs	r0, r0, #7
 9003df2:	4770      	bx	lr
 9003df4:	00000000 	.word	0x00000000

09003df8 <nullsub>:
 9003df8:	4770      	bx	lr
 9003dfa:	46c0      	nop			@ (mov r8, r8)

09003dfc <version_alpha_2_2_fix_pid>:
 9003dfc:	b5f0      	push	{r4, r5, r6, r7, lr}
 9003dfe:	2200      	movs	r2, #0
 9003e00:	b083      	sub	sp, #12
 9003e02:	210b      	movs	r1, #11
 9003e04:	4d26      	ldr	r5, [pc, #152]	@ (9003ea0 <version_alpha_2_2_fix_pid+0xa4>)
 9003e06:	0004      	movs	r4, r0
 9003e08:	f000 f8de 	bl	9003fc8 <version_transfer_pokedex+0x114>
 9003e0c:	2800      	cmp	r0, #0
 9003e0e:	d103      	bne.n	9003e18 <version_alpha_2_2_fix_pid+0x1c>
 9003e10:	b003      	add	sp, #12
 9003e12:	bcf0      	pop	{r4, r5, r6, r7}
 9003e14:	bc01      	pop	{r0}
 9003e16:	4700      	bx	r0
 9003e18:	2200      	movs	r2, #0
 9003e1a:	2100      	movs	r1, #0
 9003e1c:	0020      	movs	r0, r4
 9003e1e:	f000 f8d3 	bl	9003fc8 <version_transfer_pokedex+0x114>
 9003e22:	0003      	movs	r3, r0
 9003e24:	0201      	lsls	r1, r0, #8
 9003e26:	2080      	movs	r0, #128	@ 0x80
 9003e28:	2200      	movs	r2, #0
 9003e2a:	0c09      	lsrs	r1, r1, #16
 9003e2c:	0080      	lsls	r0, r0, #2
 9003e2e:	9201      	str	r2, [sp, #4]
 9003e30:	4288      	cmp	r0, r1
 9003e32:	4152      	adcs	r2, r2
 9003e34:	0211      	lsls	r1, r2, #8
 9003e36:	2201      	movs	r2, #1
 9003e38:	401a      	ands	r2, r3
 9003e3a:	430a      	orrs	r2, r1
 9003e3c:	2102      	movs	r1, #2
 9003e3e:	31ff      	adds	r1, #255	@ 0xff
 9003e40:	ad01      	add	r5, sp, #4
 9003e42:	400a      	ands	r2, r1
 9003e44:	00db      	lsls	r3, r3, #3
 9003e46:	802a      	strh	r2, [r5, #0]
 9003e48:	0edb      	lsrs	r3, r3, #27
 9003e4a:	2b18      	cmp	r3, #24
 9003e4c:	dd00      	ble.n	9003e50 <version_alpha_2_2_fix_pid+0x54>
 9003e4e:	085b      	lsrs	r3, r3, #1
 9003e50:	466a      	mov	r2, sp
 9003e52:	261f      	movs	r6, #31
 9003e54:	1dd1      	adds	r1, r2, #7
 9003e56:	79d2      	ldrb	r2, [r2, #7]
 9003e58:	43b2      	bics	r2, r6
 9003e5a:	4313      	orrs	r3, r2
 9003e5c:	4f11      	ldr	r7, [pc, #68]	@ (9003ea4 <version_alpha_2_2_fix_pid+0xa8>)
 9003e5e:	700b      	strb	r3, [r1, #0]
 9003e60:	f000 f8b3 	bl	9003fca <version_transfer_pokedex+0x116>
 9003e64:	4b10      	ldr	r3, [pc, #64]	@ (9003ea8 <version_alpha_2_2_fix_pid+0xac>)
 9003e66:	2112      	movs	r1, #18
 9003e68:	f000 f8ac 	bl	9003fc4 <version_transfer_pokedex+0x110>
 9003e6c:	466b      	mov	r3, sp
 9003e6e:	203e      	movs	r0, #62	@ 0x3e
 9003e70:	1d5a      	adds	r2, r3, #5
 9003e72:	795b      	ldrb	r3, [r3, #5]
 9003e74:	400e      	ands	r6, r1
 9003e76:	0076      	lsls	r6, r6, #1
 9003e78:	4383      	bics	r3, r0
 9003e7a:	4333      	orrs	r3, r6
 9003e7c:	7013      	strb	r3, [r2, #0]
 9003e7e:	f000 f8a4 	bl	9003fca <version_transfer_pokedex+0x116>
 9003e82:	2307      	movs	r3, #7
 9003e84:	4a09      	ldr	r2, [pc, #36]	@ (9003eac <version_alpha_2_2_fix_pid+0xb0>)
 9003e86:	4003      	ands	r3, r0
 9003e88:	9801      	ldr	r0, [sp, #4]
 9003e8a:	039b      	lsls	r3, r3, #14
 9003e8c:	4010      	ands	r0, r2
 9003e8e:	4318      	orrs	r0, r3
 9003e90:	9001      	str	r0, [sp, #4]
 9003e92:	002a      	movs	r2, r5
 9003e94:	2100      	movs	r1, #0
 9003e96:	0020      	movs	r0, r4
 9003e98:	4b05      	ldr	r3, [pc, #20]	@ (9003eb0 <version_alpha_2_2_fix_pid+0xb4>)
 9003e9a:	f000 f893 	bl	9003fc4 <version_transfer_pokedex+0x110>
 9003e9e:	e7b7      	b.n	9003e10 <version_alpha_2_2_fix_pid+0x14>
	...
 9003eac:	fffe3fff 	.word	0xfffe3fff
 9003eb0:	00000000 	.word	0x00000000

09003eb4 <version_transfer_pokedex>:
 9003eb4:	b5f0      	push	{r4, r5, r6, r7, lr}
 9003eb6:	46de      	mov	lr, fp
 9003eb8:	4645      	mov	r5, r8
 9003eba:	464e      	mov	r6, r9
 9003ebc:	4657      	mov	r7, sl
 9003ebe:	b5e0      	push	{r5, r6, r7, lr}
 9003ec0:	4c3b      	ldr	r4, [pc, #236]	@ (9003fb0 <version_transfer_pokedex+0xfc>)
 9003ec2:	b087      	sub	sp, #28
 9003ec4:	2034      	movs	r0, #52	@ 0x34
 9003ec6:	f000 f87e 	bl	9003fc6 <version_transfer_pokedex+0x112>
 9003eca:	4680      	mov	r8, r0
 9003ecc:	2034      	movs	r0, #52	@ 0x34
 9003ece:	f000 f87a 	bl	9003fc6 <version_transfer_pokedex+0x112>
 9003ed2:	2200      	movs	r2, #0
 9003ed4:	0006      	movs	r6, r0
 9003ed6:	9002      	str	r0, [sp, #8]
 9003ed8:	4644      	mov	r4, r8
 9003eda:	2000      	movs	r0, #0
 9003edc:	4935      	ldr	r1, [pc, #212]	@ (9003fb4 <version_transfer_pokedex+0x100>)
 9003ede:	680d      	ldr	r5, [r1, #0]
 9003ee0:	18ad      	adds	r5, r5, r2
 9003ee2:	355c      	adds	r5, #92	@ 0x5c
 9003ee4:	782b      	ldrb	r3, [r5, #0]
 9003ee6:	54a3      	strb	r3, [r4, r2]
 9003ee8:	680b      	ldr	r3, [r1, #0]
 9003eea:	189b      	adds	r3, r3, r2
 9003eec:	3328      	adds	r3, #40	@ 0x28
 9003eee:	781b      	ldrb	r3, [r3, #0]
 9003ef0:	54b3      	strb	r3, [r6, r2]
 9003ef2:	680d      	ldr	r5, [r1, #0]
 9003ef4:	18ab      	adds	r3, r5, r2
 9003ef6:	001f      	movs	r7, r3
 9003ef8:	3201      	adds	r2, #1
 9003efa:	375c      	adds	r7, #92	@ 0x5c
 9003efc:	3328      	adds	r3, #40	@ 0x28
 9003efe:	7038      	strb	r0, [r7, #0]
 9003f00:	7018      	strb	r0, [r3, #0]
 9003f02:	2a34      	cmp	r2, #52	@ 0x34
 9003f04:	d1ec      	bne.n	9003ee0 <version_transfer_pokedex+0x2c>
 9003f06:	4b2c      	ldr	r3, [pc, #176]	@ (9003fb8 <version_transfer_pokedex+0x104>)
 9003f08:	9303      	str	r3, [sp, #12]
 9003f0a:	4b2c      	ldr	r3, [pc, #176]	@ (9003fbc <version_transfer_pokedex+0x108>)
 9003f0c:	9304      	str	r3, [sp, #16]
 9003f0e:	23dd      	movs	r3, #221	@ 0xdd
 9003f10:	009b      	lsls	r3, r3, #2
 9003f12:	46a0      	mov	r8, r4
 9003f14:	2607      	movs	r6, #7
 9003f16:	2400      	movs	r4, #0
 9003f18:	2001      	movs	r0, #1
 9003f1a:	469b      	mov	fp, r3
 9003f1c:	46aa      	mov	sl, r5
 9003f1e:	0037      	movs	r7, r6
 9003f20:	9b03      	ldr	r3, [sp, #12]
 9003f22:	5b1d      	ldrh	r5, [r3, r4]
 9003f24:	3d01      	subs	r5, #1
 9003f26:	17ea      	asrs	r2, r5, #31
 9003f28:	4032      	ands	r2, r6
 9003f2a:	402f      	ands	r7, r5
 9003f2c:	1952      	adds	r2, r2, r5
 9003f2e:	4645      	mov	r5, r8
 9003f30:	10d2      	asrs	r2, r2, #3
 9003f32:	5cad      	ldrb	r5, [r5, r2]
 9003f34:	413d      	asrs	r5, r7
 9003f36:	9b04      	ldr	r3, [sp, #16]
 9003f38:	5b19      	ldrh	r1, [r3, r4]
 9003f3a:	3901      	subs	r1, #1
 9003f3c:	17cb      	asrs	r3, r1, #31
 9003f3e:	4033      	ands	r3, r6
 9003f40:	185b      	adds	r3, r3, r1
 9003f42:	10db      	asrs	r3, r3, #3
 9003f44:	9301      	str	r3, [sp, #4]
 9003f46:	4031      	ands	r1, r6
 9003f48:	4228      	tst	r0, r5
 9003f4a:	d00f      	beq.n	9003f6c <version_transfer_pokedex+0xb8>
 9003f4c:	469c      	mov	ip, r3
 9003f4e:	4655      	mov	r5, sl
 9003f50:	4465      	add	r5, ip
 9003f52:	355c      	adds	r5, #92	@ 0x5c
 9003f54:	9505      	str	r5, [sp, #20]
 9003f56:	782d      	ldrb	r5, [r5, #0]
 9003f58:	46ac      	mov	ip, r5
 9003f5a:	0005      	movs	r5, r0
 9003f5c:	408d      	lsls	r5, r1
 9003f5e:	46a9      	mov	r9, r5
 9003f60:	4665      	mov	r5, ip
 9003f62:	464b      	mov	r3, r9
 9003f64:	431d      	orrs	r5, r3
 9003f66:	002b      	movs	r3, r5
 9003f68:	9d05      	ldr	r5, [sp, #20]
 9003f6a:	702b      	strb	r3, [r5, #0]
 9003f6c:	9d02      	ldr	r5, [sp, #8]
 9003f6e:	5caa      	ldrb	r2, [r5, r2]
 9003f70:	413a      	asrs	r2, r7
 9003f72:	4210      	tst	r0, r2
 9003f74:	d008      	beq.n	9003f88 <version_transfer_pokedex+0xd4>
 9003f76:	0002      	movs	r2, r0
 9003f78:	408a      	lsls	r2, r1
 9003f7a:	0011      	movs	r1, r2
 9003f7c:	9b01      	ldr	r3, [sp, #4]
 9003f7e:	4453      	add	r3, sl
 9003f80:	3328      	adds	r3, #40	@ 0x28
 9003f82:	781a      	ldrb	r2, [r3, #0]
 9003f84:	430a      	orrs	r2, r1
 9003f86:	701a      	strb	r2, [r3, #0]
 9003f88:	3402      	adds	r4, #2
 9003f8a:	455c      	cmp	r4, fp
 9003f8c:	d1c7      	bne.n	9003f1e <version_transfer_pokedex+0x6a>
 9003f8e:	4640      	mov	r0, r8
 9003f90:	4c0b      	ldr	r4, [pc, #44]	@ (9003fc0 <version_transfer_pokedex+0x10c>)
 9003f92:	f000 f818 	bl	9003fc6 <version_transfer_pokedex+0x112>
 9003f96:	9802      	ldr	r0, [sp, #8]
 9003f98:	f000 f815 	bl	9003fc6 <version_transfer_pokedex+0x112>
 9003f9c:	b007      	add	sp, #28
 9003f9e:	bcf0      	pop	{r4, r5, r6, r7}
 9003fa0:	46bb      	mov	fp, r7
 9003fa2:	46b2      	mov	sl, r6
 9003fa4:	46a9      	mov	r9, r5
 9003fa6:	46a0      	mov	r8, r4
 9003fa8:	bcf0      	pop	{r4, r5, r6, r7}
 9003faa:	bc01      	pop	{r0}
 9003fac:	4700      	bx	r0
 9003fae:	46c0      	nop			@ (mov r8, r8)
	...
 9003fc4:	4718      	bx	r3
 9003fc6:	4720      	bx	r4
 9003fc8:	4728      	bx	r5
 9003fca:	4738      	bx	r7

09003fcc <alpha_3_0_fix_pokemon_pokeball>:
 9003fcc:	b510      	push	{r4, lr}
 9003fce:	2126      	movs	r1, #38	@ 0x26
 9003fd0:	b082      	sub	sp, #8
 9003fd2:	2200      	movs	r2, #0
 9003fd4:	4b0b      	ldr	r3, [pc, #44]	@ (9004004 <alpha_3_0_fix_pokemon_pokeball+0x38>)
 9003fd6:	0004      	movs	r4, r0
 9003fd8:	f000 f81a 	bl	9004010 <alpha_3_0_fix_pokemon_pokeball+0x44>
 9003fdc:	466a      	mov	r2, sp
 9003fde:	0603      	lsls	r3, r0, #24
 9003fe0:	71d0      	strb	r0, [r2, #7]
 9003fe2:	0e58      	lsrs	r0, r3, #25
 9003fe4:	4b08      	ldr	r3, [pc, #32]	@ (9004008 <alpha_3_0_fix_pokemon_pokeball+0x3c>)
 9003fe6:	f000 f813 	bl	9004010 <alpha_3_0_fix_pokemon_pokeball+0x44>
 9003fea:	466b      	mov	r3, sp
 9003fec:	2126      	movs	r1, #38	@ 0x26
 9003fee:	71d8      	strb	r0, [r3, #7]
 9003ff0:	1dda      	adds	r2, r3, #7
 9003ff2:	0020      	movs	r0, r4
 9003ff4:	4b05      	ldr	r3, [pc, #20]	@ (900400c <alpha_3_0_fix_pokemon_pokeball+0x40>)
 9003ff6:	f000 f80b 	bl	9004010 <alpha_3_0_fix_pokemon_pokeball+0x44>
 9003ffa:	b002      	add	sp, #8
 9003ffc:	bc10      	pop	{r4}
 9003ffe:	bc01      	pop	{r0}
 9004000:	4700      	bx	r0
 9004002:	46c0      	nop			@ (mov r8, r8)
	...
 9004010:	4718      	bx	r3
 9004012:	46c0      	nop			@ (mov r8, r8)

09004014 <version_init>:
 9004014:	b510      	push	{r4, lr}
 9004016:	4b04      	ldr	r3, [pc, #16]	@ (9004028 <version_init+0x14>)
 9004018:	4804      	ldr	r0, [pc, #16]	@ (900402c <version_init+0x18>)
 900401a:	f000 fb51 	bl	90046c0 <version_is_latest+0x20>
 900401e:	2305      	movs	r3, #5
 9004020:	8003      	strh	r3, [r0, #0]
 9004022:	bc10      	pop	{r4}
 9004024:	bc01      	pop	{r0}
 9004026:	4700      	bx	r0
 9004028:	00000000 	.word	0x00000000
 900402c:	000050cd 	.word	0x000050cd

09004030 <version_upgrade_alpha_1_X_to_2_0>:
 9004030:	b5f8      	push	{r3, r4, r5, r6, r7, lr}
 9004032:	4819      	ldr	r0, [pc, #100]	@ (9004098 <version_upgrade_alpha_1_X_to_2_0+0x68>)
 9004034:	4b19      	ldr	r3, [pc, #100]	@ (900409c <version_upgrade_alpha_1_X_to_2_0+0x6c>)
 9004036:	f000 fb43 	bl	90046c0 <version_is_latest+0x20>
 900403a:	4817      	ldr	r0, [pc, #92]	@ (9004098 <version_upgrade_alpha_1_X_to_2_0+0x68>)
 900403c:	4b18      	ldr	r3, [pc, #96]	@ (90040a0 <version_upgrade_alpha_1_X_to_2_0+0x70>)
 900403e:	f000 fb3f 	bl	90046c0 <version_is_latest+0x20>
 9004042:	4b18      	ldr	r3, [pc, #96]	@ (90040a4 <version_upgrade_alpha_1_X_to_2_0+0x74>)
 9004044:	f000 fb3c 	bl	90046c0 <version_is_latest+0x20>
 9004048:	4817      	ldr	r0, [pc, #92]	@ (90040a8 <version_upgrade_alpha_1_X_to_2_0+0x78>)
 900404a:	4b18      	ldr	r3, [pc, #96]	@ (90040ac <version_upgrade_alpha_1_X_to_2_0+0x7c>)
 900404c:	f000 fb38 	bl	90046c0 <version_is_latest+0x20>
 9004050:	2400      	movs	r4, #0
 9004052:	4d17      	ldr	r5, [pc, #92]	@ (90040b0 <version_upgrade_alpha_1_X_to_2_0+0x80>)
 9004054:	4e17      	ldr	r6, [pc, #92]	@ (90040b4 <version_upgrade_alpha_1_X_to_2_0+0x84>)
 9004056:	4f18      	ldr	r7, [pc, #96]	@ (90040b8 <version_upgrade_alpha_1_X_to_2_0+0x88>)
 9004058:	e004      	b.n	9004064 <version_upgrade_alpha_1_X_to_2_0+0x34>
 900405a:	0028      	movs	r0, r5
 900405c:	f000 fb34 	bl	90046c8 <version_is_latest+0x28>
 9004060:	3401      	adds	r4, #1
 9004062:	3564      	adds	r5, #100	@ 0x64
 9004064:	f000 fb2f 	bl	90046c6 <version_is_latest+0x26>
 9004068:	42a0      	cmp	r0, r4
 900406a:	dcf6      	bgt.n	900405a <version_upgrade_alpha_1_X_to_2_0+0x2a>
 900406c:	4813      	ldr	r0, [pc, #76]	@ (90040bc <version_upgrade_alpha_1_X_to_2_0+0x8c>)
 900406e:	4b14      	ldr	r3, [pc, #80]	@ (90040c0 <version_upgrade_alpha_1_X_to_2_0+0x90>)
 9004070:	f000 fb26 	bl	90046c0 <version_is_latest+0x20>
 9004074:	2800      	cmp	r0, #0
 9004076:	d108      	bne.n	900408a <version_upgrade_alpha_1_X_to_2_0+0x5a>
 9004078:	4b12      	ldr	r3, [pc, #72]	@ (90040c4 <version_upgrade_alpha_1_X_to_2_0+0x94>)
 900407a:	4813      	ldr	r0, [pc, #76]	@ (90040c8 <version_upgrade_alpha_1_X_to_2_0+0x98>)
 900407c:	f000 fb20 	bl	90046c0 <version_is_latest+0x20>
 9004080:	2301      	movs	r3, #1
 9004082:	8003      	strh	r3, [r0, #0]
 9004084:	bcf8      	pop	{r3, r4, r5, r6, r7}
 9004086:	bc01      	pop	{r0}
 9004088:	4700      	bx	r0
 900408a:	2101      	movs	r1, #1
 900408c:	4b0f      	ldr	r3, [pc, #60]	@ (90040cc <version_upgrade_alpha_1_X_to_2_0+0x9c>)
 900408e:	20ec      	movs	r0, #236	@ 0xec
 9004090:	f000 fb16 	bl	90046c0 <version_is_latest+0x20>
 9004094:	e7f0      	b.n	9004078 <version_upgrade_alpha_1_X_to_2_0+0x48>
 9004096:	46c0      	nop			@ (mov r8, r8)
 9004098:	00000892 	.word	0x00000892
	...
 90040a8:	0000096b 	.word	0x0000096b
	...
 90040bc:	0000090a 	.word	0x0000090a
	...
 90040c8:	000050cd 	.word	0x000050cd
 90040cc:	00000000 	.word	0x00000000

090040d0 <version_upgrade_alpha_2_0_to_2_1>:
 90040d0:	b510      	push	{r4, lr}
 90040d2:	4807      	ldr	r0, [pc, #28]	@ (90040f0 <version_upgrade_alpha_2_0_to_2_1+0x20>)
 90040d4:	4c07      	ldr	r4, [pc, #28]	@ (90040f4 <version_upgrade_alpha_2_0_to_2_1+0x24>)
 90040d6:	f000 faf4 	bl	90046c2 <version_is_latest+0x22>
 90040da:	2302      	movs	r3, #2
 90040dc:	8003      	strh	r3, [r0, #0]
 90040de:	4806      	ldr	r0, [pc, #24]	@ (90040f8 <version_upgrade_alpha_2_0_to_2_1+0x28>)
 90040e0:	f000 faef 	bl	90046c2 <version_is_latest+0x22>
 90040e4:	2300      	movs	r3, #0
 90040e6:	8003      	strh	r3, [r0, #0]
 90040e8:	bc10      	pop	{r4}
 90040ea:	bc01      	pop	{r0}
 90040ec:	4700      	bx	r0
 90040ee:	46c0      	nop			@ (mov r8, r8)
 90040f0:	000050cd 	.word	0x000050cd
 90040f4:	00000000 	.word	0x00000000
 90040f8:	000050e3 	.word	0x000050e3

090040fc <version_upgrade_alpha_2_1_to_2_2>:
 90040fc:	b5f8      	push	{r3, r4, r5, r6, r7, lr}
 90040fe:	46ce      	mov	lr, r9
 9004100:	4647      	mov	r7, r8
 9004102:	4d87      	ldr	r5, [pc, #540]	@ (9004320 <version_upgrade_alpha_2_1_to_2_2+0x224>)
 9004104:	b580      	push	{r7, lr}
 9004106:	4887      	ldr	r0, [pc, #540]	@ (9004324 <version_upgrade_alpha_2_1_to_2_2+0x228>)
 9004108:	f000 fadc 	bl	90046c4 <version_is_latest+0x24>
 900410c:	2603      	movs	r6, #3
 900410e:	8006      	strh	r6, [r0, #0]
 9004110:	4885      	ldr	r0, [pc, #532]	@ (9004328 <version_upgrade_alpha_2_1_to_2_2+0x22c>)
 9004112:	f000 fad7 	bl	90046c4 <version_is_latest+0x24>
 9004116:	230a      	movs	r3, #10
 9004118:	8003      	strh	r3, [r0, #0]
 900411a:	4884      	ldr	r0, [pc, #528]	@ (900432c <version_upgrade_alpha_2_1_to_2_2+0x230>)
 900411c:	f000 fad2 	bl	90046c4 <version_is_latest+0x24>
 9004120:	2401      	movs	r4, #1
 9004122:	8004      	strh	r4, [r0, #0]
 9004124:	4882      	ldr	r0, [pc, #520]	@ (9004330 <version_upgrade_alpha_2_1_to_2_2+0x234>)
 9004126:	f000 facd 	bl	90046c4 <version_is_latest+0x24>
 900412a:	8006      	strh	r6, [r0, #0]
 900412c:	4881      	ldr	r0, [pc, #516]	@ (9004334 <version_upgrade_alpha_2_1_to_2_2+0x238>)
 900412e:	f000 fac9 	bl	90046c4 <version_is_latest+0x24>
 9004132:	2308      	movs	r3, #8
 9004134:	8003      	strh	r3, [r0, #0]
 9004136:	4880      	ldr	r0, [pc, #512]	@ (9004338 <version_upgrade_alpha_2_1_to_2_2+0x23c>)
 9004138:	f000 fac4 	bl	90046c4 <version_is_latest+0x24>
 900413c:	8004      	strh	r4, [r0, #0]
 900413e:	4c7f      	ldr	r4, [pc, #508]	@ (900433c <version_upgrade_alpha_2_1_to_2_2+0x240>)
 9004140:	487f      	ldr	r0, [pc, #508]	@ (9004340 <version_upgrade_alpha_2_1_to_2_2+0x244>)
 9004142:	f000 fabe 	bl	90046c2 <version_is_latest+0x22>
 9004146:	487f      	ldr	r0, [pc, #508]	@ (9004344 <version_upgrade_alpha_2_1_to_2_2+0x248>)
 9004148:	f000 fabb 	bl	90046c2 <version_is_latest+0x22>
 900414c:	487e      	ldr	r0, [pc, #504]	@ (9004348 <version_upgrade_alpha_2_1_to_2_2+0x24c>)
 900414e:	f000 fab8 	bl	90046c2 <version_is_latest+0x22>
 9004152:	487e      	ldr	r0, [pc, #504]	@ (900434c <version_upgrade_alpha_2_1_to_2_2+0x250>)
 9004154:	f000 fab5 	bl	90046c2 <version_is_latest+0x22>
 9004158:	487d      	ldr	r0, [pc, #500]	@ (9004350 <version_upgrade_alpha_2_1_to_2_2+0x254>)
 900415a:	f000 fab2 	bl	90046c2 <version_is_latest+0x22>
 900415e:	487d      	ldr	r0, [pc, #500]	@ (9004354 <version_upgrade_alpha_2_1_to_2_2+0x258>)
 9004160:	f000 faaf 	bl	90046c2 <version_is_latest+0x22>
 9004164:	487c      	ldr	r0, [pc, #496]	@ (9004358 <version_upgrade_alpha_2_1_to_2_2+0x25c>)
 9004166:	f000 faac 	bl	90046c2 <version_is_latest+0x22>
 900416a:	487c      	ldr	r0, [pc, #496]	@ (900435c <version_upgrade_alpha_2_1_to_2_2+0x260>)
 900416c:	f000 faa9 	bl	90046c2 <version_is_latest+0x22>
 9004170:	487b      	ldr	r0, [pc, #492]	@ (9004360 <version_upgrade_alpha_2_1_to_2_2+0x264>)
 9004172:	f000 faa6 	bl	90046c2 <version_is_latest+0x22>
 9004176:	487b      	ldr	r0, [pc, #492]	@ (9004364 <version_upgrade_alpha_2_1_to_2_2+0x268>)
 9004178:	f000 faa3 	bl	90046c2 <version_is_latest+0x22>
 900417c:	487a      	ldr	r0, [pc, #488]	@ (9004368 <version_upgrade_alpha_2_1_to_2_2+0x26c>)
 900417e:	f000 faa0 	bl	90046c2 <version_is_latest+0x22>
 9004182:	487a      	ldr	r0, [pc, #488]	@ (900436c <version_upgrade_alpha_2_1_to_2_2+0x270>)
 9004184:	f000 fa9d 	bl	90046c2 <version_is_latest+0x22>
 9004188:	4879      	ldr	r0, [pc, #484]	@ (9004370 <version_upgrade_alpha_2_1_to_2_2+0x274>)
 900418a:	f000 fa9a 	bl	90046c2 <version_is_latest+0x22>
 900418e:	4879      	ldr	r0, [pc, #484]	@ (9004374 <version_upgrade_alpha_2_1_to_2_2+0x278>)
 9004190:	f000 fa97 	bl	90046c2 <version_is_latest+0x22>
 9004194:	4878      	ldr	r0, [pc, #480]	@ (9004378 <version_upgrade_alpha_2_1_to_2_2+0x27c>)
 9004196:	f000 fa94 	bl	90046c2 <version_is_latest+0x22>
 900419a:	4878      	ldr	r0, [pc, #480]	@ (900437c <version_upgrade_alpha_2_1_to_2_2+0x280>)
 900419c:	f000 fa91 	bl	90046c2 <version_is_latest+0x22>
 90041a0:	4b77      	ldr	r3, [pc, #476]	@ (9004380 <version_upgrade_alpha_2_1_to_2_2+0x284>)
 90041a2:	4878      	ldr	r0, [pc, #480]	@ (9004384 <version_upgrade_alpha_2_1_to_2_2+0x288>)
 90041a4:	4699      	mov	r9, r3
 90041a6:	f000 fa8b 	bl	90046c0 <version_is_latest+0x20>
 90041aa:	4877      	ldr	r0, [pc, #476]	@ (9004388 <version_upgrade_alpha_2_1_to_2_2+0x28c>)
 90041ac:	f000 fa8e 	bl	90046cc <version_is_latest+0x2c>
 90041b0:	4876      	ldr	r0, [pc, #472]	@ (900438c <version_upgrade_alpha_2_1_to_2_2+0x290>)
 90041b2:	f000 fa8b 	bl	90046cc <version_is_latest+0x2c>
 90041b6:	4876      	ldr	r0, [pc, #472]	@ (9004390 <version_upgrade_alpha_2_1_to_2_2+0x294>)
 90041b8:	f000 fa88 	bl	90046cc <version_is_latest+0x2c>
 90041bc:	4875      	ldr	r0, [pc, #468]	@ (9004394 <version_upgrade_alpha_2_1_to_2_2+0x298>)
 90041be:	f000 fa80 	bl	90046c2 <version_is_latest+0x22>
 90041c2:	4875      	ldr	r0, [pc, #468]	@ (9004398 <version_upgrade_alpha_2_1_to_2_2+0x29c>)
 90041c4:	f000 fa7d 	bl	90046c2 <version_is_latest+0x22>
 90041c8:	4874      	ldr	r0, [pc, #464]	@ (900439c <version_upgrade_alpha_2_1_to_2_2+0x2a0>)
 90041ca:	f000 fa7a 	bl	90046c2 <version_is_latest+0x22>
 90041ce:	4874      	ldr	r0, [pc, #464]	@ (90043a0 <version_upgrade_alpha_2_1_to_2_2+0x2a4>)
 90041d0:	f000 fa77 	bl	90046c2 <version_is_latest+0x22>
 90041d4:	4b73      	ldr	r3, [pc, #460]	@ (90043a4 <version_upgrade_alpha_2_1_to_2_2+0x2a8>)
 90041d6:	4874      	ldr	r0, [pc, #464]	@ (90043a8 <version_upgrade_alpha_2_1_to_2_2+0x2ac>)
 90041d8:	4698      	mov	r8, r3
 90041da:	f000 fa71 	bl	90046c0 <version_is_latest+0x20>
 90041de:	2800      	cmp	r0, #0
 90041e0:	d000      	beq.n	90041e4 <version_upgrade_alpha_2_1_to_2_2+0xe8>
 90041e2:	e08a      	b.n	90042fa <version_upgrade_alpha_2_1_to_2_2+0x1fe>
 90041e4:	4871      	ldr	r0, [pc, #452]	@ (90043ac <version_upgrade_alpha_2_1_to_2_2+0x2b0>)
 90041e6:	f000 fa70 	bl	90046ca <version_is_latest+0x2a>
 90041ea:	2800      	cmp	r0, #0
 90041ec:	d000      	beq.n	90041f0 <version_upgrade_alpha_2_1_to_2_2+0xf4>
 90041ee:	e08d      	b.n	900430c <version_upgrade_alpha_2_1_to_2_2+0x210>
 90041f0:	486e      	ldr	r0, [pc, #440]	@ (90043ac <version_upgrade_alpha_2_1_to_2_2+0x2b0>)
 90041f2:	f000 fa6b 	bl	90046cc <version_is_latest+0x2c>
 90041f6:	4c6e      	ldr	r4, [pc, #440]	@ (90043b0 <version_upgrade_alpha_2_1_to_2_2+0x2b4>)
 90041f8:	486e      	ldr	r0, [pc, #440]	@ (90043b4 <version_upgrade_alpha_2_1_to_2_2+0x2b8>)
 90041fa:	f000 fa62 	bl	90046c2 <version_is_latest+0x22>
 90041fe:	486e      	ldr	r0, [pc, #440]	@ (90043b8 <version_upgrade_alpha_2_1_to_2_2+0x2bc>)
 9004200:	f000 fa5f 	bl	90046c2 <version_is_latest+0x22>
 9004204:	486b      	ldr	r0, [pc, #428]	@ (90043b4 <version_upgrade_alpha_2_1_to_2_2+0x2b8>)
 9004206:	4c6d      	ldr	r4, [pc, #436]	@ (90043bc <version_upgrade_alpha_2_1_to_2_2+0x2c0>)
 9004208:	f000 fa5b 	bl	90046c2 <version_is_latest+0x22>
 900420c:	486a      	ldr	r0, [pc, #424]	@ (90043b8 <version_upgrade_alpha_2_1_to_2_2+0x2bc>)
 900420e:	f000 fa58 	bl	90046c2 <version_is_latest+0x22>
 9004212:	4b6b      	ldr	r3, [pc, #428]	@ (90043c0 <version_upgrade_alpha_2_1_to_2_2+0x2c4>)
 9004214:	f000 fa54 	bl	90046c0 <version_is_latest+0x20>
 9004218:	2800      	cmp	r0, #0
 900421a:	d068      	beq.n	90042ee <version_upgrade_alpha_2_1_to_2_2+0x1f2>
 900421c:	4869      	ldr	r0, [pc, #420]	@ (90043c4 <version_upgrade_alpha_2_1_to_2_2+0x2c8>)
 900421e:	f000 fa51 	bl	90046c4 <version_is_latest+0x24>
 9004222:	2300      	movs	r3, #0
 9004224:	8003      	strh	r3, [r0, #0]
 9004226:	4b68      	ldr	r3, [pc, #416]	@ (90043c8 <version_upgrade_alpha_2_1_to_2_2+0x2cc>)
 9004228:	f000 fa4a 	bl	90046c0 <version_is_latest+0x20>
 900422c:	4b67      	ldr	r3, [pc, #412]	@ (90043cc <version_upgrade_alpha_2_1_to_2_2+0x2d0>)
 900422e:	f000 fa47 	bl	90046c0 <version_is_latest+0x20>
 9004232:	4b67      	ldr	r3, [pc, #412]	@ (90043d0 <version_upgrade_alpha_2_1_to_2_2+0x2d4>)
 9004234:	f000 fa44 	bl	90046c0 <version_is_latest+0x20>
 9004238:	4b66      	ldr	r3, [pc, #408]	@ (90043d4 <version_upgrade_alpha_2_1_to_2_2+0x2d8>)
 900423a:	f000 fa41 	bl	90046c0 <version_is_latest+0x20>
 900423e:	2396      	movs	r3, #150	@ 0x96
 9004240:	4c65      	ldr	r4, [pc, #404]	@ (90043d8 <version_upgrade_alpha_2_1_to_2_2+0x2dc>)
 9004242:	009b      	lsls	r3, r3, #2
 9004244:	4e65      	ldr	r6, [pc, #404]	@ (90043dc <version_upgrade_alpha_2_1_to_2_2+0x2e0>)
 9004246:	4d66      	ldr	r5, [pc, #408]	@ (90043e0 <version_upgrade_alpha_2_1_to_2_2+0x2e4>)
 9004248:	18e7      	adds	r7, r4, r3
 900424a:	0020      	movs	r0, r4
 900424c:	f000 fa3b 	bl	90046c6 <version_is_latest+0x26>
 9004250:	0020      	movs	r0, r4
 9004252:	3464      	adds	r4, #100	@ 0x64
 9004254:	f000 fa36 	bl	90046c4 <version_is_latest+0x24>
 9004258:	42bc      	cmp	r4, r7
 900425a:	d1f6      	bne.n	900424a <version_upgrade_alpha_2_1_to_2_2+0x14e>
 900425c:	2500      	movs	r5, #0
 900425e:	4f61      	ldr	r7, [pc, #388]	@ (90043e4 <version_upgrade_alpha_2_1_to_2_2+0x2e8>)
 9004260:	2400      	movs	r4, #0
 9004262:	0021      	movs	r1, r4
 9004264:	0028      	movs	r0, r5
 9004266:	f000 fa2f 	bl	90046c8 <version_is_latest+0x28>
 900426a:	3401      	adds	r4, #1
 900426c:	f000 fa2b 	bl	90046c6 <version_is_latest+0x26>
 9004270:	2c1e      	cmp	r4, #30
 9004272:	d1f6      	bne.n	9004262 <version_upgrade_alpha_2_1_to_2_2+0x166>
 9004274:	3501      	adds	r5, #1
 9004276:	2d0f      	cmp	r5, #15
 9004278:	d1f2      	bne.n	9004260 <version_upgrade_alpha_2_1_to_2_2+0x164>
 900427a:	4e5b      	ldr	r6, [pc, #364]	@ (90043e8 <version_upgrade_alpha_2_1_to_2_2+0x2ec>)
 900427c:	0035      	movs	r5, r6
 900427e:	36b1      	adds	r6, #177	@ 0xb1
 9004280:	350c      	adds	r5, #12
 9004282:	36ff      	adds	r6, #255	@ 0xff
 9004284:	002c      	movs	r4, r5
 9004286:	3c08      	subs	r4, #8
 9004288:	7820      	ldrb	r0, [r4, #0]
 900428a:	28ff      	cmp	r0, #255	@ 0xff
 900428c:	d005      	beq.n	900429a <version_upgrade_alpha_2_1_to_2_2+0x19e>
 900428e:	23fa      	movs	r3, #250	@ 0xfa
 9004290:	009b      	lsls	r3, r3, #2
 9004292:	469c      	mov	ip, r3
 9004294:	4460      	add	r0, ip
 9004296:	f000 fa19 	bl	90046cc <version_is_latest+0x2c>
 900429a:	7a20      	ldrb	r0, [r4, #8]
 900429c:	28ff      	cmp	r0, #255	@ 0xff
 900429e:	d005      	beq.n	90042ac <version_upgrade_alpha_2_1_to_2_2+0x1b0>
 90042a0:	23fa      	movs	r3, #250	@ 0xfa
 90042a2:	009b      	lsls	r3, r3, #2
 90042a4:	469c      	mov	ip, r3
 90042a6:	4460      	add	r0, ip
 90042a8:	f000 fa10 	bl	90046cc <version_is_latest+0x2c>
 90042ac:	7c20      	ldrb	r0, [r4, #16]
 90042ae:	28ff      	cmp	r0, #255	@ 0xff
 90042b0:	d005      	beq.n	90042be <version_upgrade_alpha_2_1_to_2_2+0x1c2>
 90042b2:	23fa      	movs	r3, #250	@ 0xfa
 90042b4:	009b      	lsls	r3, r3, #2
 90042b6:	469c      	mov	ip, r3
 90042b8:	4460      	add	r0, ip
 90042ba:	f000 fa07 	bl	90046cc <version_is_latest+0x2c>
 90042be:	3401      	adds	r4, #1
 90042c0:	42ac      	cmp	r4, r5
 90042c2:	d1e1      	bne.n	9004288 <version_upgrade_alpha_2_1_to_2_2+0x18c>
 90042c4:	341c      	adds	r4, #28
 90042c6:	0025      	movs	r5, r4
 90042c8:	42b4      	cmp	r4, r6
 90042ca:	d1db      	bne.n	9004284 <version_upgrade_alpha_2_1_to_2_2+0x188>
 90042cc:	4847      	ldr	r0, [pc, #284]	@ (90043ec <version_upgrade_alpha_2_1_to_2_2+0x2f0>)
 90042ce:	f000 f9fd 	bl	90046cc <version_is_latest+0x2c>
 90042d2:	4b47      	ldr	r3, [pc, #284]	@ (90043f0 <version_upgrade_alpha_2_1_to_2_2+0x2f4>)
 90042d4:	f000 f9f4 	bl	90046c0 <version_is_latest+0x20>
 90042d8:	4846      	ldr	r0, [pc, #280]	@ (90043f4 <version_upgrade_alpha_2_1_to_2_2+0x2f8>)
 90042da:	f000 f9f6 	bl	90046ca <version_is_latest+0x2a>
 90042de:	2800      	cmp	r0, #0
 90042e0:	d118      	bne.n	9004314 <version_upgrade_alpha_2_1_to_2_2+0x218>
 90042e2:	bcc0      	pop	{r6, r7}
 90042e4:	46b9      	mov	r9, r7
 90042e6:	46b0      	mov	r8, r6
 90042e8:	bcf8      	pop	{r3, r4, r5, r6, r7}
 90042ea:	bc01      	pop	{r0}
 90042ec:	4700      	bx	r0
 90042ee:	4835      	ldr	r0, [pc, #212]	@ (90043c4 <version_upgrade_alpha_2_1_to_2_2+0x2c8>)
 90042f0:	f000 f9e8 	bl	90046c4 <version_is_latest+0x24>
 90042f4:	2301      	movs	r3, #1
 90042f6:	8003      	strh	r3, [r0, #0]
 90042f8:	e795      	b.n	9004226 <version_upgrade_alpha_2_1_to_2_2+0x12a>
 90042fa:	483f      	ldr	r0, [pc, #252]	@ (90043f8 <version_upgrade_alpha_2_1_to_2_2+0x2fc>)
 90042fc:	f000 f9e1 	bl	90046c2 <version_is_latest+0x22>
 9004300:	482a      	ldr	r0, [pc, #168]	@ (90043ac <version_upgrade_alpha_2_1_to_2_2+0x2b0>)
 9004302:	f000 f9e2 	bl	90046ca <version_is_latest+0x2a>
 9004306:	2800      	cmp	r0, #0
 9004308:	d100      	bne.n	900430c <version_upgrade_alpha_2_1_to_2_2+0x210>
 900430a:	e771      	b.n	90041f0 <version_upgrade_alpha_2_1_to_2_2+0xf4>
 900430c:	483b      	ldr	r0, [pc, #236]	@ (90043fc <version_upgrade_alpha_2_1_to_2_2+0x300>)
 900430e:	f000 f9d8 	bl	90046c2 <version_is_latest+0x22>
 9004312:	e76d      	b.n	90041f0 <version_upgrade_alpha_2_1_to_2_2+0xf4>
 9004314:	2002      	movs	r0, #2
 9004316:	4b3a      	ldr	r3, [pc, #232]	@ (9004400 <version_upgrade_alpha_2_1_to_2_2+0x304>)
 9004318:	f000 f9d2 	bl	90046c0 <version_is_latest+0x20>
 900431c:	e7e1      	b.n	90042e2 <version_upgrade_alpha_2_1_to_2_2+0x1e6>
 900431e:	46c0      	nop			@ (mov r8, r8)
 9004320:	00000000 	.word	0x00000000
 9004324:	000050cd 	.word	0x000050cd
 9004328:	000050cb 	.word	0x000050cb
 900432c:	000050ca 	.word	0x000050ca
 9004330:	000050c9 	.word	0x000050c9
 9004334:	000050e8 	.word	0x000050e8
 9004338:	000050b6 	.word	0x000050b6
 900433c:	00000000 	.word	0x00000000
 9004340:	00000902 	.word	0x00000902
 9004344:	00000903 	.word	0x00000903
 9004348:	00000904 	.word	0x00000904
 900434c:	00000905 	.word	0x00000905
 9004350:	00000906 	.word	0x00000906
 9004354:	00000907 	.word	0x00000907
 9004358:	00000908 	.word	0x00000908
 900435c:	00000909 	.word	0x00000909
 9004360:	0000090b 	.word	0x0000090b
 9004364:	00000202 	.word	0x00000202
 9004368:	00000203 	.word	0x00000203
 900436c:	00000205 	.word	0x00000205
 9004370:	00000206 	.word	0x00000206
 9004374:	0000090c 	.word	0x0000090c
 9004378:	0000096b 	.word	0x0000096b
 900437c:	00000a94 	.word	0x00000a94
 9004380:	00000000 	.word	0x00000000
 9004384:	00000928 	.word	0x00000928
 9004388:	00000929 	.word	0x00000929
 900438c:	0000092a 	.word	0x0000092a
 9004390:	0000094b 	.word	0x0000094b
 9004394:	00000a73 	.word	0x00000a73
 9004398:	00000a79 	.word	0x00000a79
 900439c:	00008a7a 	.word	0x00008a7a
 90043a0:	00000a98 	.word	0x00000a98
 90043a4:	00000000 	.word	0x00000000
 90043a8:	00000939 	.word	0x00000939
 90043ac:	00000266 	.word	0x00000266
 90043b0:	00000000 	.word	0x00000000
 90043b4:	00000895 	.word	0x00000895
 90043b8:	00000892 	.word	0x00000892
	...
 90043c4:	000050f6 	.word	0x000050f6
	...
 90043ec:	00000417 	.word	0x00000417
 90043f0:	00000000 	.word	0x00000000
 90043f4:	0000094e 	.word	0x0000094e
 90043f8:	00000aa7 	.word	0x00000aa7
 90043fc:	00000987 	.word	0x00000987
 9004400:	00000000 	.word	0x00000000

09004404 <version_upgrade_alpha_2_2_to_3_0>:
 9004404:	b5f8      	push	{r3, r4, r5, r6, r7, lr}
 9004406:	4824      	ldr	r0, [pc, #144]	@ (9004498 <version_upgrade_alpha_2_2_to_3_0+0x94>)
 9004408:	4c24      	ldr	r4, [pc, #144]	@ (900449c <version_upgrade_alpha_2_2_to_3_0+0x98>)
 900440a:	f000 f95a 	bl	90046c2 <version_is_latest+0x22>
 900440e:	2304      	movs	r3, #4
 9004410:	8003      	strh	r3, [r0, #0]
 9004412:	4823      	ldr	r0, [pc, #140]	@ (90044a0 <version_upgrade_alpha_2_2_to_3_0+0x9c>)
 9004414:	f000 f955 	bl	90046c2 <version_is_latest+0x22>
 9004418:	2303      	movs	r3, #3
 900441a:	4c22      	ldr	r4, [pc, #136]	@ (90044a4 <version_upgrade_alpha_2_2_to_3_0+0xa0>)
 900441c:	8003      	strh	r3, [r0, #0]
 900441e:	4822      	ldr	r0, [pc, #136]	@ (90044a8 <version_upgrade_alpha_2_2_to_3_0+0xa4>)
 9004420:	f000 f94f 	bl	90046c2 <version_is_latest+0x22>
 9004424:	20af      	movs	r0, #175	@ 0xaf
 9004426:	0100      	lsls	r0, r0, #4
 9004428:	f000 f94b 	bl	90046c2 <version_is_latest+0x22>
 900442c:	481f      	ldr	r0, [pc, #124]	@ (90044ac <version_upgrade_alpha_2_2_to_3_0+0xa8>)
 900442e:	f000 f948 	bl	90046c2 <version_is_latest+0x22>
 9004432:	4c1f      	ldr	r4, [pc, #124]	@ (90044b0 <version_upgrade_alpha_2_2_to_3_0+0xac>)
 9004434:	481f      	ldr	r0, [pc, #124]	@ (90044b4 <version_upgrade_alpha_2_2_to_3_0+0xb0>)
 9004436:	f000 f944 	bl	90046c2 <version_is_latest+0x22>
 900443a:	481f      	ldr	r0, [pc, #124]	@ (90044b8 <version_upgrade_alpha_2_2_to_3_0+0xb4>)
 900443c:	f000 f941 	bl	90046c2 <version_is_latest+0x22>
 9004440:	4c1e      	ldr	r4, [pc, #120]	@ (90044bc <version_upgrade_alpha_2_2_to_3_0+0xb8>)
 9004442:	481c      	ldr	r0, [pc, #112]	@ (90044b4 <version_upgrade_alpha_2_2_to_3_0+0xb0>)
 9004444:	f000 f93d 	bl	90046c2 <version_is_latest+0x22>
 9004448:	481b      	ldr	r0, [pc, #108]	@ (90044b8 <version_upgrade_alpha_2_2_to_3_0+0xb4>)
 900444a:	f000 f93a 	bl	90046c2 <version_is_latest+0x22>
 900444e:	4b1c      	ldr	r3, [pc, #112]	@ (90044c0 <version_upgrade_alpha_2_2_to_3_0+0xbc>)
 9004450:	f000 f936 	bl	90046c0 <version_is_latest+0x20>
 9004454:	2396      	movs	r3, #150	@ 0x96
 9004456:	4c1b      	ldr	r4, [pc, #108]	@ (90044c4 <version_upgrade_alpha_2_2_to_3_0+0xc0>)
 9004458:	009b      	lsls	r3, r3, #2
 900445a:	4e1b      	ldr	r6, [pc, #108]	@ (90044c8 <version_upgrade_alpha_2_2_to_3_0+0xc4>)
 900445c:	4d1b      	ldr	r5, [pc, #108]	@ (90044cc <version_upgrade_alpha_2_2_to_3_0+0xc8>)
 900445e:	18e7      	adds	r7, r4, r3
 9004460:	0020      	movs	r0, r4
 9004462:	f000 f930 	bl	90046c6 <version_is_latest+0x26>
 9004466:	0020      	movs	r0, r4
 9004468:	3464      	adds	r4, #100	@ 0x64
 900446a:	f000 f92b 	bl	90046c4 <version_is_latest+0x24>
 900446e:	42bc      	cmp	r4, r7
 9004470:	d1f6      	bne.n	9004460 <version_upgrade_alpha_2_2_to_3_0+0x5c>
 9004472:	2500      	movs	r5, #0
 9004474:	4f16      	ldr	r7, [pc, #88]	@ (90044d0 <version_upgrade_alpha_2_2_to_3_0+0xcc>)
 9004476:	2400      	movs	r4, #0
 9004478:	0021      	movs	r1, r4
 900447a:	0028      	movs	r0, r5
 900447c:	f000 f924 	bl	90046c8 <version_is_latest+0x28>
 9004480:	3401      	adds	r4, #1
 9004482:	f000 f920 	bl	90046c6 <version_is_latest+0x26>
 9004486:	2c1e      	cmp	r4, #30
 9004488:	d1f6      	bne.n	9004478 <version_upgrade_alpha_2_2_to_3_0+0x74>
 900448a:	3501      	adds	r5, #1
 900448c:	2d0f      	cmp	r5, #15
 900448e:	d1f2      	bne.n	9004476 <version_upgrade_alpha_2_2_to_3_0+0x72>
 9004490:	bcf8      	pop	{r3, r4, r5, r6, r7}
 9004492:	bc01      	pop	{r0}
 9004494:	4700      	bx	r0
 9004496:	46c0      	nop			@ (mov r8, r8)
 9004498:	000050cd 	.word	0x000050cd
 900449c:	00000000 	.word	0x00000000
 90044a0:	000050bf 	.word	0x000050bf
 90044a4:	00000000 	.word	0x00000000
 90044a8:	00000aef 	.word	0x00000aef
 90044ac:	00000aee 	.word	0x00000aee
 90044b0:	00000000 	.word	0x00000000
 90044b4:	00000899 	.word	0x00000899
 90044b8:	000008b1 	.word	0x000008b1
	...

090044d4 <version_upgrade_alpha_3_0_to_3_1>:
 90044d4:	b570      	push	{r4, r5, r6, lr}
 90044d6:	26e8      	movs	r6, #232	@ 0xe8
 90044d8:	00b6      	lsls	r6, r6, #2
 90044da:	0030      	movs	r0, r6
 90044dc:	4b34      	ldr	r3, [pc, #208]	@ (90045b0 <version_upgrade_alpha_3_0_to_3_1+0xdc>)
 90044de:	f000 f8ef 	bl	90046c0 <version_is_latest+0x20>
 90044e2:	2378      	movs	r3, #120	@ 0x78
 90044e4:	0004      	movs	r4, r0
 90044e6:	5ac2      	ldrh	r2, [r0, r3]
 90044e8:	4d32      	ldr	r5, [pc, #200]	@ (90045b4 <version_upgrade_alpha_3_0_to_3_1+0xe0>)
 90044ea:	2004      	movs	r0, #4
 90044ec:	4932      	ldr	r1, [pc, #200]	@ (90045b8 <version_upgrade_alpha_3_0_to_3_1+0xe4>)
 90044ee:	f000 f8e9 	bl	90046c4 <version_is_latest+0x24>
 90044f2:	23a0      	movs	r3, #160	@ 0xa0
 90044f4:	005b      	lsls	r3, r3, #1
 90044f6:	5ae2      	ldrh	r2, [r4, r3]
 90044f8:	2004      	movs	r0, #4
 90044fa:	4930      	ldr	r1, [pc, #192]	@ (90045bc <version_upgrade_alpha_3_0_to_3_1+0xe8>)
 90044fc:	f000 f8e2 	bl	90046c4 <version_is_latest+0x24>
 9004500:	23a6      	movs	r3, #166	@ 0xa6
 9004502:	009b      	lsls	r3, r3, #2
 9004504:	469c      	mov	ip, r3
 9004506:	4d2e      	ldr	r5, [pc, #184]	@ (90045c0 <version_upgrade_alpha_3_0_to_3_1+0xec>)
 9004508:	6829      	ldr	r1, [r5, #0]
 900450a:	0032      	movs	r2, r6
 900450c:	4461      	add	r1, ip
 900450e:	4e2d      	ldr	r6, [pc, #180]	@ (90045c4 <version_upgrade_alpha_3_0_to_3_1+0xf0>)
 9004510:	0020      	movs	r0, r4
 9004512:	f000 f8d8 	bl	90046c6 <version_is_latest+0x26>
 9004516:	23a6      	movs	r3, #166	@ 0xa6
 9004518:	009b      	lsls	r3, r3, #2
 900451a:	469c      	mov	ip, r3
 900451c:	6828      	ldr	r0, [r5, #0]
 900451e:	0021      	movs	r1, r4
 9004520:	2278      	movs	r2, #120	@ 0x78
 9004522:	4460      	add	r0, ip
 9004524:	f000 f8cf 	bl	90046c6 <version_is_latest+0x26>
 9004528:	23c4      	movs	r3, #196	@ 0xc4
 900452a:	009b      	lsls	r3, r3, #2
 900452c:	469c      	mov	ip, r3
 900452e:	0021      	movs	r1, r4
 9004530:	6828      	ldr	r0, [r5, #0]
 9004532:	22c8      	movs	r2, #200	@ 0xc8
 9004534:	3178      	adds	r1, #120	@ 0x78
 9004536:	4460      	add	r0, ip
 9004538:	f000 f8c5 	bl	90046c6 <version_is_latest+0x26>
 900453c:	23f6      	movs	r3, #246	@ 0xf6
 900453e:	0021      	movs	r1, r4
 9004540:	009b      	lsls	r3, r3, #2
 9004542:	469c      	mov	ip, r3
 9004544:	6828      	ldr	r0, [r5, #0]
 9004546:	3141      	adds	r1, #65	@ 0x41
 9004548:	2278      	movs	r2, #120	@ 0x78
 900454a:	31ff      	adds	r1, #255	@ 0xff
 900454c:	4460      	add	r0, ip
 900454e:	f000 f8ba 	bl	90046c6 <version_is_latest+0x26>
 9004552:	238a      	movs	r3, #138	@ 0x8a
 9004554:	0021      	movs	r1, r4
 9004556:	00db      	lsls	r3, r3, #3
 9004558:	469c      	mov	ip, r3
 900455a:	6828      	ldr	r0, [r5, #0]
 900455c:	31b9      	adds	r1, #185	@ 0xb9
 900455e:	2250      	movs	r2, #80	@ 0x50
 9004560:	31ff      	adds	r1, #255	@ 0xff
 9004562:	4460      	add	r0, ip
 9004564:	f000 f8af 	bl	90046c6 <version_is_latest+0x26>
 9004568:	2382      	movs	r3, #130	@ 0x82
 900456a:	009b      	lsls	r3, r3, #2
 900456c:	18e1      	adds	r1, r4, r3
 900456e:	2394      	movs	r3, #148	@ 0x94
 9004570:	00db      	lsls	r3, r3, #3
 9004572:	469c      	mov	ip, r3
 9004574:	6828      	ldr	r0, [r5, #0]
 9004576:	22e8      	movs	r2, #232	@ 0xe8
 9004578:	4460      	add	r0, ip
 900457a:	f000 f8a4 	bl	90046c6 <version_is_latest+0x26>
 900457e:	23b1      	movs	r3, #177	@ 0xb1
 9004580:	00db      	lsls	r3, r3, #3
 9004582:	469c      	mov	ip, r3
 9004584:	6828      	ldr	r0, [r5, #0]
 9004586:	22b0      	movs	r2, #176	@ 0xb0
 9004588:	0021      	movs	r1, r4
 900458a:	4460      	add	r0, ip
 900458c:	f000 f89b 	bl	90046c6 <version_is_latest+0x26>
 9004590:	4b0d      	ldr	r3, [pc, #52]	@ (90045c8 <version_upgrade_alpha_3_0_to_3_1+0xf4>)
 9004592:	469c      	mov	ip, r3
 9004594:	6828      	ldr	r0, [r5, #0]
 9004596:	2108      	movs	r1, #8
 9004598:	4460      	add	r0, ip
 900459a:	4b0c      	ldr	r3, [pc, #48]	@ (90045cc <version_upgrade_alpha_3_0_to_3_1+0xf8>)
 900459c:	f000 f890 	bl	90046c0 <version_is_latest+0x20>
 90045a0:	0020      	movs	r0, r4
 90045a2:	4b0b      	ldr	r3, [pc, #44]	@ (90045d0 <version_upgrade_alpha_3_0_to_3_1+0xfc>)
 90045a4:	f000 f88c 	bl	90046c0 <version_is_latest+0x20>
 90045a8:	bc70      	pop	{r4, r5, r6}
 90045aa:	bc01      	pop	{r0}
 90045ac:	4700      	bx	r0
 90045ae:	46c0      	nop			@ (mov r8, r8)
	...
 90045b8:	000003fc 	.word	0x000003fc
 90045bc:	00000410 	.word	0x00000410
	...
 90045c8:	00002c10 	.word	0x00002c10
	...

090045d4 <version_transfer>:
 90045d4:	b530      	push	{r4, r5, lr}
 90045d6:	4823      	ldr	r0, [pc, #140]	@ (9004664 <version_transfer+0x90>)
 90045d8:	4c23      	ldr	r4, [pc, #140]	@ (9004668 <version_transfer+0x94>)
 90045da:	b085      	sub	sp, #20
 90045dc:	f000 f871 	bl	90046c2 <version_is_latest+0x22>
 90045e0:	0005      	movs	r5, r0
 90045e2:	4822      	ldr	r0, [pc, #136]	@ (900466c <version_transfer+0x98>)
 90045e4:	f000 f86d 	bl	90046c2 <version_is_latest+0x22>
 90045e8:	882b      	ldrh	r3, [r5, #0]
 90045ea:	4d21      	ldr	r5, [pc, #132]	@ (9004670 <version_transfer+0x9c>)
 90045ec:	8003      	strh	r3, [r0, #0]
 90045ee:	481d      	ldr	r0, [pc, #116]	@ (9004664 <version_transfer+0x90>)
 90045f0:	f000 f867 	bl	90046c2 <version_is_latest+0x22>
 90045f4:	8803      	ldrh	r3, [r0, #0]
 90045f6:	481b      	ldr	r0, [pc, #108]	@ (9004664 <version_transfer+0x90>)
 90045f8:	2b05      	cmp	r3, #5
 90045fa:	d010      	beq.n	900461e <version_transfer+0x4a>
 90045fc:	f000 f861 	bl	90046c2 <version_is_latest+0x22>
 9004600:	8803      	ldrh	r3, [r0, #0]
 9004602:	2b05      	cmp	r3, #5
 9004604:	d82b      	bhi.n	900465e <version_transfer+0x8a>
 9004606:	009b      	lsls	r3, r3, #2
 9004608:	58eb      	ldr	r3, [r5, r3]
 900460a:	469f      	mov	pc, r3
 900460c:	f7ff fffe 	bl	90044d4 <version_upgrade_alpha_3_0_to_3_1>
 9004610:	4814      	ldr	r0, [pc, #80]	@ (9004664 <version_transfer+0x90>)
 9004612:	f000 f856 	bl	90046c2 <version_is_latest+0x22>
 9004616:	8803      	ldrh	r3, [r0, #0]
 9004618:	4812      	ldr	r0, [pc, #72]	@ (9004664 <version_transfer+0x90>)
 900461a:	2b05      	cmp	r3, #5
 900461c:	d1ee      	bne.n	90045fc <version_transfer+0x28>
 900461e:	f000 f850 	bl	90046c2 <version_is_latest+0x22>
 9004622:	0005      	movs	r5, r0
 9004624:	4813      	ldr	r0, [pc, #76]	@ (9004674 <version_transfer+0xa0>)
 9004626:	f000 f84c 	bl	90046c2 <version_is_latest+0x22>
 900462a:	a901      	add	r1, sp, #4
 900462c:	000a      	movs	r2, r1
 900462e:	882b      	ldrh	r3, [r5, #0]
 9004630:	8003      	strh	r3, [r0, #0]
 9004632:	4b11      	ldr	r3, [pc, #68]	@ (9004678 <version_transfer+0xa4>)
 9004634:	cb11      	ldmia	r3!, {r0, r4}
 9004636:	c211      	stmia	r2!, {r0, r4}
 9004638:	881b      	ldrh	r3, [r3, #0]
 900463a:	4810      	ldr	r0, [pc, #64]	@ (900467c <version_transfer+0xa8>)
 900463c:	8013      	strh	r3, [r2, #0]
 900463e:	4b10      	ldr	r3, [pc, #64]	@ (9004680 <version_transfer+0xac>)
 9004640:	f000 f83e 	bl	90046c0 <version_is_latest+0x20>
 9004644:	b005      	add	sp, #20
 9004646:	bc30      	pop	{r4, r5}
 9004648:	bc01      	pop	{r0}
 900464a:	4700      	bx	r0
 900464c:	f7ff fffe 	bl	9004404 <version_upgrade_alpha_2_2_to_3_0>
 9004650:	e7cd      	b.n	90045ee <version_transfer+0x1a>
 9004652:	f7ff fffe 	bl	90040fc <version_upgrade_alpha_2_1_to_2_2>
 9004656:	e7ca      	b.n	90045ee <version_transfer+0x1a>
 9004658:	f7ff fffe 	bl	90040d0 <version_upgrade_alpha_2_0_to_2_1>
 900465c:	e7c7      	b.n	90045ee <version_transfer+0x1a>
 900465e:	f7ff fffe 	bl	9004030 <version_upgrade_alpha_1_X_to_2_0>
 9004662:	e7c4      	b.n	90045ee <version_transfer+0x1a>
 9004664:	000050cd 	.word	0x000050cd
 9004668:	00000000 	.word	0x00000000
 900466c:	00008004 	.word	0x00008004
 9004670:	000047e8 	.word	0x000047e8
 9004674:	00008005 	.word	0x00008005
 9004678:	00004800 	.word	0x00004800
	...

09004684 <fix_hm_tm>:
 9004684:	b510      	push	{r4, lr}
 9004686:	4b04      	ldr	r3, [pc, #16]	@ (9004698 <fix_hm_tm+0x14>)
 9004688:	7f19      	ldrb	r1, [r3, #28]
 900468a:	6998      	ldr	r0, [r3, #24]
 900468c:	4b03      	ldr	r3, [pc, #12]	@ (900469c <fix_hm_tm+0x18>)
 900468e:	f000 f817 	bl	90046c0 <version_is_latest+0x20>
 9004692:	bc10      	pop	{r4}
 9004694:	bc01      	pop	{r0}
 9004696:	4700      	bx	r0
	...

090046a0 <version_is_latest>:
 90046a0:	b510      	push	{r4, lr}
 90046a2:	4b05      	ldr	r3, [pc, #20]	@ (90046b8 <version_is_latest+0x18>)
 90046a4:	4805      	ldr	r0, [pc, #20]	@ (90046bc <version_is_latest+0x1c>)
 90046a6:	f000 f80b 	bl	90046c0 <version_is_latest+0x20>
 90046aa:	8800      	ldrh	r0, [r0, #0]
 90046ac:	3805      	subs	r0, #5
 90046ae:	4243      	negs	r3, r0
 90046b0:	4158      	adcs	r0, r3
 90046b2:	bc10      	pop	{r4}
 90046b4:	bc02      	pop	{r1}
 90046b6:	4708      	bx	r1
 90046b8:	00000000 	.word	0x00000000
 90046bc:	000050cd 	.word	0x000050cd
 90046c0:	4718      	bx	r3
 90046c2:	4720      	bx	r4
 90046c4:	4728      	bx	r5
 90046c6:	4730      	bx	r6
 90046c8:	4738      	bx	r7
 90046ca:	4740      	bx	r8
 90046cc:	4748      	bx	r9
 90046ce:	46c0      	nop			@ (mov r8, r8)
 90046d0:	00000a42 	.word	0x00000a42
 90046d4:	00000a48 	.word	0x00000a48
 90046d8:	00000a54 	.word	0x00000a54
 90046dc:	00000a34 	.word	0x00000a34
 90046e0:	00000a3e 	.word	0x00000a3e
 90046e4:	00000ab0 	.word	0x00000ab0
 90046e8:	00000aac 	.word	0x00000aac
 90046ec:	00000c3c 	.word	0x00000c3c
 90046f0:	00000c44 	.word	0x00000c44
 90046f4:	00000c4c 	.word	0x00000c4c
 90046f8:	00000ae6 	.word	0x00000ae6
 90046fc:	00000ae6 	.word	0x00000ae6
 9004700:	00000ae6 	.word	0x00000ae6
 9004704:	00000b70 	.word	0x00000b70

09004708 <ts_deoxysScroll>:
 9004708:	00010000 ffff0000 fffcfffe fffffffe     ................
 9004718:	00001caa 00001bbc 00001bbc 00001bd0     ................
 9004728:	00001c04 00001c08 00001ba8 00001be4     ................
 9004738:	00001ba8 00001c28 00001c2c 00001c48     ....(...,...H...
 9004748:	00001c84 00000000 00000001 00000002     ................
 9004758:	00000003 00000004 00000005 03010201     ................

09004768 <tbox_palette_transparent>:
	...

09004788 <CSWTCH.8>:
 9004788:	00070004 cdab0001 00000000 00000000     ................
	...

090047b0 <weather_uses_transparency>:
 90047b0:	00000000 00010000 00010101 00000000     ................
 90047c0:	01000000 00000000 00000000 00007fff     ................
 90047d0:	00007fff 00000000 00007fff 00000000     ................
	...
 90047e8:	0000465e 00004658 00004652 0000464c     ^F..XF..RF..LF..
 90047f8:	0000460c 000045ee dce4e0bb ada300d5     .F...E..........
 9004808:	                                         ..

0900480a <__text_end>:
 900480a:	cdab      	.short	0xcdab

0900480c <pokemon_cries_backward>:
 900480c:	3c30 0000 0000 0000 00ff 00ff 3c30 0000     0<..........0<..
 900481c:	0000 0000 00ff 00ff 3c30 0000 0000 0000     ........0<......
 900482c:	00ff 00ff 3c30 0000 0000 0000 00ff 00ff     ....0<..........
 900483c:	3c30 0000 0000 0000 00ff 00ff 3c30 0000     0<..........0<..
 900484c:	0000 0000 00ff 00ff 3c30 0000 0000 0000     ........0<......
 900485c:	00ff 00ff 3c30 0000 0000 0000 00ff 00ff     ....0<..........
 900486c:	3c30 0000 0000 0000 00ff 00ff 3c30 0000     0<..........0<..
 900487c:	0000 0000 00ff 00ff 3c30 0000 0000 0000     ........0<......
 900488c:	00ff 00ff 3c30 0000 0000 0000 00ff 00ff     ....0<..........
 900489c:	3c30 0000 0000 0000 00ff 00ff 3c30 0000     0<..........0<..
 90048ac:	0000 0000 00ff 00ff 3c30 0000 0000 0000     ........0<......
 90048bc:	00ff 00ff 3c30 0000 0000 0000 00ff 00ff     ....0<..........
 90048cc:	3c30 0000 0000 0000 00ff 00ff 3c30 0000     0<..........0<..
 90048dc:	0000 0000 00ff 00ff 3c30 0000 0000 0000     ........0<......
 90048ec:	00ff 00ff 3c30 0000 0000 0000 00ff 00ff     ....0<..........
 90048fc:	3c30 0000 0000 0000 00ff 00ff 3c30 0000     0<..........0<..
 900490c:	0000 0000 00ff 00ff 3c30 0000 0000 0000     ........0<......
 900491c:	00ff 00ff 3c30 0000 0000 0000 00ff 00ff     ....0<..........
 900492c:	3c30 0000 0000 0000 00ff 00ff 3c30 0000     0<..........0<..
 900493c:	0000 0000 00ff 00ff 3c30 0000 0000 0000     ........0<......
 900494c:	00ff 00ff 3c30 0000 0000 0000 00ff 00ff     ....0<..........
 900495c:	3c30 0000 0000 0000 00ff 00ff 3c30 0000     0<..........0<..
 900496c:	0000 0000 00ff 00ff 3c30 0000 0000 0000     ........0<......
 900497c:	00ff 00ff 3c30 0000 0000 0000 00ff 00ff     ....0<..........
 900498c:	3c30 0000 0000 0000 00ff 00ff 3c30 0000     0<..........0<..
 900499c:	0000 0000 00ff 00ff 3c30 0000 0000 0000     ........0<......
 90049ac:	00ff 00ff 3c30 0000 0000 0000 00ff 00ff     ....0<..........
 90049bc:	3c30 0000 0000 0000 00ff 00ff 3c30 0000     0<..........0<..
 90049cc:	0000 0000 00ff 00ff 3c30 0000 0000 0000     ........0<......
 90049dc:	00ff 00ff 3c30 0000 0000 0000 00ff 00ff     ....0<..........
 90049ec:	3c30 0000 0000 0000 00ff 00ff 3c30 0000     0<..........0<..
 90049fc:	0000 0000 00ff 00ff 3c30 0000 0000 0000     ........0<......
 9004a0c:	00ff 00ff 3c30 0000 0000 0000 00ff 00ff     ....0<..........
 9004a1c:	3c30 0000 0000 0000 00ff 00ff 3c30 0000     0<..........0<..
 9004a2c:	0000 0000 00ff 00ff 3c30 0000 0000 0000     ........0<......
 9004a3c:	00ff 00ff 3c30 0000 0000 0000 00ff 00ff     ....0<..........
 9004a4c:	3c30 0000 0000 0000 00ff 00ff 3c30 0000     0<..........0<..
 9004a5c:	0000 0000 00ff 00ff 3c30 0000 0000 0000     ........0<......
 9004a6c:	00ff 00ff 3c30 0000 0000 0000 00ff 00ff     ....0<..........
 9004a7c:	3c30 0000 0000 0000 00ff 00ff 3c30 0000     0<..........0<..
 9004a8c:	0000 0000 00ff 00ff 3c30 0000 0000 0000     ........0<......
 9004a9c:	00ff 00ff 3c30 0000 0000 0000 00ff 00ff     ....0<..........
 9004aac:	3c30 0000 0000 0000 00ff 00ff 3c30 0000     0<..........0<..
 9004abc:	0000 0000 00ff 00ff 3c30 0000 0000 0000     ........0<......
 9004acc:	00ff 00ff 3c30 0000 0000 0000 00ff 00ff     ....0<..........
 9004adc:	3c30 0000 0000 0000 00ff 00ff 3c30 0000     0<..........0<..
 9004aec:	0000 0000 00ff 00ff 3c30 0000 0000 0000     ........0<......
 9004afc:	00ff 00ff 3c30 0000 0000 0000 00ff 00ff     ....0<..........
 9004b0c:	3c30 0000 0000 0000 00ff 00ff 3c30 0000     0<..........0<..
 9004b1c:	0000 0000 00ff 00ff 3c30 0000 0000 0000     ........0<......
 9004b2c:	00ff 00ff 3c30 0000 0000 0000 00ff 00ff     ....0<..........
 9004b3c:	3c30 0000 0000 0000 00ff 00ff 3c30 0000     0<..........0<..
 9004b4c:	0000 0000 00ff 00ff 3c30 0000 0000 0000     ........0<......
 9004b5c:	00ff 00ff 3c30 0000 0000 0000 00ff 00ff     ....0<..........
 9004b6c:	3c30 0000 0000 0000 00ff 00ff 3c30 0000     0<..........0<..
 9004b7c:	0000 0000 00ff 00ff 3c30 0000 0000 0000     ........0<......
 9004b8c:	00ff 00ff 3c30 0000 0000 0000 00ff 00ff     ....0<..........
 9004b9c:	3c30 0000 0000 0000 00ff 00ff 3c30 0000     0<..........0<..
 9004bac:	0000 0000 00ff 00ff 3c30 0000 0000 0000     ........0<......
 9004bbc:	00ff 00ff 3c30 0000 0000 0000 00ff 00ff     ....0<..........
 9004bcc:	3c30 0000 0000 0000 00ff 00ff 3c30 0000     0<..........0<..
 9004bdc:	0000 0000 00ff 00ff 3c30 0000 0000 0000     ........0<......
 9004bec:	00ff 00ff 3c30 0000 0000 0000 00ff 00ff     ....0<..........
 9004bfc:	3c30 0000 0000 0000 00ff 00ff 3c30 0000     0<..........0<..
 9004c0c:	0000 0000 00ff 00ff 3c30 0000 0000 0000     ........0<......
 9004c1c:	00ff 00ff 3c30 0000 0000 0000 00ff 00ff     ....0<..........
 9004c2c:	3c30 0000 0000 0000 00ff 00ff 3c30 0000     0<..........0<..
 9004c3c:	0000 0000 00ff 00ff 3c30 0000 0000 0000     ........0<......
 9004c4c:	00ff 00ff 3c30 0000 0000 0000 00ff 00ff     ....0<..........
 9004c5c:	3c30 0000 0000 0000 00ff 00ff 3c30 0000     0<..........0<..
 9004c6c:	0000 0000 00ff 00ff 3c30 0000 0000 0000     ........0<......
 9004c7c:	00ff 00ff 3c30 0000 0000 0000 00ff 00ff     ....0<..........
 9004c8c:	3c30 0000 0000 0000 00ff 00ff 3c30 0000     0<..........0<..
 9004c9c:	0000 0000 00ff 00ff 3c30 0000 0000 0000     ........0<......
 9004cac:	00ff 00ff 3c30 0000 0000 0000 00ff 00ff     ....0<..........
 9004cbc:	3c30 0000 0000 0000 00ff 00ff 3c30 0000     0<..........0<..
 9004ccc:	0000 0000 00ff 00ff 3c30 0000 0000 0000     ........0<......
 9004cdc:	00ff 00ff 3c30 0000 0000 0000 00ff 00ff     ....0<..........
 9004cec:	3c30 0000 0000 0000 00ff 00ff 3c30 0000     0<..........0<..
 9004cfc:	0000 0000 00ff 00ff 3c30 0000 0000 0000     ........0<......
 9004d0c:	00ff 00ff 3c30 0000 0000 0000 00ff 00ff     ....0<..........
 9004d1c:	3c30 0000 0000 0000 00ff 00ff 3c30 0000     0<..........0<..
 9004d2c:	0000 0000 00ff 00ff 3c30 0000 0000 0000     ........0<......
 9004d3c:	00ff 00ff 3c30 0000 0000 0000 00ff 00ff     ....0<..........
 9004d4c:	3c30 0000 0000 0000 00ff 00ff 3c30 0000     0<..........0<..
 9004d5c:	0000 0000 00ff 00ff 3c30 0000 0000 0000     ........0<......
 9004d6c:	00ff 00ff 3c30 0000 0000 0000 00ff 00ff     ....0<..........
 9004d7c:	3c30 0000 0000 0000 00ff 00ff 3c30 0000     0<..........0<..
 9004d8c:	0000 0000 00ff 00ff 3c30 0000 0000 0000     ........0<......
 9004d9c:	00ff 00ff 3c30 0000 0000 0000 00ff 00ff     ....0<..........
 9004dac:	3c30 0000 0000 0000 00ff 00ff 3c30 0000     0<..........0<..
 9004dbc:	0000 0000 00ff 00ff 3c30 0000 0000 0000     ........0<......
 9004dcc:	00ff 00ff 3c30 0000 0000 0000 00ff 00ff     ....0<..........
 9004ddc:	3c30 0000 0000 0000 00ff 00ff 3c30 0000     0<..........0<..
 9004dec:	0000 0000 00ff 00ff 3c30 0000 0000 0000     ........0<......
 9004dfc:	00ff 00ff 3c30 0000 0000 0000 00ff 00ff     ....0<..........
 9004e0c:	3c30 0000 0000 0000 00ff 00ff 3c30 0000     0<..........0<..
 9004e1c:	0000 0000 00ff 00ff 3c30 0000 0000 0000     ........0<......
 9004e2c:	00ff 00ff 3c30 0000 0000 0000 00ff 00ff     ....0<..........
 9004e3c:	3c30 0000 0000 0000 00ff 00ff 3c30 0000     0<..........0<..
 9004e4c:	0000 0000 00ff 00ff 3c30 0000 0000 0000     ........0<......
 9004e5c:	00ff 00ff 3c30 0000 0000 0000 00ff 00ff     ....0<..........
 9004e6c:	3c30 0000 0000 0000 00ff 00ff 3c30 0000     0<..........0<..
 9004e7c:	0000 0000 00ff 00ff 3c30 0000 0000 0000     ........0<......
 9004e8c:	00ff 00ff 3c30 0000 0000 0000 00ff 00ff     ....0<..........
 9004e9c:	3c30 0000 0000 0000 00ff 00ff 3c30 0000     0<..........0<..
 9004eac:	0000 0000 00ff 00ff 3c30 0000 0000 0000     ........0<......
 9004ebc:	00ff 00ff 3c30 0000 0000 0000 00ff 00ff     ....0<..........
 9004ecc:	3c30 0000 0000 0000 00ff 00ff 3c30 0000     0<..........0<..
 9004edc:	0000 0000 00ff 00ff 3c30 0000 0000 0000     ........0<......
 9004eec:	00ff 00ff 3c30 0000 0000 0000 00ff 00ff     ....0<..........
 9004efc:	3c30 0000 0000 0000 00ff 00ff 3c30 0000     0<..........0<..
 9004f0c:	0000 0000 00ff 00ff 3c30 0000 0000 0000     ........0<......
 9004f1c:	00ff 00ff 3c30 0000 0000 0000 00ff 00ff     ....0<..........
 9004f2c:	3c30 0000 0000 0000 00ff 00ff 3c30 0000     0<..........0<..
 9004f3c:	0000 0000 00ff 00ff 3c30 0000 0000 0000     ........0<......
 9004f4c:	00ff 00ff 3c30 0000 0000 0000 00ff 00ff     ....0<..........
 9004f5c:	3c30 0000 0000 0000 00ff 00ff 3c30 0000     0<..........0<..
 9004f6c:	0000 0000 00ff 00ff 3c30 0000 0000 0000     ........0<......
 9004f7c:	00ff 00ff 3c30 0000 0000 0000 00ff 00ff     ....0<..........
 9004f8c:	3c30 0000 0000 0000 00ff 00ff 3c30 0000     0<..........0<..
 9004f9c:	0000 0000 00ff 00ff 3c30 0000 0000 0000     ........0<......
 9004fac:	00ff 00ff 3c30 0000 0000 0000 00ff 00ff     ....0<..........
 9004fbc:	3c30 0000 0000 0000 00ff 00ff 3c30 0000     0<..........0<..
 9004fcc:	0000 0000 00ff 00ff 3c30 0000 0000 0000     ........0<......
 9004fdc:	00ff 00ff 3c30 0000 0000 0000 00ff 00ff     ....0<..........
 9004fec:	3c30 0000 0000 0000 00ff 00ff 3c30 0000     0<..........0<..
 9004ffc:	0000 0000 00ff 00ff 3c30 0000 0000 0000     ........0<......
 900500c:	00ff 00ff 3c30 0000 0000 0000 00ff 00ff     ....0<..........
 900501c:	3c30 0000 0000 0000 00ff 00ff 3c30 0000     0<..........0<..
 900502c:	0000 0000 00ff 00ff 3c30 0000 0000 0000     ........0<......
 900503c:	00ff 00ff 3c30 0000 0000 0000 00ff 00ff     ....0<..........
 900504c:	3c30 0000 0000 0000 00ff 00ff 3c30 0000     0<..........0<..
 900505c:	0000 0000 00ff 00ff 3c30 0000 0000 0000     ........0<......
 900506c:	00ff 00ff 3c30 0000 0000 0000 00ff 00ff     ....0<..........
 900507c:	3c30 0000 0000 0000 00ff 00ff 3c30 0000     0<..........0<..
 900508c:	0000 0000 00ff 00ff 3c30 0000 0000 0000     ........0<......
 900509c:	00ff 00ff 3c30 0000 0000 0000 00ff 00ff     ....0<..........
 90050ac:	3c30 0000 0000 0000 00ff 00ff 3c30 0000     0<..........0<..
 90050bc:	0000 0000 00ff 00ff 3c30 0000 0000 0000     ........0<......
 90050cc:	00ff 00ff 3c30 0000 0000 0000 00ff 00ff     ....0<..........
 90050dc:	3c30 0000 0000 0000 00ff 00ff 3c30 0000     0<..........0<..
 90050ec:	0000 0000 00ff 00ff 3c30 0000 0000 0000     ........0<......
 90050fc:	00ff 00ff 3c30 0000 0000 0000 00ff 00ff     ....0<..........
 900510c:	3c30 0000 0000 0000 00ff 00ff 3c30 0000     0<..........0<..
 900511c:	0000 0000 00ff 00ff 3c30 0000 0000 0000     ........0<......
 900512c:	00ff 00ff 3c30 0000 0000 0000 00ff 00ff     ....0<..........
 900513c:	3c30 0000 0000 0000 00ff 00ff 3c30 0000     0<..........0<..
 900514c:	0000 0000 00ff 00ff 3c30 0000 0000 0000     ........0<......
 900515c:	00ff 00ff 3c30 0000 0000 0000 00ff 00ff     ....0<..........
 900516c:	3c30 0000 0000 0000 00ff 00ff 3c30 0000     0<..........0<..
 900517c:	0000 0000 00ff 00ff 3c30 0000 0000 0000     ........0<......
 900518c:	00ff 00ff 3c30 0000 0000 0000 00ff 00ff     ....0<..........
 900519c:	3c30 0000 0000 0000 00ff 00ff 3c30 0000     0<..........0<..
 90051ac:	0000 0000 00ff 00ff 3c30 0000 0000 0000     ........0<......
 90051bc:	00ff 00ff 3c30 0000 0000 0000 00ff 00ff     ....0<..........
 90051cc:	3c30 0000 0000 0000 00ff 00ff 3c30 0000     0<..........0<..
 90051dc:	0000 0000 00ff 00ff 3c30 0000 0000 0000     ........0<......
 90051ec:	00ff 00ff 3c30 0000 0000 0000 00ff 00ff     ....0<..........
 90051fc:	3c30 0000 0000 0000 00ff 00ff 3c30 0000     0<..........0<..
 900520c:	0000 0000 00ff 00ff 3c30 0000 0000 0000     ........0<......
 900521c:	00ff 00ff 3c30 0000 0000 0000 00ff 00ff     ....0<..........
 900522c:	3c30 0000 0000 0000 00ff 00ff 3c30 0000     0<..........0<..
 900523c:	0000 0000 00ff 00ff 3c30 0000 0000 0000     ........0<......
 900524c:	00ff 00ff 3c30 0000 0000 0000 00ff 00ff     ....0<..........
 900525c:	3c30 0000 0000 0000 00ff 00ff 3c30 0000     0<..........0<..
 900526c:	0000 0000 00ff 00ff 3c30 0000 0000 0000     ........0<......
 900527c:	00ff 00ff 3c30 0000 0000 0000 00ff 00ff     ....0<..........
 900528c:	3c30 0000 0000 0000 00ff 00ff 3c30 0000     0<..........0<..
 900529c:	0000 0000 00ff 00ff 3c30 0000 0000 0000     ........0<......
 90052ac:	00ff 00ff 3c30 0000 0000 0000 00ff 00ff     ....0<..........
 90052bc:	3c30 0000 0000 0000 00ff 00ff 3c30 0000     0<..........0<..
 90052cc:	0000 0000 00ff 00ff 3c30 0000 0000 0000     ........0<......
 90052dc:	00ff 00ff 3c30 0000 0000 0000 00ff 00ff     ....0<..........
 90052ec:	3c30 0000 0000 0000 00ff 00ff 3c30 0000     0<..........0<..
 90052fc:	0000 0000 00ff 00ff 3c30 0000 0000 0000     ........0<......
 900530c:	00ff 00ff 3c30 0000 0000 0000 00ff 00ff     ....0<..........
 900531c:	3c30 0000 0000 0000 00ff 00ff 3c30 0000     0<..........0<..
 900532c:	0000 0000 00ff 00ff 3c30 0000 0000 0000     ........0<......
 900533c:	00ff 00ff 3c30 0000 0000 0000 00ff 00ff     ....0<..........
 900534c:	3c30 0000 0000 0000 00ff 00ff 3c30 0000     0<..........0<..
 900535c:	0000 0000 00ff 00ff 3c30 0000 0000 0000     ........0<......
 900536c:	00ff 00ff 3c30 0000 0000 0000 00ff 00ff     ....0<..........
 900537c:	3c30 0000 0000 0000 00ff 00ff 3c30 0000     0<..........0<..
 900538c:	0000 0000 00ff 00ff 3c30 0000 0000 0000     ........0<......
 900539c:	00ff 00ff 3c30 0000 0000 0000 00ff 00ff     ....0<..........
 90053ac:	3c30 0000 0000 0000 00ff 00ff 3c30 0000     0<..........0<..
 90053bc:	0000 0000 00ff 00ff 3c30 0000 0000 0000     ........0<......
 90053cc:	00ff 00ff 3c30 0000 0000 0000 00ff 00ff     ....0<..........
 90053dc:	3c30 0000 0000 0000 00ff 00ff 3c30 0000     0<..........0<..
 90053ec:	0000 0000 00ff 00ff 3c30 0000 0000 0000     ........0<......
 90053fc:	00ff 00ff 3c30 0000 0000 0000 00ff 00ff     ....0<..........
 900540c:	3c30 0000 0000 0000 00ff 00ff 3c30 0000     0<..........0<..
 900541c:	0000 0000 00ff 00ff 3c30 0000 0000 0000     ........0<......
 900542c:	00ff 00ff 3c30 0000 0000 0000 00ff 00ff     ....0<..........
 900543c:	3c30 0000 0000 0000 00ff 00ff 3c30 0000     0<..........0<..
 900544c:	0000 0000 00ff 00ff 3c30 0000 0000 0000     ........0<......
 900545c:	00ff 00ff 3c30 0000 0000 0000 00ff 00ff     ....0<..........
 900546c:	3c30 0000 0000 0000 00ff 00ff 3c30 0000     0<..........0<..
 900547c:	0000 0000 00ff 00ff 3c30 0000 0000 0000     ........0<......
 900548c:	00ff 00ff 3c30 0000 0000 0000 00ff 00ff     ....0<..........
 900549c:	3c30 0000 0000 0000 00ff 00ff 3c30 0000     0<..........0<..
 90054ac:	0000 0000 00ff 00ff 3c30 0000 0000 0000     ........0<......
 90054bc:	00ff 00ff 3c30 0000 0000 0000 00ff 00ff     ....0<..........
 90054cc:	3c30 0000 0000 0000 00ff 00ff 3c30 0000     0<..........0<..
 90054dc:	0000 0000 00ff 00ff 3c30 0000 0000 0000     ........0<......
 90054ec:	00ff 00ff 3c30 0000 0000 0000 00ff 00ff     ....0<..........
 90054fc:	3c30 0000 0000 0000 00ff 00ff 3c30 0000     0<..........0<..
 900550c:	0000 0000 00ff 00ff 3c30 0000 0000 0000     ........0<......
 900551c:	00ff 00ff 3c30 0000 0000 0000 00ff 00ff     ....0<..........
 900552c:	3c30 0000 0000 0000 00ff 00ff 3c30 0000     0<..........0<..
 900553c:	0000 0000 00ff 00ff 3c30 0000 0000 0000     ........0<......
 900554c:	00ff 00ff 3c30 0000 0000 0000 00ff 00ff     ....0<..........
 900555c:	3c30 0000 0000 0000 00ff 00ff 3c30 0000     0<..........0<..
 900556c:	0000 0000 00ff 00ff 3c30 0000 0000 0000     ........0<......
 900557c:	00ff 00ff 3c30 0000 0000 0000 00ff 00ff     ....0<..........
 900558c:	3c30 0000 0000 0000 00ff 00ff 3c30 0000     0<..........0<..
 900559c:	0000 0000 00ff 00ff 3c30 0000 0000 0000     ........0<......
 90055ac:	00ff 00ff 3c30 0000 0000 0000 00ff 00ff     ....0<..........
 90055bc:	3c30 0000 0000 0000 00ff 00ff 3c30 0000     0<..........0<..
 90055cc:	0000 0000 00ff 00ff 3c30 0000 0000 0000     ........0<......
 90055dc:	00ff 00ff 3c30 0000 0000 0000 00ff 00ff     ....0<..........
 90055ec:	3c30 0000 0000 0000 00ff 00ff 3c30 0000     0<..........0<..
 90055fc:	0000 0000 00ff 00ff 3c30 0000 0000 0000     ........0<......
 900560c:	00ff 00ff 3c30 0000 0000 0000 00ff 00ff     ....0<..........
 900561c:	3c30 0000 0000 0000 00ff 00ff 3c30 0000     0<..........0<..
 900562c:	0000 0000 00ff 00ff 3c30 0000 0000 0000     ........0<......
 900563c:	00ff 00ff 3c30 0000 0000 0000 00ff 00ff     ....0<..........
 900564c:	3c30 0000 0000 0000 00ff 00ff 3c30 0000     0<..........0<..
 900565c:	0000 0000 00ff 00ff 3c30 0000 0000 0000     ........0<......
 900566c:	00ff 00ff 3c30 0000 0000 0000 00ff 00ff     ....0<..........
 900567c:	3c30 0000 0000 0000 00ff 00ff 3c30 0000     0<..........0<..
 900568c:	0000 0000 00ff 00ff 3c30 0000 0000 0000     ........0<......
 900569c:	00ff 00ff 3c30 0000 0000 0000 00ff 00ff     ....0<..........
 90056ac:	3c30 0000 0000 0000 00ff 00ff 3c30 0000     0<..........0<..
 90056bc:	0000 0000 00ff 00ff 3c30 0000 0000 0000     ........0<......
 90056cc:	00ff 00ff 3c30 0000 0000 0000 00ff 00ff     ....0<..........
 90056dc:	3c30 0000 0000 0000 00ff 00ff 3c30 0000     0<..........0<..
 90056ec:	0000 0000 00ff 00ff 3c30 0000 0000 0000     ........0<......
 90056fc:	00ff 00ff 3c30 0000 0000 0000 00ff 00ff     ....0<..........
 900570c:	3c30 0000 0000 0000 00ff 00ff 3c30 0000     0<..........0<..
 900571c:	0000 0000 00ff 00ff 3c30 0000 0000 0000     ........0<......
 900572c:	00ff 00ff 3c30 0000 0000 0000 00ff 00ff     ....0<..........
 900573c:	3c30 0000 0000 0000 00ff 00ff 3c30 0000     0<..........0<..
 900574c:	0000 0000 00ff 00ff 3c30 0000 0000 0000     ........0<......
 900575c:	00ff 00ff 3c30 0000 0000 0000 00ff 00ff     ....0<..........
 900576c:	3c30 0000 0000 0000 00ff 00ff 3c30 0000     0<..........0<..
 900577c:	0000 0000 00ff 00ff 3c30 0000 0000 0000     ........0<......
 900578c:	00ff 00ff 3c30 0000 0000 0000 00ff 00ff     ....0<..........
 900579c:	3c30 0000 0000 0000 00ff 00ff 3c30 0000     0<..........0<..
 90057ac:	0000 0000 00ff 00ff 3c30 0000 0000 0000     ........0<......
 90057bc:	00ff 00ff 3c30 0000 0000 0000 00ff 00ff     ....0<..........
 90057cc:	3c30 0000 0000 0000 00ff 00ff 3c30 0000     0<..........0<..
 90057dc:	0000 0000 00ff 00ff 3c30 0000 0000 0000     ........0<......
 90057ec:	00ff 00ff 3c30 0000 0000 0000 00ff 00ff     ....0<..........
 90057fc:	3c30 0000 0000 0000 00ff 00ff 3c30 0000     0<..........0<..
 900580c:	0000 0000 00ff 00ff 3c30 0000 0000 0000     ........0<......
 900581c:	00ff 00ff 3c30 0000 0000 0000 00ff 00ff     ....0<..........
 900582c:	3c30 0000 0000 0000 00ff 00ff 3c30 0000     0<..........0<..
 900583c:	0000 0000 00ff 00ff 3c30 0000 0000 0000     ........0<......
 900584c:	00ff 00ff 3c30 0000 0000 0000 00ff 00ff     ....0<..........
 900585c:	3c30 0000 0000 0000 00ff 00ff 3c30 0000     0<..........0<..
 900586c:	0000 0000 00ff 00ff 3c30 0000 0000 0000     ........0<......
 900587c:	00ff 00ff 3c30 0000 0000 0000 00ff 00ff     ....0<..........
 900588c:	3c30 0000 0000 0000 00ff 00ff 3c30 0000     0<..........0<..
 900589c:	0000 0000 00ff 00ff 3c30 0000 0000 0000     ........0<......
 90058ac:	00ff 00ff 3c30 0000 0000 0000 00ff 00ff     ....0<..........
 90058bc:	3c30 0000 0000 0000 00ff 00ff 3c30 0000     0<..........0<..
 90058cc:	0000 0000 00ff 00ff 3c30 0000 0000 0000     ........0<......
 90058dc:	00ff 00ff 3c30 0000 0000 0000 00ff 00ff     ....0<..........
 90058ec:	3c30 0000 0000 0000 00ff 00ff 3c30 0000     0<..........0<..
 90058fc:	0000 0000 00ff 00ff 3c30 0000 0000 0000     ........0<......
 900590c:	00ff 00ff 3c30 0000 0000 0000 00ff 00ff     ....0<..........
 900591c:	3c30 0000 0000 0000 00ff 00ff 3c30 0000     0<..........0<..
 900592c:	0000 0000 00ff 00ff 3c30 0000 0000 0000     ........0<......
 900593c:	00ff 00ff 3c30 0000 0000 0000 00ff 00ff     ....0<..........
 900594c:	3c30 0000 0000 0000 00ff 00ff 3c30 0000     0<..........0<..
 900595c:	0000 0000 00ff 00ff 3c30 0000 0000 0000     ........0<......
 900596c:	00ff 00ff 3c30 0000 0000 0000 00ff 00ff     ....0<..........
 900597c:	3c30 0000 0000 0000 00ff 00ff 3c30 0000     0<..........0<..
 900598c:	0000 0000 00ff 00ff 3c30 0000 0000 0000     ........0<......
 900599c:	00ff 00ff 3c30 0000 0000 0000 00ff 00ff     ....0<..........
 90059ac:	3c30 0000 0000 0000 00ff 00ff 3c30 0000     0<..........0<..
 90059bc:	0000 0000 00ff 00ff 3c30 0000 0000 0000     ........0<......
 90059cc:	00ff 00ff 3c30 0000 0000 0000 00ff 00ff     ....0<..........
 90059dc:	3c30 0000 0000 0000 00ff 00ff 3c30 0000     0<..........0<..
 90059ec:	0000 0000 00ff 00ff 3c30 0000 0000 0000     ........0<......
 90059fc:	00ff 00ff 3c30 0000 0000 0000 00ff 00ff     ....0<..........
 9005a0c:	3c30 0000 0000 0000 00ff 00ff 3c30 0000     0<..........0<..
 9005a1c:	0000 0000 00ff 00ff 3c30 0000 0000 0000     ........0<......
 9005a2c:	00ff 00ff 3c30 0000 0000 0000 00ff 00ff     ....0<..........
 9005a3c:	3c30 0000 0000 0000 00ff 00ff 3c30 0000     0<..........0<..
 9005a4c:	0000 0000 00ff 00ff 3c30 0000 0000 0000     ........0<......
 9005a5c:	00ff 00ff 3c30 0000 0000 0000 00ff 00ff     ....0<..........
 9005a6c:	3c30 0000 0000 0000 00ff 00ff 3c30 0000     0<..........0<..
 9005a7c:	0000 0000 00ff 00ff 3c30 0000 0000 0000     ........0<......
 9005a8c:	00ff 00ff 3c30 0000 0000 0000 00ff 00ff     ....0<..........
 9005a9c:	3c30 0000 0000 0000 00ff 00ff 3c30 0000     0<..........0<..
 9005aac:	0000 0000 00ff 00ff 3c30 0000 0000 0000     ........0<......
 9005abc:	00ff 00ff 3c30 0000 0000 0000 00ff 00ff     ....0<..........
 9005acc:	3c30 0000 0000 0000 00ff 00ff 3c30 0000     0<..........0<..
 9005adc:	0000 0000 00ff 00ff 3c30 0000 0000 0000     ........0<......
 9005aec:	00ff 00ff 3c30 0000 0000 0000 00ff 00ff     ....0<..........
 9005afc:	3c30 0000 0000 0000 00ff 00ff 3c30 0000     0<..........0<..
 9005b0c:	0000 0000 00ff 00ff 3c30 0000 0000 0000     ........0<......
 9005b1c:	00ff 00ff 3c30 0000 0000 0000 00ff 00ff     ....0<..........
 9005b2c:	3c30 0000 0000 0000 00ff 00ff 3c30 0000     0<..........0<..
 9005b3c:	0000 0000 00ff 00ff 3c30 0000 0000 0000     ........0<......
 9005b4c:	00ff 00ff 3c30 0000 0000 0000 00ff 00ff     ....0<..........
 9005b5c:	3c30 0000 0000 0000 00ff 00ff 3c30 0000     0<..........0<..
 9005b6c:	0000 0000 00ff 00ff 3c30 0000 0000 0000     ........0<......
 9005b7c:	00ff 00ff 3c30 0000 0000 0000 00ff 00ff     ....0<..........
 9005b8c:	3c30 0000 0000 0000 00ff 00ff 3c30 0000     0<..........0<..
 9005b9c:	0000 0000 00ff 00ff 3c30 0000 0000 0000     ........0<......
 9005bac:	00ff 00ff 3c30 0000 0000 0000 00ff 00ff     ....0<..........
 9005bbc:	3c30 0000 0000 0000 00ff 00ff 3c30 0000     0<..........0<..
 9005bcc:	0000 0000 00ff 00ff 3c30 0000 0000 0000     ........0<......
 9005bdc:	00ff 00ff 3c30 0000 0000 0000 00ff 00ff     ....0<..........
 9005bec:	3c30 0000 0000 0000 00ff 00ff 3c30 0000     0<..........0<..
 9005bfc:	0000 0000 00ff 00ff 3c30 0000 0000 0000     ........0<......
 9005c0c:	00ff 00ff 3c30 0000 0000 0000 00ff 00ff     ....0<..........
 9005c1c:	3c30 0000 0000 0000 00ff 00ff 3c30 0000     0<..........0<..
 9005c2c:	0000 0000 00ff 00ff 3c30 0000 0000 0000     ........0<......
 9005c3c:	00ff 00ff 3c30 0000 0000 0000 00ff 00ff     ....0<..........
 9005c4c:	3c30 0000 0000 0000 00ff 00ff 3c30 0000     0<..........0<..
 9005c5c:	0000 0000 00ff 00ff 3c30 0000 0000 0000     ........0<......
 9005c6c:	00ff 00ff 3c30 0000 0000 0000 00ff 00ff     ....0<..........
 9005c7c:	3c30 0000 0000 0000 00ff 00ff 3c30 0000     0<..........0<..
 9005c8c:	0000 0000 00ff 00ff 3c30 0000 0000 0000     ........0<......
 9005c9c:	00ff 00ff 3c30 0000 0000 0000 00ff 00ff     ....0<..........
 9005cac:	3c30 0000 0000 0000 00ff 00ff 3c30 0000     0<..........0<..
 9005cbc:	0000 0000 00ff 00ff 3c30 0000 0000 0000     ........0<......
 9005ccc:	00ff 00ff                                   ....

09005cd0 <pokemon_cries_forward>:
 9005cd0:	3c20 0000 0000 0000 00ff 00ff 3c20 0000      <.......... <..
 9005ce0:	0000 0000 00ff 00ff 3c20 0000 0000 0000     ........ <......
 9005cf0:	00ff 00ff 3c20 0000 0000 0000 00ff 00ff     .... <..........
 9005d00:	3c20 0000 0000 0000 00ff 00ff 3c20 0000      <.......... <..
 9005d10:	0000 0000 00ff 00ff 3c20 0000 0000 0000     ........ <......
 9005d20:	00ff 00ff 3c20 0000 0000 0000 00ff 00ff     .... <..........
 9005d30:	3c20 0000 0000 0000 00ff 00ff 3c20 0000      <.......... <..
 9005d40:	0000 0000 00ff 00ff 3c20 0000 0000 0000     ........ <......
 9005d50:	00ff 00ff 3c20 0000 0000 0000 00ff 00ff     .... <..........
 9005d60:	3c20 0000 0000 0000 00ff 00ff 3c20 0000      <.......... <..
 9005d70:	0000 0000 00ff 00ff 3c20 0000 0000 0000     ........ <......
 9005d80:	00ff 00ff 3c20 0000 0000 0000 00ff 00ff     .... <..........
 9005d90:	3c20 0000 0000 0000 00ff 00ff 3c20 0000      <.......... <..
 9005da0:	0000 0000 00ff 00ff 3c20 0000 0000 0000     ........ <......
 9005db0:	00ff 00ff 3c20 0000 0000 0000 00ff 00ff     .... <..........
 9005dc0:	3c00 0000 0000 0000 00ff 00ff 3c20 0000     .<.......... <..
 9005dd0:	0000 0000 00ff 00ff 3c20 0000 0000 0000     ........ <......
 9005de0:	00ff 00ff 3c20 0000 0000 0000 00ff 00ff     .... <..........
 9005df0:	3c20 0000 0000 0000 00ff 00ff 3c20 0000      <.......... <..
 9005e00:	0000 0000 00ff 00ff 3c20 0000 0000 0000     ........ <......
 9005e10:	00ff 00ff 3c20 0000 0000 0000 00ff 00ff     .... <..........
 9005e20:	3c20 0000 0000 0000 00ff 00ff 3c20 0000      <.......... <..
 9005e30:	0000 0000 00ff 00ff 3c20 0000 0000 0000     ........ <......
 9005e40:	00ff 00ff 3c20 0000 0000 0000 00ff 00ff     .... <..........
 9005e50:	3c20 0000 0000 0000 00ff 00ff 3c20 0000      <.......... <..
 9005e60:	0000 0000 00ff 00ff 3c20 0000 0000 0000     ........ <......
 9005e70:	00ff 00ff 3c20 0000 0000 0000 00ff 00ff     .... <..........
 9005e80:	3c20 0000 0000 0000 00ff 00ff 3c20 0000      <.......... <..
 9005e90:	0000 0000 00ff 00ff 3c20 0000 0000 0000     ........ <......
 9005ea0:	00ff 00ff 3c20 0000 0000 0000 00ff 00ff     .... <..........
 9005eb0:	3c20 0000 0000 0000 00ff 00ff 3c20 0000      <.......... <..
 9005ec0:	0000 0000 00ff 00ff 3c20 0000 0000 0000     ........ <......
 9005ed0:	00ff 00ff 3c20 0000 0000 0000 00ff 00ff     .... <..........
 9005ee0:	3c20 0000 0000 0000 00ff 00ff 3c20 0000      <.......... <..
 9005ef0:	0000 0000 00ff 00ff 3c20 0000 0000 0000     ........ <......
 9005f00:	00ff 00ff 3c20 0000 0000 0000 00ff 00ff     .... <..........
 9005f10:	3c20 0000 0000 0000 00ff 00ff 3c20 0000      <.......... <..
 9005f20:	0000 0000 00ff 00ff 3c20 0000 0000 0000     ........ <......
 9005f30:	00ff 00ff 3c20 0000 0000 0000 00ff 00ff     .... <..........
 9005f40:	3c20 0000 0000 0000 00ff 00ff 3c20 0000      <.......... <..
 9005f50:	0000 0000 00ff 00ff 3c20 0000 0000 0000     ........ <......
 9005f60:	00ff 00ff 3c20 0000 0000 0000 00ff 00ff     .... <..........
 9005f70:	3c20 0000 0000 0000 00ff 00ff 3c20 0000      <.......... <..
 9005f80:	0000 0000 00ff 00ff 3c20 0000 0000 0000     ........ <......
 9005f90:	00ff 00ff 3c20 0000 0000 0000 00ff 00ff     .... <..........
 9005fa0:	3c20 0000 0000 0000 00ff 00ff 3c20 0000      <.......... <..
 9005fb0:	0000 0000 00ff 00ff 3c20 0000 0000 0000     ........ <......
 9005fc0:	00ff 00ff 3c20 0000 0000 0000 00ff 00ff     .... <..........
 9005fd0:	3c20 0000 0000 0000 00ff 00ff 3c20 0000      <.......... <..
 9005fe0:	0000 0000 00ff 00ff 3c20 0000 0000 0000     ........ <......
 9005ff0:	00ff 00ff 3c20 0000 0000 0000 00ff 00ff     .... <..........
 9006000:	3c20 0000 0000 0000 00ff 00ff 3c20 0000      <.......... <..
 9006010:	0000 0000 00ff 00ff 3c20 0000 0000 0000     ........ <......
 9006020:	00ff 00ff 3c20 0000 0000 0000 00ff 00ff     .... <..........
 9006030:	3c20 0000 0000 0000 00ff 00ff 3c20 0000      <.......... <..
 9006040:	0000 0000 00ff 00ff 3c20 0000 0000 0000     ........ <......
 9006050:	00ff 00ff 3c20 0000 0000 0000 00ff 00ff     .... <..........
 9006060:	3c20 0000 0000 0000 00ff 00ff 3c20 0000      <.......... <..
 9006070:	0000 0000 00ff 00ff 3c20 0000 0000 0000     ........ <......
 9006080:	00ff 00ff 3c20 0000 0000 0000 00ff 00ff     .... <..........
 9006090:	3c20 0000 0000 0000 00ff 00ff 3c20 0000      <.......... <..
 90060a0:	0000 0000 00ff 00ff 3c20 0000 0000 0000     ........ <......
 90060b0:	00ff 00ff 3c20 0000 0000 0000 00ff 00ff     .... <..........
 90060c0:	3c20 0000 0000 0000 00ff 00ff 3c20 0000      <.......... <..
 90060d0:	0000 0000 00ff 00ff 3c20 0000 0000 0000     ........ <......
 90060e0:	00ff 00ff 3c20 0000 0000 0000 00ff 00ff     .... <..........
 90060f0:	3c20 0000 0000 0000 00ff 00ff 3c20 0000      <.......... <..
 9006100:	0000 0000 00ff 00ff 3c20 0000 0000 0000     ........ <......
 9006110:	00ff 00ff 3c20 0000 0000 0000 00ff 00ff     .... <..........
 9006120:	3c20 0000 0000 0000 00ff 00ff 3c20 0000      <.......... <..
 9006130:	0000 0000 00ff 00ff 3c20 0000 0000 0000     ........ <......
 9006140:	00ff 00ff 3c20 0000 0000 0000 00ff 00ff     .... <..........
 9006150:	3c20 0000 0000 0000 00ff 00ff 3c20 0000      <.......... <..
 9006160:	0000 0000 00ff 00ff 3c20 0000 0000 0000     ........ <......
 9006170:	00ff 00ff 3c20 0000 0000 0000 00ff 00ff     .... <..........
 9006180:	3c20 0000 0000 0000 00ff 00ff 3c20 0000      <.......... <..
 9006190:	0000 0000 00ff 00ff 3c20 0000 0000 0000     ........ <......
 90061a0:	00ff 00ff 3c20 0000 0000 0000 00ff 00ff     .... <..........
 90061b0:	3c20 0000 0000 0000 00ff 00ff 3c20 0000      <.......... <..
 90061c0:	0000 0000 00ff 00ff 3c20 0000 0000 0000     ........ <......
 90061d0:	00ff 00ff 3c20 0000 0000 0000 00ff 00ff     .... <..........
 90061e0:	3c20 0000 0000 0000 00ff 00ff 3c20 0000      <.......... <..
 90061f0:	0000 0000 00ff 00ff 3c20 0000 0000 0000     ........ <......
 9006200:	00ff 00ff 3c20 0000 0000 0000 00ff 00ff     .... <..........
 9006210:	3c20 0000 0000 0000 00ff 00ff 3c20 0000      <.......... <..
 9006220:	0000 0000 00ff 00ff 3c20 0000 0000 0000     ........ <......
 9006230:	00ff 00ff 3c20 0000 0000 0000 00ff 00ff     .... <..........
 9006240:	3c20 0000 0000 0000 00ff 00ff 3c20 0000      <.......... <..
 9006250:	0000 0000 00ff 00ff 3c20 0000 0000 0000     ........ <......
 9006260:	00ff 00ff 3c20 0000 0000 0000 00ff 00ff     .... <..........
 9006270:	3c20 0000 0000 0000 00ff 00ff 3c20 0000      <.......... <..
 9006280:	0000 0000 00ff 00ff 3c20 0000 0000 0000     ........ <......
 9006290:	00ff 00ff 3c20 0000 0000 0000 00ff 00ff     .... <..........
 90062a0:	3c20 0000 0000 0000 00ff 00ff 3c20 0000      <.......... <..
 90062b0:	0000 0000 00ff 00ff 3c20 0000 0000 0000     ........ <......
 90062c0:	00ff 00ff 3c20 0000 0000 0000 00ff 00ff     .... <..........
 90062d0:	3c20 0000 0000 0000 00ff 00ff 3c20 0000      <.......... <..
 90062e0:	0000 0000 00ff 00ff 3c20 0000 0000 0000     ........ <......
 90062f0:	00ff 00ff 3c20 0000 0000 0000 00ff 00ff     .... <..........
 9006300:	3c20 0000 0000 0000 00ff 00ff 3c20 0000      <.......... <..
 9006310:	0000 0000 00ff 00ff 3c20 0000 0000 0000     ........ <......
 9006320:	00ff 00ff 3c20 0000 0000 0000 00ff 00ff     .... <..........
 9006330:	3c20 0000 0000 0000 00ff 00ff 3c20 0000      <.......... <..
 9006340:	0000 0000 00ff 00ff 3c20 0000 0000 0000     ........ <......
 9006350:	00ff 00ff 3c20 0000 0000 0000 00ff 00ff     .... <..........
 9006360:	3c20 0000 0000 0000 00ff 00ff 3c20 0000      <.......... <..
 9006370:	0000 0000 00ff 00ff 3c20 0000 0000 0000     ........ <......
 9006380:	00ff 00ff 3c20 0000 0000 0000 00ff 00ff     .... <..........
 9006390:	3c20 0000 0000 0000 00ff 00ff 3c20 0000      <.......... <..
 90063a0:	0000 0000 00ff 00ff 3c20 0000 0000 0000     ........ <......
 90063b0:	00ff 00ff 3c20 0000 0000 0000 00ff 00ff     .... <..........
 90063c0:	3c20 0000 0000 0000 00ff 00ff 3c20 0000      <.......... <..
 90063d0:	0000 0000 00ff 00ff 3c20 0000 0000 0000     ........ <......
 90063e0:	00ff 00ff 3c20 0000 0000 0000 00ff 00ff     .... <..........
 90063f0:	3c20 0000 0000 0000 00ff 00ff 3c20 0000      <.......... <..
 9006400:	0000 0000 00ff 00ff 3c20 0000 0000 0000     ........ <......
 9006410:	00ff 00ff 3c20 0000 0000 0000 00ff 00ff     .... <..........
 9006420:	3c20 0000 0000 0000 00ff 00ff 3c20 0000      <.......... <..
 9006430:	0000 0000 00ff 00ff 3c20 0000 0000 0000     ........ <......
 9006440:	00ff 00ff 3c20 0000 0000 0000 00ff 00ff     .... <..........
 9006450:	3c20 0000 0000 0000 00ff 00ff 3c20 0000      <.......... <..
 9006460:	0000 0000 00ff 00ff 3c20 0000 0000 0000     ........ <......
 9006470:	00ff 00ff 3c20 0000 0000 0000 00ff 00ff     .... <..........
 9006480:	3c20 0000 0000 0000 00ff 00ff 3c20 0000      <.......... <..
 9006490:	0000 0000 00ff 00ff 3c20 0000 0000 0000     ........ <......
 90064a0:	00ff 00ff 3c20 0000 0000 0000 00ff 00ff     .... <..........
 90064b0:	3c20 0000 0000 0000 00ff 00ff 3c20 0000      <.......... <..
 90064c0:	0000 0000 00ff 00ff 3c20 0000 0000 0000     ........ <......
 90064d0:	00ff 00ff 3c20 0000 0000 0000 00ff 00ff     .... <..........
 90064e0:	3c20 0000 0000 0000 00ff 00ff 3c20 0000      <.......... <..
 90064f0:	0000 0000 00ff 00ff 3c20 0000 0000 0000     ........ <......
 9006500:	00ff 00ff 3c20 0000 0000 0000 00ff 00ff     .... <..........
 9006510:	3c20 0000 0000 0000 00ff 00ff 3c20 0000      <.......... <..
 9006520:	0000 0000 00ff 00ff 3c20 0000 0000 0000     ........ <......
 9006530:	00ff 00ff 3c20 0000 0000 0000 00ff 00ff     .... <..........
 9006540:	3c20 0000 0000 0000 00ff 00ff 3c20 0000      <.......... <..
 9006550:	0000 0000 00ff 00ff 3c20 0000 0000 0000     ........ <......
 9006560:	00ff 00ff 3c20 0000 0000 0000 00ff 00ff     .... <..........
 9006570:	3c20 0000 0000 0000 00ff 00ff 3c20 0000      <.......... <..
 9006580:	0000 0000 00ff 00ff 3c20 0000 0000 0000     ........ <......
 9006590:	00ff 00ff 3c20 0000 0000 0000 00ff 00ff     .... <..........
 90065a0:	3c20 0000 0000 0000 00ff 00ff 3c20 0000      <.......... <..
 90065b0:	0000 0000 00ff 00ff 3c20 0000 0000 0000     ........ <......
 90065c0:	00ff 00ff 3c20 0000 0000 0000 00ff 00ff     .... <..........
 90065d0:	3c20 0000 0000 0000 00ff 00ff 3c20 0000      <.......... <..
 90065e0:	0000 0000 00ff 00ff 3c20 0000 0000 0000     ........ <......
 90065f0:	00ff 00ff 3c20 0000 0000 0000 00ff 00ff     .... <..........
 9006600:	3c20 0000 0000 0000 00ff 00ff 3c20 0000      <.......... <..
 9006610:	0000 0000 00ff 00ff 3c20 0000 0000 0000     ........ <......
 9006620:	00ff 00ff 3c20 0000 0000 0000 00ff 00ff     .... <..........
 9006630:	3c20 0000 0000 0000 00ff 00ff 3c20 0000      <.......... <..
 9006640:	0000 0000 00ff 00ff 3c20 0000 0000 0000     ........ <......
 9006650:	00ff 00ff 3c20 0000 0000 0000 00ff 00ff     .... <..........
 9006660:	3c20 0000 0000 0000 00ff 00ff 3c20 0000      <.......... <..
 9006670:	0000 0000 00ff 00ff 3c20 0000 0000 0000     ........ <......
 9006680:	00ff 00ff 3c20 0000 0000 0000 00ff 00ff     .... <..........
 9006690:	3c20 0000 0000 0000 00ff 00ff 3c20 0000      <.......... <..
 90066a0:	0000 0000 00ff 00ff 3c20 0000 0000 0000     ........ <......
 90066b0:	00ff 00ff 3c20 0000 0000 0000 00ff 00ff     .... <..........
 90066c0:	3c20 0000 0000 0000 00ff 00ff 3c20 0000      <.......... <..
 90066d0:	0000 0000 00ff 00ff 3c20 0000 0000 0000     ........ <......
 90066e0:	00ff 00ff 3c20 0000 0000 0000 00ff 00ff     .... <..........
 90066f0:	3c20 0000 0000 0000 00ff 00ff 3c20 0000      <.......... <..
 9006700:	0000 0000 00ff 00ff 3c20 0000 0000 0000     ........ <......
 9006710:	00ff 00ff 3c20 0000 0000 0000 00ff 00ff     .... <..........
 9006720:	3c20 0000 0000 0000 00ff 00ff 3c20 0000      <.......... <..
 9006730:	0000 0000 00ff 00ff 3c20 0000 0000 0000     ........ <......
 9006740:	00ff 00ff 3c20 0000 0000 0000 00ff 00ff     .... <..........
 9006750:	3c20 0000 0000 0000 00ff 00ff 3c20 0000      <.......... <..
 9006760:	0000 0000 00ff 00ff 3c20 0000 0000 0000     ........ <......
 9006770:	00ff 00ff 3c20 0000 0000 0000 00ff 00ff     .... <..........
 9006780:	3c20 0000 0000 0000 00ff 00ff 3c20 0000      <.......... <..
 9006790:	0000 0000 00ff 00ff 3c20 0000 0000 0000     ........ <......
 90067a0:	00ff 00ff 3c20 0000 0000 0000 00ff 00ff     .... <..........
 90067b0:	3c20 0000 0000 0000 00ff 00ff 3c20 0000      <.......... <..
 90067c0:	0000 0000 00ff 00ff 3c20 0000 0000 0000     ........ <......
 90067d0:	00ff 00ff 3c20 0000 0000 0000 00ff 00ff     .... <..........
 90067e0:	3c20 0000 0000 0000 00ff 00ff 3c20 0000      <.......... <..
 90067f0:	0000 0000 00ff 00ff 3c20 0000 0000 0000     ........ <......
 9006800:	00ff 00ff 3c20 0000 0000 0000 00ff 00ff     .... <..........
 9006810:	3c20 0000 0000 0000 00ff 00ff 3c20 0000      <.......... <..
 9006820:	0000 0000 00ff 00ff 3c20 0000 0000 0000     ........ <......
 9006830:	00ff 00ff 3c20 0000 0000 0000 00ff 00ff     .... <..........
 9006840:	3c20 0000 0000 0000 00ff 00ff 3c20 0000      <.......... <..
 9006850:	0000 0000 00ff 00ff 3c20 0000 0000 0000     ........ <......
 9006860:	00ff 00ff 3c20 0000 0000 0000 00ff 00ff     .... <..........
 9006870:	3c20 0000 0000 0000 00ff 00ff 3c20 0000      <.......... <..
 9006880:	0000 0000 00ff 00ff 3c20 0000 0000 0000     ........ <......
 9006890:	00ff 00ff 3c20 0000 0000 0000 00ff 00ff     .... <..........
 90068a0:	3c20 0000 0000 0000 00ff 00ff 3c20 0000      <.......... <..
 90068b0:	0000 0000 00ff 00ff 3c20 0000 0000 0000     ........ <......
 90068c0:	00ff 00ff 3c20 0000 0000 0000 00ff 00ff     .... <..........
 90068d0:	3c20 0000 0000 0000 00ff 00ff 3c20 0000      <.......... <..
 90068e0:	0000 0000 00ff 00ff 3c20 0000 0000 0000     ........ <......
 90068f0:	00ff 00ff 3c20 0000 0000 0000 00ff 00ff     .... <..........
 9006900:	3c20 0000 0000 0000 00ff 00ff 3c20 0000      <.......... <..
 9006910:	0000 0000 00ff 00ff 3c20 0000 0000 0000     ........ <......
 9006920:	00ff 00ff 3c20 0000 0000 0000 00ff 00ff     .... <..........
 9006930:	3c20 0000 0000 0000 00ff 00ff 3c20 0000      <.......... <..
 9006940:	0000 0000 00ff 00ff 3c20 0000 0000 0000     ........ <......
 9006950:	00ff 00ff 3c20 0000 0000 0000 00ff 00ff     .... <..........
 9006960:	3c20 0000 0000 0000 00ff 00ff 3c20 0000      <.......... <..
 9006970:	0000 0000 00ff 00ff 3c20 0000 0000 0000     ........ <......
 9006980:	00ff 00ff 3c20 0000 0000 0000 00ff 00ff     .... <..........
 9006990:	3c20 0000 0000 0000 00ff 00ff 3c20 0000      <.......... <..
 90069a0:	0000 0000 00ff 00ff 3c20 0000 0000 0000     ........ <......
 90069b0:	00ff 00ff 3c20 0000 0000 0000 00ff 00ff     .... <..........
 90069c0:	3c20 0000 0000 0000 00ff 00ff 3c20 0000      <.......... <..
 90069d0:	0000 0000 00ff 00ff 3c20 0000 0000 0000     ........ <......
 90069e0:	00ff 00ff 3c20 0000 0000 0000 00ff 00ff     .... <..........
 90069f0:	3c20 0000 0000 0000 00ff 00ff 3c20 0000      <.......... <..
 9006a00:	0000 0000 00ff 00ff 3c20 0000 0000 0000     ........ <......
 9006a10:	00ff 00ff 3c20 0000 0000 0000 00ff 00ff     .... <..........
 9006a20:	3c20 0000 0000 0000 00ff 00ff 3c20 0000      <.......... <..
 9006a30:	0000 0000 00ff 00ff 3c20 0000 0000 0000     ........ <......
 9006a40:	00ff 00ff 3c20 0000 0000 0000 00ff 00ff     .... <..........
 9006a50:	3c20 0000 0000 0000 00ff 00ff 3c20 0000      <.......... <..
 9006a60:	0000 0000 00ff 00ff 3c20 0000 0000 0000     ........ <......
 9006a70:	00ff 00ff 3c20 0000 0000 0000 00ff 00ff     .... <..........
 9006a80:	3c20 0000 0000 0000 00ff 00ff 3c20 0000      <.......... <..
 9006a90:	0000 0000 00ff 00ff 3c20 0000 0000 0000     ........ <......
 9006aa0:	00ff 00ff 3c20 0000 0000 0000 00ff 00ff     .... <..........
 9006ab0:	3c20 0000 0000 0000 00ff 00ff 3c20 0000      <.......... <..
 9006ac0:	0000 0000 00ff 00ff 3c20 0000 0000 0000     ........ <......
 9006ad0:	00ff 00ff 3c20 0000 0000 0000 00ff 00ff     .... <..........
 9006ae0:	3c20 0000 0000 0000 00ff 00ff 3c20 0000      <.......... <..
 9006af0:	0000 0000 00ff 00ff 3c20 0000 0000 0000     ........ <......
 9006b00:	00ff 00ff 3c20 0000 0000 0000 00ff 00ff     .... <..........
 9006b10:	3c20 0000 0000 0000 00ff 00ff 3c20 0000      <.......... <..
 9006b20:	0000 0000 00ff 00ff 3c20 0000 0000 0000     ........ <......
 9006b30:	00ff 00ff 3c20 0000 0000 0000 00ff 00ff     .... <..........
 9006b40:	3c20 0000 0000 0000 00ff 00ff 3c20 0000      <.......... <..
 9006b50:	0000 0000 00ff 00ff 3c20 0000 0000 0000     ........ <......
 9006b60:	00ff 00ff 3c20 0000 0000 0000 00ff 00ff     .... <..........
 9006b70:	3c20 0000 0000 0000 00ff 00ff 3c20 0000      <.......... <..
 9006b80:	0000 0000 00ff 00ff 3c20 0000 0000 0000     ........ <......
 9006b90:	00ff 00ff 3c20 0000 0000 0000 00ff 00ff     .... <..........
 9006ba0:	3c20 0000 0000 0000 00ff 00ff 3c20 0000      <.......... <..
 9006bb0:	0000 0000 00ff 00ff 3c20 0000 0000 0000     ........ <......
 9006bc0:	00ff 00ff 3c20 0000 0000 0000 00ff 00ff     .... <..........
 9006bd0:	3c20 0000 0000 0000 00ff 00ff 3c20 0000      <.......... <..
 9006be0:	0000 0000 00ff 00ff 3c20 0000 0000 0000     ........ <......
 9006bf0:	00ff 00ff 3c20 0000 0000 0000 00ff 00ff     .... <..........
 9006c00:	3c20 0000 0000 0000 00ff 00ff 3c20 0000      <.......... <..
 9006c10:	0000 0000 00ff 00ff 3c20 0000 0000 0000     ........ <......
 9006c20:	00ff 00ff 3c20 0000 0000 0000 00ff 00ff     .... <..........
 9006c30:	3c20 0000 0000 0000 00ff 00ff 3c20 0000      <.......... <..
 9006c40:	0000 0000 00ff 00ff 3c20 0000 0000 0000     ........ <......
 9006c50:	00ff 00ff 3c20 0000 0000 0000 00ff 00ff     .... <..........
 9006c60:	3c20 0000 0000 0000 00ff 00ff 3c20 0000      <.......... <..
 9006c70:	0000 0000 00ff 00ff 3c20 0000 0000 0000     ........ <......
 9006c80:	00ff 00ff 3c20 0000 0000 0000 00ff 00ff     .... <..........
 9006c90:	3c20 0000 0000 0000 00ff 00ff 3c20 0000      <.......... <..
 9006ca0:	0000 0000 00ff 00ff 3c20 0000 0000 0000     ........ <......
 9006cb0:	00ff 00ff 3c20 0000 0000 0000 00ff 00ff     .... <..........
 9006cc0:	3c20 0000 0000 0000 00ff 00ff 3c20 0000      <.......... <..
 9006cd0:	0000 0000 00ff 00ff 3c20 0000 0000 0000     ........ <......
 9006ce0:	00ff 00ff 3c20 0000 0000 0000 00ff 00ff     .... <..........
 9006cf0:	3c20 0000 0000 0000 00ff 00ff 3c20 0000      <.......... <..
 9006d00:	0000 0000 00ff 00ff 3c20 0000 0000 0000     ........ <......
 9006d10:	00ff 00ff 3c20 0000 0000 0000 00ff 00ff     .... <..........
 9006d20:	3c20 0000 0000 0000 00ff 00ff 3c20 0000      <.......... <..
 9006d30:	0000 0000 00ff 00ff 3c20 0000 0000 0000     ........ <......
 9006d40:	00ff 00ff 3c20 0000 0000 0000 00ff 00ff     .... <..........
 9006d50:	3c20 0000 0000 0000 00ff 00ff 3c20 0000      <.......... <..
 9006d60:	0000 0000 00ff 00ff 3c20 0000 0000 0000     ........ <......
 9006d70:	00ff 00ff 3c20 0000 0000 0000 00ff 00ff     .... <..........
 9006d80:	3c20 0000 0000 0000 00ff 00ff 3c20 0000      <.......... <..
 9006d90:	0000 0000 00ff 00ff 3c20 0000 0000 0000     ........ <......
 9006da0:	00ff 00ff 3c20 0000 0000 0000 00ff 00ff     .... <..........
 9006db0:	3c20 0000 0000 0000 00ff 00ff 3c20 0000      <.......... <..
 9006dc0:	0000 0000 00ff 00ff 3c20 0000 0000 0000     ........ <......
 9006dd0:	00ff 00ff 3c20 0000 0000 0000 00ff 00ff     .... <..........
 9006de0:	3c20 0000 0000 0000 00ff 00ff 3c20 0000      <.......... <..
 9006df0:	0000 0000 00ff 00ff 3c20 0000 0000 0000     ........ <......
 9006e00:	00ff 00ff 3c20 0000 0000 0000 00ff 00ff     .... <..........
 9006e10:	3c20 0000 0000 0000 00ff 00ff 3c20 0000      <.......... <..
 9006e20:	0000 0000 00ff 00ff 3c20 0000 0000 0000     ........ <......
 9006e30:	00ff 00ff 3c20 0000 0000 0000 00ff 00ff     .... <..........
 9006e40:	3c20 0000 0000 0000 00ff 00ff 3c20 0000      <.......... <..
 9006e50:	0000 0000 00ff 00ff 3c20 0000 0000 0000     ........ <......
 9006e60:	00ff 00ff 3c20 0000 0000 0000 00ff 00ff     .... <..........
 9006e70:	3c20 0000 0000 0000 00ff 00ff 3c20 0000      <.......... <..
 9006e80:	0000 0000 00ff 00ff 3c20 0000 0000 0000     ........ <......
 9006e90:	00ff 00ff 3c20 0000 0000 0000 00ff 00ff     .... <..........
 9006ea0:	3c20 0000 0000 0000 00ff 00ff 3c20 0000      <.......... <..
 9006eb0:	0000 0000 00ff 00ff 3c20 0000 0000 0000     ........ <......
 9006ec0:	00ff 00ff 3c20 0000 0000 0000 00ff 00ff     .... <..........
 9006ed0:	3c20 0000 0000 0000 00ff 00ff 3c20 0000      <.......... <..
 9006ee0:	0000 0000 00ff 00ff 3c20 0000 0000 0000     ........ <......
 9006ef0:	00ff 00ff 3c20 0000 0000 0000 00ff 00ff     .... <..........
 9006f00:	3c20 0000 0000 0000 00ff 00ff 3c20 0000      <.......... <..
 9006f10:	0000 0000 00ff 00ff 3c20 0000 0000 0000     ........ <......
 9006f20:	00ff 00ff 3c20 0000 0000 0000 00ff 00ff     .... <..........
 9006f30:	3c20 0000 0000 0000 00ff 00ff 3c20 0000      <.......... <..
 9006f40:	0000 0000 00ff 00ff 3c20 0000 0000 0000     ........ <......
 9006f50:	00ff 00ff 3c20 0000 0000 0000 00ff 00ff     .... <..........
 9006f60:	3c20 0000 0000 0000 00ff 00ff 3c20 0000      <.......... <..
 9006f70:	0000 0000 00ff 00ff 3c20 0000 0000 0000     ........ <......
 9006f80:	00ff 00ff 3c20 0000 0000 0000 00ff 00ff     .... <..........
 9006f90:	3c20 0000 0000 0000 00ff 00ff 3c20 0000      <.......... <..
 9006fa0:	0000 0000 00ff 00ff 3c20 0000 0000 0000     ........ <......
 9006fb0:	00ff 00ff 3c20 0000 0000 0000 00ff 00ff     .... <..........
 9006fc0:	3c20 0000 0000 0000 00ff 00ff 3c20 0000      <.......... <..
 9006fd0:	0000 0000 00ff 00ff 3c20 0000 0000 0000     ........ <......
 9006fe0:	00ff 00ff 3c20 0000 0000 0000 00ff 00ff     .... <..........
 9006ff0:	3c20 0000 0000 0000 00ff 00ff 3c20 0000      <.......... <..
 9007000:	0000 0000 00ff 00ff 3c20 0000 0000 0000     ........ <......
 9007010:	00ff 00ff 3c20 0000 0000 0000 00ff 00ff     .... <..........
 9007020:	3c20 0000 0000 0000 00ff 00ff 3c20 0000      <.......... <..
 9007030:	0000 0000 00ff 00ff 3c20 0000 0000 0000     ........ <......
 9007040:	00ff 00ff 3c20 0000 0000 0000 00ff 00ff     .... <..........
 9007050:	3c20 0000 0000 0000 00ff 00ff 3c20 0000      <.......... <..
 9007060:	0000 0000 00ff 00ff 3c20 0000 0000 0000     ........ <......
 9007070:	00ff 00ff 3c20 0000 0000 0000 00ff 00ff     .... <..........
 9007080:	3c20 0000 0000 0000 00ff 00ff 3c20 0000      <.......... <..
 9007090:	0000 0000 00ff 00ff 3c20 0000 0000 0000     ........ <......
 90070a0:	00ff 00ff 3c20 0000 0000 0000 00ff 00ff     .... <..........
 90070b0:	3c20 0000 0000 0000 00ff 00ff 3c20 0000      <.......... <..
 90070c0:	0000 0000 00ff 00ff 3c20 0000 0000 0000     ........ <......
 90070d0:	00ff 00ff 3c20 0000 0000 0000 00ff 00ff     .... <..........
 90070e0:	3c20 0000 0000 0000 00ff 00ff 3c20 0000      <.......... <..
 90070f0:	0000 0000 00ff 00ff 3c20 0000 0000 0000     ........ <......
 9007100:	00ff 00ff 3c20 0000 0000 0000 00ff 00ff     .... <..........
 9007110:	3c20 0000 0000 0000 00ff 00ff 3c20 0000      <.......... <..
 9007120:	0000 0000 00ff 00ff 3c20 0000 0000 0000     ........ <......
 9007130:	00ff 00ff 3c20 0000 0000 0000 00ff 00ff     .... <..........
 9007140:	3c20 0000 0000 0000 00ff 00ff 3c20 0000      <.......... <..
 9007150:	0000 0000 00ff 00ff 3c20 0000 0000 0000     ........ <......
 9007160:	00ff 00ff 3c20 0000 0000 0000 00ff 00ff     .... <..........
 9007170:	3c20 0000 0000 0000 00ff 00ff 3c20 0000      <.......... <..
 9007180:	0000 0000 00ff 00ff 3c20 0000 0000 0000     ........ <......
 9007190:	00ff 00ff                                   ....

09007194 <morgana_anims>:
 9007194:	0320 0322 0324 0326 0000 0321 0323 0325      .".$.&...!.#.%.
 90071a4:	0327 0000 0328 032a 032c 032e 0c00 0329     '...(.*.,.....).
 90071b4:	032b 032d 032f 0c00 0330 0332 0334 0336     +.-./...0.2.4.6.
 90071c4:	0c00 0331 0333 0335 0337 0c00 0338 033a     ..1.3.5.7...8.:.
 90071d4:	033c 033e 0c00 0339 033b 033d 033f 0c00     <.>...9.;.=.?...
 90071e4:	0340 0342 0344 0346 0c00 0341 0343 0345     @.B.D.F...A.C.E.
 90071f4:	0347 0c00 034e 034c 034a 0348 0000 034f     G...N.L.J.H...O.
 9007204:	034d 034b 0349 0000 0356 0354 0352 0350     M.K.I...V.T.R.P.
 9007214:	0000 0357 0355 0353 0351 0000 035e 035c     ..W.U.S.Q...^.\.
 9007224:	035a 0358 0000 035f 035d 035b 0359 0000     Z.X..._.].[.Y...
 9007234:	0366 0364 0362 0360 0000 0367 0365 0363     f.d.b.`...g.e.c.
 9007244:	0361 0000 036e 036c 036a 0368 0c00 036f     a...n.l.j.h...o.
 9007254:	036d 036b 0369 0c00 0376 0374 0372 0370     m.k.i...v.t.r.p.
 9007264:	0000 0377 0375 0373 0371 0000 037e 037c     ..w.u.s.q...~.|.
 9007274:	037a 0378 0000 037f 037d 037b 0379 0000     z.x.....}.{.y...
 9007284:	0386 0384 0382 0380 0000 0387 0385 0383     ................
 9007294:	0381 0000 038e 038c 038a 0388 0000 038f     ................
 90072a4:	038d 038b 0389 0000 0396 0394 0392 0390     ................
 90072b4:	0000 0397 0395 0393 0391 0000 039e 039c     ................
 90072c4:	039a 0398 0000 039f 039d 039b 0399 0000     ................
 90072d4:	03a6 03a4 03a2 03a0 0000 03a7 03a5 03a3     ................
 90072e4:	03a1 0000 03ae 03ac 03aa 03a8 0000 03af     ................
 90072f4:	03ad 03ab 03a9 0000 0286 028e 0296 0294     ................
 9007304:	0c00 0287 028f 0297 0295 0c00               ............

09007310 <door_animations>:
 9007310:	02aa 0000 0000 0000 7490 0000 027a 0001     .........t..z...
 9007320:	0000 0000 7488 0000 02c5 0000 0000 0000     .....t..........
 9007330:	7480 0000 0333 0001 0000 0000 7478 0000     .t..3.......xt..
 9007340:	0314 0000 0000 0000 7470 0000 0305 0000     ........pt......
 9007350:	0000 0000 7468 0000 02c9 0000 0000 0000     ....ht..........
 9007360:	7460 0000 02c1 0000 0000 0000 7458 0000     `t..........Xt..
 9007370:	02b2 0000 0000 0000 7450 0000 036a 0001     ........Pt..j...
 9007380:	0000 0000 7448 0000 0291 0001 0000 0000     ....Ht..........
 9007390:	7440 0000 02d9 0000 0000 0000 7438 0000     @t..........8t..
 90073a0:	02dd 0000 0000 0000 7430 0000 034b 0000     ........0t..K...
 90073b0:	0000 0000 7428 0000 02f2 0000 0000 0000     ....(t..........
 90073c0:	7420 0000 02ca 0000 0000 0000 7418 0000      t...........t..
 90073d0:	036b 0000 0000 0000 7410 0000 019e 0000     k........t......
 90073e0:	0000 0000 7408 0000 03b9 0000 0000 0000     .....t..........
 90073f0:	7400 0000 0000 0000 0000 0000 0000 0000     .t..............

09007400 <door_animation_sonnaufeld_palettes>:
 9007400:	0707 0707 0707 0707                         ........

09007408 <door_animation_route_4_palettes>:
 9007408:	0c0c 0c0c 0c0c 0c0c                         ........

09007410 <door_animation_meriana_city_palettes>:
 9007410:	0707 0707 0707 0707                         ........

09007418 <door_animation_blackbeard_ship_palettes>:
 9007418:	0707 0707 0707 0707                         ........

09007420 <door_animation_haweiland_palettes>:
 9007420:	0a0a 0a0a 0a0a 0a0a                         ........

09007428 <door_animation_13_palettes>:
 9007428:	0a0a 0a0a 0a0a 0a0a                         ........

09007430 <door_animation_12_palettes>:
 9007430:	0808 0808 0808 0808                         ........

09007438 <door_animation_11_palettes>:
 9007438:	0909 0909 0909 0909                         ........

09007440 <door_animation_10_palettes>:
 9007440:	0707 0707 0707 0707                         ........

09007448 <door_animation_9_palettes>:
 9007448:	0808 0808 0808 0808                         ........

09007450 <door_animation_8_palettes>:
 9007450:	0707 0707 0707 0707                         ........

09007458 <door_animation_7_palettes>:
 9007458:	0b0b 0b0b 0b0b 0b0b                         ........

09007460 <door_animation_6_palettes>:
 9007460:	0808 0808 0808 0808                         ........

09007468 <door_animation_5_palettes>:
 9007468:	0808 0808 0808 0808                         ........

09007470 <door_animation_4_palettes>:
 9007470:	0808 0808 0808 0808                         ........

09007478 <door_animation_3_palettes>:
 9007478:	0a0a 0a0a 0a0a 0a0a                         ........

09007480 <door_animation_2_palettes>:
 9007480:	0707 0707 0707 0707                         ........

09007488 <door_animation_1_palettes>:
 9007488:	0202 0202 0202 0202                         ........

09007490 <door_animation_0_palettes>:
 9007490:	0808 0808 0808 0808                         ........

09007498 <str_tv_aktania>:
 9007498:	bfb0 00e7 f4e0 dae9 00e8 ddd9 d9e2 c200     ................
 90074a8:	e7dd e3e8 ede6 beae dfe3 f0e9 bffb eee6     ................
 90074b8:	dcf4 d9e0 f0e6 be00 e7d5 d000 e6d9 f4dc     ................
 90074c8:	dbe2 dde2 00e7 e3ea fee2 e6bc d7e9 dadc     ................
 90074d8:	e0d9 b8e7 d900 e2dd 00d9 e6ce dbd5 d8f5     ................
 90074e8:	d9dd 00b8 ddd8 00d9 d9d8 fae2 d5db eee2     ................
 90074f8:	e2d9 c500 e2e3 dde8 d9e2 e8e2 d900 dbe6     ................
 9007508:	dde6 dada e2d9 dc00 e8d5 fbad e0bb 00e7     ................
 9007518:	ddd9 00e2 d9c7 d9e8 e6e3 e8dd d500 e7e9     ................
 9007528:	d800 e1d9 d500 e0e0 ea00 e6e3 d8fe e6d9     ................
 9007538:	c500 e7f6 d9e8 d800 e7d9 d900 e2dd e8e7     ................
 9007548:	dbdd e2d9 c0fa e6d9 d9dd e4e2 e6d5 d8d5     ................
 9007558:	e7dd e7d9 bc00 e9e6 dcd7 d9da e7e0 d900     ................
 9007568:	e2dd d7e7 e0dc dbe9 fab8 e3e7 e0e0 d9e8     ................
 9007578:	e700 d7dd 00dc d5d8 00e7 d9c6 d9d6 00e2     ................
 9007588:	e9d5 00da d9d8 fae6 e2c3 d9e7 00e0 f6da     ................
 9007598:	00e6 e1dd d9e1 00e6 d9ea f4e6 d8e2 e6d9     ................
 90075a8:	ade2 d0fb d9dd d9e0 c700 e2d9 d7e7 d9dc     ................
 90075b8:	00e2 ddda e0d9 e2d9 d800 e6d9 c5fe e8d5     ................
 90075c8:	e7d5 e6e8 e4e3 d9dc ee00 e1e9 c900 dae4     ................
 90075d8:	e6d9 00b8 e3e7 d500 d7e9 00dc d9d8 fae6     ................
 90075e8:	e6bb e2d9 e0d5 ddd9 d9e8 00e6 d9d8 00e6     ................
 90075f8:	e8cd d8d5 b8e8 c200 e6d5 d9e6 ade2 befb     ................
 9007608:	e6d9 ee00 e7e9 f4e8 d8e2 dbdd 00d9 d9cc     ................
 9007618:	d9db e8e2 ea00 e2e3 d800 e2d9 ce00 e4e3     ................
 9007628:	d0fe d9dd 00e6 e3df e1e1 e2d9 dde8 e6d9     ................
 9007638:	d9e8 d800 e7d5 cf00 dbe2 f6e0 dfd7 eb00     ................
 9007648:	d9dd dafa e0e3 e8db fbf0 d5c2 e6e6 e2d9     ................
 9007658:	eb00 e6d5 d900 e2dd db00 e3e6 d915 00e6     ................
 9007668:	d5c7 e2e2 00b8 d9e7 e2dd cefe d8e3 dd00     ................
 9007678:	e8e7 d600 d8d9 e9d5 e6d9 e7e2 d9eb e8e6     ................
 9007688:	00ad d7c3 00dc f4dc e8e8 fad9 dde1 00e6     ................
 9007698:	dde2 e1d9 e2d5 00d8 d9d6 e7e7 e6d9 e2d9     ................
 90076a8:	d500 e7e0 bbfa d9e6 d5e2 d9e0 e8dd e6d9     ................
 90076b8:	ea00 e2e3 bc00 e9e6 dcd7 d9da e7e0 eb00     ................
 90076c8:	e2f6 d7e7 d9dc fae2 f5df e2e2 e2d9 e900     ................
 90076d8:	d8e2 e700 00e3 ddd6 00e2 d7dd 00dc e9ee     ................
 90076e8:	dde1 d8e2 e7d9 fae8 e6d9 d9e0 d7dd e8dc     ................
 90076f8:	e6d9 b8e8 d800 e7d5 00e7 ddd8 00d9 e9bb     ................
 9007708:	dbda d6d5 00d9 e9e2 fae2 d9e7 e2dd e1d9     ................
 9007718:	cd00 dce3 00e2 d9c6 e8e7 e6d9 ee00 e8e9     ................
 9007728:	ddd9 00e0 ddeb d8e6 ffad 0000               ............

09007734 <str_tv_primus>:
 9007734:	bfb0 00e7 d5e0 dae9 e2d9 d800 d9dd c800     ................
 9007744:	d7d5 e6dc d7dd e8dc e2d9 fbf0 e4cd d9e6     ................
 9007754:	dcd7 e6d9 00f0 e3c8 dcd7 dd00 e1e1 e6d9     ................
 9007764:	dc00 d6d5 e2d9 eb00 e6dd dffe ddd9 d9e2     ................
 9007774:	c800 e9d9 dbdd d9df e8dd e2d9 ea00 e1e3     ................
 9007784:	ea00 e6d9 dde1 e7e7 d9e8 fae2 e6ca dae3     ................
 9007794:	e7d9 e3e7 00e6 e6ca e1dd e7e9 fbad e6bf     ................
 90077a4:	db00 e0dd 00e8 d9e7 e8dd ea00 d9dd 00e6     ................
 90077b4:	d5ce d9db 00e2 e0d5 fee7 d9ea e1e6 e7dd     ................
 90077c4:	e8e7 00ad d9d4 dbe9 e2d9 e2d5 d5db d9d6     ................
 90077d4:	00e2 e9ee e3da dbe0 fad9 e9eb d8e6 00d9     ................
 90077e4:	e6d9 ea00 e2e3 cd00 dcd7 e6d9 d9db 00e2     ................
 90077f4:	d9d8 fae6 e6c9 d5db dde2 d5e7 dde8 e2e3     ................
 9007804:	ce00 d5d9 00e1 ddd0 e0e3 e8d9 d900 dae2     ................
 9007814:	dcf6 e8e6 fbad e6ca e1dd e7e9 db00 e0dd     ................
 9007824:	00e8 e0d5 00e7 f6da e6dc e2d9 d9d8 fee6     ................
 9007834:	ddd1 e7e7 e2d9 d7e7 d5dc e8da d9e0 00e6     ................
 9007844:	e9d5 00da d9d8 00e1 d9c1 ddd6 e8d9 d800     ................
 9007854:	e6d9 d4fa ddd9 dae8 e6e3 d7e7 e9dc dbe2     ................
 9007864:	fbad ddbe 00d9 e3ca dde0 d9ee 00dd dde2     ................
 9007874:	e1e1 00e8 d9de d9d8 fee2 dddc dae0 d9e6     ................
 9007884:	d7dd d9dc 00e2 ddc2 ebe2 ddd9 00e7 e2d9     ................
 9007894:	dbe8 dbd9 e2d9 ffad                         ........

0900789c <str_tv_champion_report>:
 900789c:	bfb0 00e7 f4e0 dae9 00e8 ddd9 d9e2 ce00     ................
 90078ac:	e0d5 e7df e3dc f0eb c5fb d5e0 e7e9 00f0     ................
 90078bc:	e9c8 b8e2 cf00 dde0 00b8 ddeb e7e7 e2d9     ................
 90078cc:	eb00 e6dd d800 e2d9 fee2 d7e7 e3dc 00e2     ................
 90078dc:	e8d9 d5eb 00e7 d6f6 e6d9 e900 e7e2 e6d9     ................
 90078ec:	e2d9 e200 e9d9 e2d9 bdfa d5dc e4e1 e3dd     ................
 90078fc:	ace2 c8fb ddd9 b8e2 c500 d5e0 e7e9 00b8     ................
 900790c:	d7dd 00dc f6da d7e6 e8dc b8d9 d800 e7d5     ................
 900791c:	fee7 dde7 dcd7 d800 e6d9 e200 e9d9 00d9     ................
 900792c:	dcbd e1d5 dde4 e2e3 f400 15e9 e6d9 e8e7     ................
 900793c:	d6fa d8d9 d7d9 e8df dc00 e0f4 ade8 c300     ................
 900794c:	dcd7 dc00 d6d5 00d9 d6d5 e6d9 dbfa dcd9     ................
 900795c:	e6f5 b8e8 d900 00e6 e3e7 e0e0 00d9 e3e2     ................
 900796c:	dcd7 e700 dcd9 00e6 e9de dbe2 e7fa ddd9     ................
 900797c:	ade2 c5fb d5e0 e7e9 00f0 e6bf 00ac d7c3     ................
 900798c:	00dc f5dc e8e6 00d9 e3ea 00e2 ddd9 d9e2     ................
 900799c:	fee6 e6c0 e9d5 ffb0                         ........

090079a4 <str_tv_violet>:
 90079a4:	bfb0 00e7 f4e0 dae9 00e8 ddd9 d9e2 ce00     ................
 90079b4:	d9dc e3e8 caae e0e3 eedd ddd9 cdfe e2e3     ................
 90079c4:	d9d8 e7e6 e2d9 e9d8 dbe2 fbf0 d6c9 e6d9     ................
 90079d4:	d5eb dcd7 e1e8 ddd9 e8e7 e6d9 c200 e6d5     ................
 90079e4:	d9e6 f0e2 c600 e7d5 d9e7 fee2 ddcd 00d9     ................
 90079f4:	e2e9 00e7 d6f6 e6d9 d800 d9dd c900 dbe6     ................
 9007a04:	e2d5 d5e7 dde8 e2e3 ce00 d5d9 fae1 ddd0     ................
 9007a14:	e0e3 e8d9 e700 e6e4 d7d9 d9dc ade2 befb     ................
 9007a24:	d9dd ea00 e6d9 e6d6 d7d9 d9dc dde6 d7e7     ................
 9007a34:	d9dc c900 dbe6 e2d5 e7dd e8d5 e3dd fee2     ................
 9007a44:	e7dd 00e8 e2dd d800 d9e6 00dd e6c0 dfd5     ................
 9007a54:	dde8 e2e3 e2d9 e900 e8e2 e6d9 d9e8 e0dd     ................
 9007a64:	b8e8 d5fa 00e2 d9d8 d9e6 00e2 e4cd e8dd     ................
 9007a74:	d9ee de00 ebd9 ddd9 e7e0 e100 d7f4 e8dc     ................
 9007a84:	dbdd fad9 e3d0 e7e6 f4e8 d8e2 00d9 e8e7     ................
 9007a94:	dcd9 e2d9 fbad d9cc e3e4 e8e6 e6d9 00f0     ................
 9007aa4:	e6be ddd9 d000 e6e3 e8e7 e2f4 d9d8 d500     ................
 9007ab4:	e7e0 ace3 cffe d8e2 eb00 e6d9 e700 e2dd     ................
 9007ac4:	00d8 ddd8 e7d9 00d9 d9d0 d6e6 d9e6 dcd7     ................
 9007ad4:	e6d9 fbac d6c9 e6d9 d5eb dcd7 e1e8 ddd9     ................
 9007ae4:	e8e7 e6d9 c200 e6d5 d9e6 f0e2 befe d9dd     ................
 9007af4:	d800 dde6 e8e8 00d9 ddbe ddea dde7 e2e3     ................
 9007b04:	eb00 e6dd 00d8 e3ea 00e2 ddcc fae2 e2d5     ................
 9007b14:	d9db f6da e6dc b8e8 d900 e2dd e6d9 d600     ................
 9007b24:	e6d9 d7f6 e8dc dbdd d9e8 fae2 d5c1 e3e2     ................
 9007b34:	ddea b8e2 d800 d9dd d500 e7e0 f400 15e9     ................
 9007b44:	e6d9 00e8 e6d6 e8e9 e0d5 dbfa e0dd ade8     ................
 9007b54:	befb d9dd ee00 d9eb e8dd 00d9 ddbe ddea     ................
 9007b64:	dde7 e2e3 e000 ddd9 d9e8 fee8 ddc7 e8e7     ................
 9007b74:	d5e6 b8e0 d900 e2dd bf00 e4e1 e6e3 f5df     ................
 9007b84:	e1e1 dde0 dbe2 00b8 d9d8 fae6 dde7 dcd7     ................
 9007b94:	ee00 eae9 e6e3 d500 e7e0 c700 e8dd e0db     ................
 9007ba4:	d9dd 00d8 d9d8 fae6 d9cc e3ea e9e0 dde8     ................
 9007bb4:	e2e3 d900 e2dd e2d9 c800 e1d5 e2d9 db00     ................
 9007bc4:	e1d9 d7d5 e8dc dcfa e8d5 fbad e6bf db00     ................
 9007bd4:	e0dd 00e8 d9eb d9db 00e2 d9e7 e2dd e6d9     ................
 9007be4:	d600 e6d9 d7d9 e2dc e2d9 d9d8 fee2 e6bb     ................
 9007bf4:	00e8 e0d5 00e7 d9d6 e3e7 d8e2 e6d9 00e7     ................
 9007c04:	d9db f4da e6dc dde0 dcd7 fbad d9cc e3e4     ................
 9007c14:	e8e6 e6d9 00f0 e2cf 00d8 d9eb 00e6 d9d6     ................
 9007c24:	d9da e0dc dbdd 00e8 ddd8 fed9 e6d9 e8e7     ................
 9007c34:	00d9 ddbe ddea dde7 e2e3 fbac d6c9 e6d9     ................
 9007c44:	d5eb dcd7 e1e8 ddd9 e8e7 e6d9 c200 e6d5     ................
 9007c54:	d9e6 f0e2 c800 e2e9 00b8 d5d8 fee7 e7dd     ................
 9007c64:	00e8 ddd9 d9e2 db00 e8e9 00d9 e6c0 dbd5     ................
 9007c74:	add9 cffb e7e2 e6d9 00d9 e6d5 d9d6 e8dd     ................
 9007c84:	e2d9 bc00 e6d9 ddd9 e7e8 d500 00e2 d9d8     ................
 9007c94:	fee6 f5c6 e9e7 dbe2 d800 d9dd d9e7 00e7     ................
 9007ca4:	f4cc e7e8 e0d9 ade7 c1fa e6d9 d7f6 e8dc     ................
 9007cb4:	e2d9 ee00 dae9 e0e3 d9db e700 e0e3 00e0     ................
 9007cc4:	ddd8 e7d9 e6d9 e3fa dde1 f5e2 d9e7 d900     ................
 9007cd4:	e7e6 d9e8 d000 e6e3 e8e7 e2d5 00d8 e9d5     ................
 9007ce4:	dcd7 d800 e6d9 e7fa f4e8 dfe6 e8e7 00d9     ................
 9007cf4:	e2dd d800 e2d9 cc00 ddd9 d9dc 00e2 d9d8     ................
 9007d04:	fae6 e6c9 d5db dde2 d5e7 dde8 e2e3 e700     ................
 9007d14:	ddd9 ade2 c6fb ddd9 d9d8 00e6 d6d5 e6d9     ................
 9007d24:	dc00 e0f4 00e8 e6d9 e700 d7dd b8dc d900     ................
 9007d34:	d9d6 e7e2 fee3 ddeb 00d9 d9d8 00e6 e2bb     ................
 9007d44:	dcf6 d9e6 00e6 d9d8 00e6 d5bc d8e2 b8d9     ................
 9007d54:	e700 dcd9 fae6 d9d6 d9d8 dfd7 ade8 00ff     ................

09007d64 <str_tv_albus>:
 9007d64:	bfb0 00e7 f4e0 dae9 00e8 ddd9 d9e2 bf00     ................
 9007d74:	dfec e9e0 dde7 aeea d9cd d8e2 e2e9 fedb     ................
 9007d84:	d9d8 00e6 dcce e8d9 aee3 e3ca dde0 d9ee     ................
 9007d94:	f0dd bcfb e6f6 d9db 00e6 dcce e8d9 e7e3     ................
 9007da4:	00b8 d9d8 00e6 d9db f4da e6dc dde0 dcd7     ................
 9007db4:	fed9 e2bb f6da e6dc e6d9 d800 e6d9 cc00     ................
 9007dc4:	ead9 e0e3 e8e9 e3dd e7e2 d9d6 d9eb e9db     ................
 9007dd4:	dbe2 bbfa e0d6 e7e9 eb00 e6e9 d9d8 e200     ................
 9007de4:	dcd5 00d9 d5c5 dfe7 d8d5 fad5 d9db dde7     ................
 9007df4:	dcd7 d9e8 ade8 bffb 00e6 dddb e8e0 d500     ................
 9007e04:	e7e0 db00 dad9 dcf4 e0e6 d7dd e7dc d9e8     ................
 9007e14:	cafe e6d9 f5e7 e0e2 d7dd dfdc ddd9 00e8     ................
 9007e24:	d9d8 00e7 e3c5 e8e2 e2dd e2d9 e7e8 fbad     ................
 9007e34:	e0bb 00e7 dcd9 e1d9 e0d5 dbdd e7d9 c700     ................
 9007e44:	e8dd e0db d9dd 00d8 d9d8 00e6 e3ce fee4     ................
 9007e54:	ddd0 e6d9 dd00 e8e7 db00 f5e6 e815 00d9     ................
 9007e64:	e3d0 e7e6 d7dd e8dc db00 d6d9 e8e3 e2d9     ................
 9007e74:	fbad d9c4 d9d8 00e6 ddc2 ebe2 ddd9 b8e7     ................
 9007e84:	d800 e6d9 ee00 e6e9 bf00 dbe6 d9e6 dadd     ................
 9007e94:	e2e9 fedb ddd8 e2d9 dde0 dcd7 dd00 e8e7     ................
 9007ea4:	00b8 ddeb d8e6 dc00 d7e3 00dc d9d6 e3e0     ................
 9007eb4:	e2dc ade8 c2fb e0d5 d9e8 00e2 ddcd 00d9     ................
 9007ec4:	dde7 dcd7 d800 e2d9 e3e2 dcd7 da00 e6d9     ................
 9007ed4:	00e2 e3ea fee2 d9de d9d8 00e6 e6db e2f6     ................
 9007ee4:	db00 dfd9 d9e0 d8dd e8d9 e2d9 c100 e7d9     ................
 9007ef4:	d5e8 e8e0 ffab cdab                         ........

09007efc <ts_deoxysTiles>:
	...

09007f0c <ts_deoxysMap>:
	...

09007f1c <trainer_backsprite_animations>:
 9007f1c:	7f80 0000 7f78 0000 7f70 0000 7f68 0000     ....x...p...h...
 9007f2c:	7f60 0000 7f58 0000 7f50 0000 7f48 0000     `...X...P...H...
 9007f3c:	7f40 0000                                   @...

09007f40 <trainer_backsprite_animations_igva>:
 9007f40:	7fcc 0000 7f9c 0000                         ........

09007f48 <trainer_backsprite_animations_felix>:
 9007f48:	7fcc 0000 7f9c 0000                         ........

09007f50 <trainer_backsprite_animations_rival>:
 9007f50:	7fcc 0000 7f9c 0000                         ........

09007f58 <trainer_backsprite_animations_old_man>:
 9007f58:	7fd4 0000 7f88 0000                         ........

09007f60 <trainer_backsprite_animations_pokedude>:
 9007f60:	7fd4 0000 7f88 0000                         ........

09007f68 <trainer_backsprite_animations_may>:
 9007f68:	7fcc 0000 7f9c 0000                         ........

09007f70 <trainer_backsprite_animations_brendan>:
 9007f70:	7fcc 0000 7f9c 0000                         ........

09007f78 <trainer_backsprite_animations_hiroine>:
 9007f78:	7fd4 0000 7fb4 0000                         ........

09007f80 <trainer_backsprite_animations_hiro>:
 9007f80:	7fd4 0000 7fb4 0000                         ........

09007f88 <trainer_backsprite_animation_throw_pokedude>:
 9007f88:	0001 0018 0002 0009 0003 0018 0000 0009     ................
 9007f98:	ffff 0000                                   ....

09007f9c <trainer_backsprite_animation_throw_brendan>:
 9007f9c:	0000 0018 0001 0009 0002 0018 0000 0009     ................
 9007fac:	0003 0032 ffff 0000                         ..2.....

09007fb4 <trainer_backsprite_animation_throw_hiro>:
 9007fb4:	0001 0014 0002 0006 0003 0006 0004 0018     ................
 9007fc4:	0000 0001 ffff 0000                         ........

09007fcc <trainer_backsprite_animation_frame_3>:
 9007fcc:	0003 0000 ffff 0000                         ........

09007fd4 <trainer_backsprite_animation_frame_0>:
 9007fd4:	0000 0000 ffff 0000                         ........

09007fdc <trainer_backsprite_templates>:
 9007fdc:	ffff 0000 0000 0000 0000 0000 0000 0000     ................
	...
 9007ff4:	ffff 0000 0000 0000 0000 0000 0000 0000     ................
	...
 900800c:	ffff 0000 0000 0000 0000 0000 0000 0000     ................
	...
 9008024:	ffff 0000 0000 0000 0000 0000 0000 0000     ................
	...
 900803c:	ffff 0000 0000 0000 0000 0000 0000 0000     ................
	...
 9008054:	ffff 0000 0000 0000 0000 0000 0000 0000     ................
	...
 900806c:	ffff 0000 0000 0000 0000 0000 0000 0000     ................
	...
 9008084:	ffff 0000 0000 0000 0000 0000 0000 0000     ................
	...
 900809c:	ffff 0000 0000 0000 0000 0000 0000 0000     ................
	...

090080b4 <gfx_trainer_backsprite_igva>:
 90080b4:	0000 0000 0800 0000 0800 0000 0800 0000     ................
 90080c4:	1000 0000 0800 0000 1800 0000 0800 0000     ................

090080d4 <gfx_trainer_backsprite_felix>:
 90080d4:	0000 0000 0800 0000 0800 0000 0800 0000     ................
 90080e4:	1000 0000 0800 0000 1800 0000 0800 0000     ................

090080f4 <gfx_trainer_backsprite_rival>:
 90080f4:	0000 0000 0800 0000 0800 0000 0800 0000     ................
 9008104:	1000 0000 0800 0000 1800 0000 0800 0000     ................

09008114 <gfx_trainer_backsprite_old_man>:
 9008114:	0000 0000 0800 0000 0800 0000 0800 0000     ................
 9008124:	1000 0000 0800 0000 1800 0000 0800 0000     ................

09008134 <gfx_trainer_backsprite_pokedude>:
 9008134:	0000 0000 0800 0000 0800 0000 0800 0000     ................
 9008144:	1000 0000 0800 0000 1800 0000 0800 0000     ................

09008154 <gfx_trainer_backsprite_may>:
 9008154:	0000 0000 0800 0000 0800 0000 0800 0000     ................
 9008164:	1000 0000 0800 0000 1800 0000 0800 0000     ................

09008174 <gfx_trainer_backsprite_brendan>:
 9008174:	0000 0000 0800 0000 0800 0000 0800 0000     ................
 9008184:	1000 0000 0800 0000 1800 0000 0800 0000     ................

09008194 <gfx_trainer_backsprite_hiroine>:
 9008194:	0000 0000 0800 0000 0800 0000 0800 0000     ................
 90081a4:	1000 0000 0800 0000 1800 0000 0800 0000     ................
 90081b4:	2000 0000 0800 0000                         . ......

090081bc <gfx_trainer_backsprite_hiro>:
 90081bc:	0000 0000 0800 0000 0800 0000 0800 0000     ................
 90081cc:	1000 0000 0800 0000 1800 0000 0800 0000     ................
 90081dc:	2000 0000 0800 0000                         . ......

090081e4 <trainer_backsprite_coordinates>:
 90081e4:	0508 0000 0508 0000 0408 0000 0408 0000     ................
 90081f4:	0408 0000 0408 0000 0408 0000 0408 0000     ................
 9008204:	0408 0000                                   ....

09008208 <trainer_backsprite_palettes>:
	...
 9008214:	0001 0000 0000 0000 0002 0000 0000 0000     ................
 9008224:	0003 0000 0000 0000 0004 0000 0000 0000     ................
 9008234:	0005 0000 0000 0000 0006 0000 0000 0000     ................
 9008244:	0007 0000 0000 0000 0008 0000 0101 0514     ................
 9008254:	0f0a 010c 0c01 3206 3214 020f 0808 0408     .......2.2......
 9008264:	060f 1914 0519 1404 040a 0a32 0c0a 0308     ..........2.....
 9008274:	0a06 0402 0803 0f01 0a0f 070c 0405 0a04     ................
 9008284:	0a08 0a03 040a 0403 0508 0c05 0906 1605     ................
 9008294:	090c 0601 1212 0501 1406 060a 0406 190c     ................
 90082a4:	0819 1909 0912 0819 0603 0607 1901 0601     ................
 90082b4:	0701 0709 320c ab04                         .....2..

090082bc <trainer_pokemon_nickname_test>:
 90082bc:	d9ce e8e7 00ff 0000 0000 ab00               ............

090082c8 <trainerbattle_configuration_two_trainers>:
	...
 90082d0:	0002 0000 0001 0000 06ca 0000 0001 0000     ................
 90082e0:	0004 0000 0001 0000 0008 0000 0002 0000     ................
 90082f0:	000c 0000 0002 0000 06d4 0000 0002 0000     ................
 9008300:	0010 0000 0005 0000 06d8 0000 0005 0000     ................
 9008310:	0014 0000 0005 0000 0018 0000 0002 0000     ................
 9008320:	001c 0000 0006 0000                         ........

09008328 <trainerbattle_configuration_ally>:
	...
 9008330:	0002 0000 0001 0000 06ec 0000 0001 0000     ................
 9008340:	0004 0000 0001 0000 06ee 0000 0000 0000     ................
 9008350:	06ef 0000 0000 0000 0008 0000 0002 0000     ................
 9008360:	000c 0000 0002 0000 0010 0000 0005 0000     ................
 9008370:	0014 0000 0005 0000 0018 0000 0002 0000     ................
 9008380:	001c 0000 0006 0000                         ........

09008388 <trainerbattle_configuration_ally_two_trainers>:
	...
 9008390:	0002 0000 0001 0000 06ca 0000 0001 0000     ................
 90083a0:	06ec 0000 0001 0000 0004 0000 0001 0000     ................
 90083b0:	06ee 0000 0000 0000 06ef 0000 0000 0000     ................
 90083c0:	0008 0000 0002 0000 000c 0000 0002 0000     ................
 90083d0:	06d4 0000 0002 0000 0010 0000 0005 0000     ................
 90083e0:	0014 0000 0005 0000 0018 0000 0002 0000     ................
 90083f0:	001c 0000 0006 0000                         ........

090083f8 <trainerbattle_configuration_single_to_trainerB>:
	...
 9008400:	06ca 0000 0001 0000 0004 0000 0001 0000     ................
 9008410:	06d0 0000 0002 0000 06d4 0000 0002 0000     ................
 9008420:	06d8 0000 0005 0000 06e4 0000 0006 0000     ................
 9008430:	5453 ceae d5e6 e2dd e6d9 00ff 5300 ae54     ST...........ST.
 9008440:	e6ce ddd5 d9e2 ffe6 0000 e3ca dde0 ddee     ................
 9008450:	e8e7 00ff 0000 cc00 ead9 e0e3 e8e9 e3dd     ................
 9008460:	f4e2 ffe6 e6bb e1e3 e0d5 d8d5 ffed 0000     ................
 9008470:	cc00 dde9 d9e2 e1e2 e2d5 d5dd ffd7 e3c0     ................
 9008480:	e7e6 dcd7 e6d9 e2dd 00ff ca00 d5e0 e7e2     ................
 9008490:	dcd7 e6d9 00ff 0000 e9bc e0e8 e6d9 00ff     ................
 90084a0:	0000 0000 bb00 e7e7 ceae d5e6 e2dd e6d9     ................
 90084b0:	00ff d9c2 d9ec 00ff 0000 0000 0000 c600     ................
 90084c0:	d8d5 ffed 0000 0000 0000 0000 d7cd f5dc     ................
 90084d0:	dce2 ddd9 ffe8 0000 cd00 dcd7 f5e2 d9e7     ................
 90084e0:	ffe0 0000 0000 e3ca 1bdf d5e1 dde2 d7d5     ................
 90084f0:	00ff cd00 dcd7 ddeb e1e1 e6d9 00ff 0000     ................
 9008500:	d7cd ebdc e6d5 dbee e6e9 ffe8 c100 e8dd     ................
 9008510:	e6d5 dde6 e8e7 00ff 0000 ddc2 eee8 e3df     ................
 9008520:	dae4 00ff 0000 bd00 e1d5 d9e4 ffe6 0000     ................
 9008530:	0000 0000 f4c5 d9da e1e6 e2d5 d5dd ffd7     ................
 9008540:	ca00 ede7 dcd7 ffe3 0000 0000 0000 d9c1     ................
 9008550:	e8e2 d9e0 d5e1 ffe2 0000 ce00 e4e3 d000     ................
 9008560:	d9dd ffe6 0000 0000 d9c6 e8dd e6d9 e0d5     ................
 9008570:	ffd8 0000 cd00 dcd7 e0e9 dddf d8e2 00ff     ................
 9008580:	0000 d9cd ade2 2d00 c400 e2e9 ffad ca00     .......-........
 9008590:	dfe3 da1b e2d5 00ff 0000 0000 ecbf d9e4     ................
 90085a0:	e8e6 ffd9 0000 0000 ce00 d9d9 d5e2 d9db     ................
 90085b0:	ffe6 0000 0000 dcbd e1d5 ffe4 0000 0000     ................
 90085c0:	0000 bb00 dbe2 d9e0 ffe6 0000 0000 0000     ................
 90085d0:	e6ce d5dd dce8 d9e0 ffe8 0000 be00 d5e6     ................
 90085e0:	dcd7 e2d9 e6e4 dae3 ffdd e3d0 d9db dae0     ................
 90085f0:	e2f4 d9db ffe6 c800 e2dd d5de e9de dbe2     ................
 9008600:	ffd9 0000 f4c5 e4e1 d9da dde6 ffe2 0000     ................
 9008610:	cd00 dcd7 e6dd d8e1 e1d5 ffd9 0000 d7cd     ................
 9008620:	ebdc e1dd d9e1 dde6 ffe2 ca00 d7dd e2df     ................
 9008630:	d7dd d9df ffe6 0000 ebd4 e0dd ffad 0000     ................
 9008640:	0000 0000 c700 e8d5 e3e6 d9e7 00ff 0000     ................
 9008650:	0000 e2cd ebe3 e3d6 e6d5 d9d8 ffe6 5300     ...............S
 9008660:	ae54 d5cd e1e1 d9e0 ffe6 0000 e6c5 e4ed     T...............
 9008670:	dde8 d9df ffe6 0000 5300 ae54 f6d4 dcd7     .........ST.....
 9008680:	d9e8 ffe6 0000 5453 ccae e2d5 d9db ffe6     ......ST........
 9008690:	0000 bd00 d9dc dfda d7e3 ffdc 0000 0000     ................
 90086a0:	ddca d5e6 ffe8 0000 0000 0000 c100 e6f5     ................
 90086b0:	ffd9 0000 0000 0000 0000 f4c5 d9da e7e6     ................
 90086c0:	e1d5 e0e1 e6d9 caff d7dd e2df d7dd d9df     ................
 90086d0:	ffe6 0000 e9c4 dbe2 e7d9 c100 f6e0 dfd7     ................
 90086e0:	bbff e8e0 e7d9 ca00 d5d5 ffe6 0000 d9c1     ................
 90086f0:	d7e7 ebdc e7dd d9e8 ffe6 d100 e0e3 d9df     ................
 9008700:	e6e2 ddd9 d9e8 ffe6 ddd0 e0e3 e8d9 d000     ................
 9008710:	e6e3 ade7 ceff d9d9 d5e2 d9db ffe6 0000     ................
 9008720:	0000 f4c5 d9da e7e6 e1d5 e0e1 e6d9 c1ff     ................
 9008730:	e6f5 ffd9 0000 0000 0000 0000 d5c7 e6e8     ................
 9008740:	e7e3 ffd9 0000 0000 bd00 e1d5 d9e4 ffe6     ................
 9008750:	0000 0000 0000 ddca dfd7 dde2 dfd7 e6d9     ................
 9008760:	00ff ca00 dfe3 e11b e2d5 d5dd ffd7 0000     ................
 9008770:	e8cd d9e6 d9d6 ffe6 0000 0000 d100 e2d5     ................
 9008780:	d9d8 d9e6 ffe6 0000 0000 ddbc d9df ffe6     ................
 9008790:	0000 0000 0000 be00 d9dd ffd6 0000 0000     ................
 90087a0:	0000 0000 d9c7 dcd7 e2d5 dfdd e6d9 00ff     ................
 90087b0:	bb00 dbe2 d9e0 ffe6 0000 0000 0000 d7cd     ................
 90087c0:	ebdc e1dd d9e1 ffe6 0000 c100 d5e0 eee8     ................
 90087d0:	e3df dae4 00ff 0000 e4cd d9dd d9e0 ffe6     ................
 90087e0:	0000 0000 cd00 dcd7 e2f5 d9dc e8dd 00ff     ................
 90087f0:	0000 d7cd ebdc e1dd d9e1 dde6 ffe2 ca00     ................
 9008800:	ede7 dcd7 ffe3 0000 0000 0000 e3cc dfd7     ................
 9008810:	e6d9 00ff 0000 0000 c500 e4d5 e8dd e2f4     ................
 9008820:	00ff 0000 0000 e3be e4e1 d9e8 e6e9 00ff     ................
 9008830:	0000 d000 dbe3 e0d9 f4da dbe2 e6d9 00ff     ................
 9008840:	d7cd ebdc e6d5 dbee e6e9 ffe8 cc00 eadd     ................
 9008850:	e0d5 ffd9 0000 0000 0000 e3c0 e7e6 dcd7     ................
 9008860:	e6d9 00ff 0000 bc00 e7e3 ffe7 0000 0000     ................
 9008870:	0000 0000 e6bb e2d9 e0d5 ddd9 d9e8 ffe6     ................
 9008880:	ce00 d5d9 00e1 ddd0 e0e3 e8d9 00ff e7bb     ................
 9008890:	aee7 e6ce ddd5 d9e2 ffe6 ce00 e4e3 d000     ................
 90088a0:	d9dd ffe6 0000 0000 d9c1 e8e2 d9e0 d5e1     ................
 90088b0:	ffe2 0000 cc00 eadd e0d5 ffd9 0000 0000     ................
 90088c0:	0000 dcbd e1d5 ffe4 0000 0000 0000 bf00     ................
 90088d0:	e3ec eee6 e7dd dde8 ffe2 0000 ebd4 e0dd     ................
 90088e0:	ffad 0000 0000 0000 ca00 dde6 d5e1 d5e4     ................
 90088f0:	e6d5 00ff 0000 e9c4 dbe2 e7d9 c100 f6e0     ................
 9008900:	dfd7 c7ff dcf6 d9e0 e7e2 e4dd d9e4 00ff     ................
 9008910:	d9c1 d7e7 ebdc e7dd d9e8 ffe6 bb00 e8e2     ................
 9008920:	dfdd 00d9 d5d1 dcd7 ffd9 e4cd d9dd d9e0     ................
 9008930:	ffe6 0000 0000 c700 dcf6 d9e0 e1e2 d8f4     ................
 9008940:	e0d9 00ff e0ca e2d5 d7e7 d9dc ffe6 0000     ................
 9008950:	5300 ae54 f6d4 dcd7 d9e8 ffe6 0000 5453     .ST...........ST
 9008960:	ccae e2d5 d9db ffe6 0000 bb00 e3e6 d5e1     ................
 9008970:	d5e0 edd8 00ff 0000 e9cc e2dd e2d9 d5e1     ................
 9008980:	dde2 d7d5 c6ff d8d5 ffed 0000 0000 0000     ................
 9008990:	0000 d5c7 d9e0 dde6 ffe2 0000 0000 ab00     ................

090089a0 <trainer_party_x205_tafelberg_clouds_west_cryptic_3>:
 90089a0:	e000 0035 0038 0000 0000 0000 0000 0000     ..5.8...........
 90089b0:	0000 0028 00c9 01b9 0000 0000 0000 0000     ..(.............
 90089c0:	0000 0000                                   ....

090089c4 <trainer_party_x204_tafelberg_clouds_west_cryptic_2>:
 90089c4:	ce00 0025 0038 0000 0000 0000 0000 0000     ..%.8...........
 90089d4:	0000 0022 00c9 01b9 0000 0000 0000 0000     ..".............
 90089e4:	0000 0000 d000 0027 0038 0000 0000 0000     ......'.8.......
 90089f4:	0000 0000 0000 0022 00c9 01b9 0000 0000     ......".........
	...
 9008a0c:	ca00 0001 0038 0000 0000 0000 0000 0000     ....8...........
 9008a1c:	0000 0022 00c9 01b9 0000 0000 0000 0000     ..".............
 9008a2c:	0000 0000 dc00 0023 0038 0000 0000 0000     ......#.8.......
 9008a3c:	0000 0000 0000 0022 00c9 01b9 0000 0000     ......".........
	...
 9008a54:	cc00 0015 0038 0000 0000 0000 0000 0000     ....8...........
 9008a64:	0000 0022 00c9 01b9 0000 0000 0000 0000     ..".............
 9008a74:	0000 0000                                   ....

09008a78 <trainer_party_x203_tafelberg_clouds_west_cryptic_1>:
 9008a78:	d400 0025 0038 0000 0000 0000 0000 0000     ..%.8...........
 9008a88:	0000 0023 00c9 01b9 0000 0000 0000 0000     ..#.............
 9008a98:	0000 0000 d600 0011 0038 0000 0000 0000     ........8.......
 9008aa8:	0000 0000 0000 0023 00c9 01b9 0000 0000     ......#.........
	...
 9008ac0:	d200 001b 0038 0000 0000 0000 0000 0000     ....8...........
 9008ad0:	0000 0023 00c9 01b9 0000 0000 0000 0000     ..#.............
 9008ae0:	0000 0000 d800 0007 0038 0000 0000 0000     ........8.......
 9008af0:	0000 0000 0000 0023 00c9 01b9 0000 0000     ......#.........
	...

09008b08 <trainer_party_x202_tafelberg_clouds_west_cryptic_0>:
 9008b08:	de00 002d 0038 0000 0000 0000 0000 0000     ..-.8...........
 9008b18:	0000 0025 00c9 01b9 0000 0000 0000 0000     ..%.............
 9008b28:	0000 0000 c800 0011 0038 0000 0000 0000     ........8.......
 9008b38:	0000 0000 0000 0025 00c9 01b9 0000 0000     ......%.........
	...
 9008b50:	e200 0023 0038 0000 0000 0000 0000 0000     ..#.8...........
 9008b60:	0000 0025 00c9 01b9 0000 0000 0000 0000     ..%.............
 9008b70:	0000 0000                                   ....

09008b74 <trainer_party_x201_kuestenberg_clouds_trainer_1>:
	...
 9008b84:	0000 0026 017a 0000 0000 0000 0000 0000     ..&.z...........
 9008b94:	0000 0000                                   ....

09008b98 <trainer_party_x200_kuestenberg_clouds_trainer_0>:
	...
 9008ba8:	0000 0022 000b 0000 0000 0000 0000 0000     ..".............
	...
 9008bcc:	0000 0022 0130 0000 0000 0000 0000 0000     ..".0...........
 9008bdc:	0000 0000                                   ....

09008be0 <trainer_party_x1ff_tafelberg_clouds_ancient_guard_blue>:
 9008be0:	0000 0f00 0540 0000 0000 0000 00fc 0400     ....@...........
 9008bf0:	00fc 0028 013f 00fd 0073 0071 005e 017f     ..(.?...s.q.^...
 9008c00:	0000 0000 0000 0f00 0540 0000 0000 0000     ........@.......
 9008c10:	0004 fc00 00fc 0028 0177 0193 0038 003a     ......(.w...8.:.
 9008c20:	00f0 005e 0000 0000 0000 0f00 0540 0000     ..^.........@...
 9008c30:	0000 0000 00fc 0400 00fc 0028 008b 00c8     ..........(.....
 9008c40:	00fa 005c 00b6 0123 0000 0000 0000 0800     ..\...#.........
 9008c50:	0540 0000 0000 0000 04fc 00fc 0000 0028     @.............(.
 9008c60:	008d 019b 007f 000e 0183 016f 0000 0000     ..........o.....

09008c70 <trainer_party_x1fe_kaskada_clouds_trainer_2>:
	...
 9008c80:	0000 0021 0076 0000 0000 0000 0000 0000     ..!.v...........
	...
 9008ca4:	0000 0022 0078 0000 0000 0000 0000 0000     ..".x...........
	...
 9008cc8:	0000 0021 0048 0000 0000 0000 0000 0000     ..!.H...........
 9008cd8:	0000 0000                                   ....

09008cdc <trainer_party_x1fd_basis_trockentag_cryptic>:
 9008cdc:	0000 0022 0020 0000 0000 0000 0000 0000     ..". ...........
 9008cec:	0000 001b 00c9 0000 0000 0000 0000 0000     ................
 9008cfc:	0000 0000 0000 001c 0020 0000 0000 0000     ........ .......
 9008d0c:	0000 0000 0000 001b 00c9 0000 0000 0000     ................
	...
 9008d24:	0000 0004 0020 0000 0000 0000 0000 0000     .... ...........
 9008d34:	0000 001b 00c9 0000 0000 0000 0000 0000     ................
 9008d44:	0000 0000 0000 0014 0020 0000 0000 0000     ........ .......
 9008d54:	0000 0000 0000 001b 00c9 0000 0000 0000     ................
	...

09008d6c <trainer_party_x1fc_route2_clouds_fisherman_2>:
	...
 9008d7c:	0000 0025 014a 0000 0000 0000 0000 0000     ..%.J...........
	...
 9008da0:	0000 0025 0076 0000 0000 0000 0000 0000     ..%.v...........
 9008db0:	0000 0000                                   ....

09008db4 <trainer_party_x1fb_route2_clouds_cave_trainer_1>:
	...
 9008dc4:	0000 0027 006e 0000 0000 0000 0000 0000     ..'.n...........
 9008dd4:	0000 0000                                   ....

09008dd8 <trainer_party_x1fa_route2_clouds_cave_trainer_0>:
	...
 9008de8:	0000 0025 004b 0000 0000 0000 0000 0000     ..%.K...........
	...
 9008e0c:	0000 0025 013e 0000 0000 0000 0000 0000     ..%.>...........
 9008e1c:	0000 0000                                   ....

09008e20 <trainer_party_x1f9_sonnaufeld_trainer_2>:
	...
 9008e30:	0000 0025 003b 0000 0000 0000 0000 0000     ..%.;...........
	...
 9008e54:	0000 0025 0152 0000 0000 0000 0000 0000     ..%.R...........
	...
 9008e78:	0000 0026 011f 0000 0000 0000 0000 0000     ..&.............
 9008e88:	0000 0000                                   ....

09008e8c <trainer_party_x1f8_sonnaufeld_trainer_1>:
	...
 9008e9c:	0000 0025 007d 0000 0000 0000 0000 0000     ..%.}...........
	...
 9008ec0:	0000 0024 0019 0000 0000 0000 0000 0000     ..$.............
 9008ed0:	0000 0000                                   ....

09008ed4 <trainer_party_x1f7_sonnaufeld_trainer_0>:
	...
 9008ee4:	0000 0024 0181 0194 0000 0000 0000 0000     ..$.............
	...
 9008f08:	0000 0024 0181 0195 0000 0000 0000 0000     ..$.............
	...
 9008f2c:	0000 0024 0181 0196 0000 0000 0000 0000     ..$.............
	...
 9008f50:	0000 0024 0181 0193 0000 0000 0000 0000     ..$.............
 9008f60:	0000 0000                                   ....

09008f64 <trainer_party_x1f6_route_2_clouds_trainer_9>:
	...
 9008f74:	0000 0025 0023 0000 0000 0000 0000 0000     ..%.#...........
	...
 9008f98:	0000 0024 002d 0000 0000 0000 0000 0000     ..$.-...........
	...
 9008fbc:	0000 0024 0046 0000 0000 0000 0000 0000     ..$.F...........
 9008fcc:	0000 0000                                   ....

09008fd0 <trainer_party_x1f5_route_2_clouds_trainer_8>:
	...
 9008fe0:	0000 0025 015c 0000 0000 0000 0000 0000     ..%.\...........
	...
 9009004:	0000 0024 005f 0000 0000 0000 0000 0000     ..$._...........
 9009014:	0000 0000                                   ....

09009018 <trainer_party_x1f4_route_2_clouds_trainer_7>:
	...
 9009028:	0000 0026 0060 0000 0000 0000 0000 0000     ..&.`...........
	...
 900904c:	0000 0026 0040 0000 0000 0000 0000 0000     ..&.@...........
 900905c:	0000 0000                                   ....

09009060 <trainer_party_x1f3_route_2_clouds_trainer_6>:
	...
 9009070:	0000 0026 0143 0000 0000 0000 0000 0000     ..&.C...........
	...
 9009094:	0000 0024 0146 0000 0000 0000 0000 0000     ..$.F...........
	...
 90090b8:	0000 0025 0078 0000 0000 0000 0000 0000     ..%.x...........
 90090c8:	0000 0000                                   ....

090090cc <trainer_party_x1f2_route_2_clouds_trainer_5>:
	...
 90090dc:	0000 0025 0054 0000 0000 0000 0000 0000     ..%.T...........
	...
 9009100:	0000 0025 0131 0000 0000 0000 0000 0000     ..%.1...........
 9009110:	0000 0000                                   ....

09009114 <trainer_party_x1f1_route_4_south_cave_trainer_9>:
	...
 9009124:	0000 002d 001a 0000 0000 0000 0000 0000     ..-.............
	...
 9009148:	0000 002c 008f 0000 0000 0000 0000 0000     ..,.............
	...
 900916c:	0000 002d 00a4 0000 0000 0000 0000 0000     ..-.............
	...
 9009190:	0000 002b 0039 0000 0000 0000 0000 0000     ..+.9...........
 90091a0:	0000 0000                                   ....

090091a4 <trainer_party_x1f0_route_4_south_cave_trainer_8>:
	...
 90091b4:	0000 002a 0065 0000 0000 0000 0000 0000     ..*.e...........
	...
 90091d8:	0000 002a 0052 0000 0000 0000 0000 0000     ..*.R...........
	...
 90091fc:	0000 0029 0030 0000 0000 0000 0000 0000     ..).0...........
 900920c:	0000 0000                                   ....

09009210 <trainer_party_x1ef_route_4_south_cave_trainer_7>:
	...
 9009220:	0000 002c 0189 0000 0000 0000 0000 0000     ..,.............
	...
 9009244:	0000 002b 0040 0000 0000 0000 0000 0000     ..+.@...........
 9009254:	0000 0000                                   ....

09009258 <trainer_party_x1ee_route_4_south_cave_trainer_6>:
	...
 9009268:	0000 0023 00ed 0000 0000 0000 0000 0000     ..#.............
 9009278:	0000 0000                                   ....

0900927c <trainer_party_x1ed_route_4_south_cave_trainer_5>:
	...
 900928c:	0000 0023 0165 0000 0000 0000 0000 0000     ..#.e...........
 900929c:	0000 0000                                   ....

090092a0 <trainer_party_x1ec_route_4_south_cave_trainer_4>:
	...
 90092b0:	0000 0020 0039 0000 0000 0000 0000 0000     .. .9...........
	...
 90092d4:	0000 0020 0164 0000 0000 0000 0000 0000     .. .d...........
 90092e4:	0000 0000                                   ....

090092e8 <trainer_party_x1eb_route_4_south_cave_trainer_3>:
	...
 90092f8:	0000 0021 0043 0000 0000 0000 0000 0000     ..!.C...........
	...
 900931c:	0000 001f 014f 0000 0000 0000 0000 0000     ....O...........
 900932c:	0000 0000                                   ....

09009330 <trainer_party_x1ea_route_2_east_trainer_2>:
	...
 9009340:	0000 0007 0081 0000 0000 0000 0000 0000     ................
	...
 9009364:	0000 0008 005a 0000 0000 0000 0000 0000     ....Z...........
	...
 9009388:	0000 0007 0078 0000 0000 0000 0000 0000     ....x...........
 9009398:	0000 0000                                   ....

0900939c <trainer_party_x1e9_route_2_east_trainer_1>:
	...
 90093ac:	0000 0007 0020 0000 0000 0000 0000 0000     .... ...........
	...
 90093d0:	0000 0008 0019 0000 0000 0000 0000 0000     ................
 90093e0:	0000 0000                                   ....

090093e4 <trainer_party_x1e8_dungeon_forest_veteran>:
 90093e4:	0000 0000 0100 0000 0000 0000 0000 0000     ................
 90093f4:	0000 00fd 0091 00a3 0055 0056 0101 013a     ........U.V...:.
	...
 900940c:	0100 0000 0000 0000 0000 0000 0000 00fd     ................
 900941c:	00f5 0086 009c 015b 0039 003a 0000 0000     ......[.9.:.....
 900942c:	0000 0000 0100 0000 0000 0000 0000 0000     ................
 900943c:	0000 00fd 0198 008d 0151 005e 0055 003a     ........Q.^.U.:.
	...
 9009454:	0100 0000 0000 0000 0000 0000 0000 00fd     ................
 9009464:	008f 00c8 00ae 0026 009c 0059 0000 0000     ......&...Y.....
 9009474:	0000 0000 0100 0000 0000 0000 0000 0000     ................
 9009484:	0000 00fd 0174 0196 0151 0059 016f 0182     ....t...Q.Y.o...
	...
 900949c:	0100 0000 0000 0000 0000 0000 0000 00fd     ................
 90094ac:	003e 008e 019c 000e 017a 0186 0000 0000     >.......z.......

090094bc <trainer_party_x1e7_dungeon_forest_veteran>:
 90094bc:	0000 0000 0100 0000 0000 0000 0000 0000     ................
 90094cc:	0000 00fd 0006 0194 007e 004c 013a 0180     ........~.L.:...
	...
 90094e4:	0100 0000 0000 0000 0000 0000 0000 00fd     ................
 90094f4:	009a 00c8 00eb 004f 00f1 004c 0000 0000     ......O...L.....
 9009504:	0000 0000 0100 0000 0000 0000 0000 0000     ................
 9009514:	0000 00fd 011d 00d1 0185 003a 0180 0169     ..........:...i.
	...
 900952c:	0100 0000 0000 0000 0000 0000 0000 00fd     ................
 900953c:	0095 00a3 015d 00c8 0059 014c 0000 0000     ....]...Y.L.....
 900954c:	0000 0000 0100 0000 0000 0000 0000 0000     ................
 900955c:	0000 00fd 0190 00ba 0099 0135 0178 0059     ..........5.x.Y.
 900956c:	0000 0000                                   ....

09009570 <trainer_party_x1e6_dungeon_forest_veteran>:
 9009570:	0000 0000 0100 0000 0000 0000 0000 0000     ................
 9009580:	0000 00fd 00c4 00c8 015b 0119 005e 00e2     ........[...^...
	...
 9009598:	0100 0000 0000 0000 0000 0000 0000 00fd     ................
 90095a8:	0087 0193 0057 00f7 0061 00e2 0000 0000     ....W...a.......
 90095b8:	0000 0000 0100 0000 0000 0000 0000 0000     ................
 90095c8:	0000 00fd 0086 008e 0039 0097 003a 00e2     ........9...:...
	...
 90095e0:	0100 0000 0000 0000 0000 0000 0000 00fd     ................
 90095f0:	00a3 0195 0068 003b 00e2 00a4 0000 0000     ....h.;.........
 9009600:	0000 0000 0100 0000 0000 0000 0000 0000     ................
 9009610:	0000 00fd 002f 00fd 0073 0071 018d 00e2     ..../...s.q.....
 9009620:	0000 0000                                   ....

09009624 <trainer_party_x1e5_dungeon_forest_veteran>:
 9009624:	0000 0000 0100 0000 0000 0000 0000 0000     ................
 9009634:	0000 00fd 00c0 009e 0181 017e 0036 0118     ..........~.6...
	...
 900964c:	0100 0000 0000 0000 0000 0000 0000 00fd     ................
 900965c:	00b6 0194 004c 018d 00bc 004f 0000 0000     ....L.....O.....
 900966c:	0000 0000 0100 0000 0000 0000 0000 0000     ................
 900967c:	0000 00fd 00e6 0193 0180 0039 003a 00f0     ..........9.:...
	...
 9009694:	0100 0000 0000 0000 0000 0000 0000 00fd     ................
 90096a4:	001c 0196 0068 0059 009d 0118 0000 0000     ....h.Y.........
 90096b4:	0000 0000 0100 0000 0000 0000 0000 0000     ................
 90096c4:	0000 00fd 0129 00c8 0039 003a 00ca 0049     ....)...9.:...I.
 90096d4:	0000 0000                                   ....

090096d8 <trainer_party_x1e4_dungeon_forest_veteran>:
 90096d8:	0000 0000 0100 0000 0000 0000 0000 0000     ................
 90096e8:	0000 00fd 0067 00fd 0071 0073 00ca 0049     ....g...q.s...I.
	...
 9009700:	0100 0000 0000 0000 0000 0000 0000 00fd     ................
 9009710:	0147 00ba 016e 007f 0114 00f2 0000 0000     G...n...........
 9009720:	0000 0000 0100 0000 0000 0000 0000 0000     ................
 9009730:	0000 00fd 0033 00c4 0059 009d 014c 00e4     ....3...Y...L...
	...
 9009748:	0100 0000 0000 0000 0000 0000 0000 00fd     ................
 9009758:	0154 009f 0035 017f 00f6 0099 0000 0000     T...5...........
 9009768:	0000 0000 0100 0000 0000 0000 0000 0000     ................
 9009778:	0000 00fd 01ba 00c8 016f 0059 00ae 0180     ........o.Y.....
 9009788:	0000 0000                                   ....

0900978c <trainer_party_x1df_route_7_north_cook>:
 900978c:	0000 0000 0100 0000 0000 0000 0000 0000     ................
 900979c:	0000 0029 00d2 0178 00da 0009 0007 0008     ..)...x.........
	...
 90097b4:	0100 0000 0000 0000 0000 0000 0000 0029     ..............).
 90097c4:	0059 017b 0166 0118 0099 005c 0000 0000     Y.{.f.....\.....
 90097d4:	0000 0000 0100 0000 0000 0000 0000 0000     ................
 90097e4:	0000 0029 0016 0184 004b 00d0 0049 014c     ..).....K...I.L.
	...
 90097fc:	0100 0000 0000 0000 0000 0000 0000 0029     ..............).
 900980c:	00b9 017d 016f 0099 0118 0068 0000 0000     ..}.o.....h.....

0900981c <trainer_party_x1de_route_7_north_couple>:
	...
 900982c:	0000 0027 0021 0000 0000 0000 0000 0000     ..'.!...........
	...
 9009850:	0000 0027 001e 0000 0000 0000 0000 0000     ..'.............
 9009860:	0000 0000                                   ....

09009864 <trainer_party_x1dd_power_plant_inside_trainer_2>:
	...
 9009874:	0000 0024 0152 0000 0000 0000 0000 0000     ..$.R...........
	...
 9009898:	0000 0024 001a 0000 0000 0000 0000 0000     ..$.............
 90098a8:	0000 0000                                   ....

090098ac <trainer_party_x1dc_power_plant_inside_trainer_1>:
	...
 90098bc:	0000 0022 0051 0000 0000 0000 0000 0000     ..".Q...........
	...
 90098e0:	0000 0022 0151 0000 0000 0000 0000 0000     ..".Q...........
	...
 9009904:	0000 0023 0052 0000 0000 0000 0000 0000     ..#.R...........
 9009914:	0000 0000                                   ....

09009918 <trainer_party_x1db_power_plant_inside_trainer_0>:
	...
 9009928:	0000 0022 0051 0000 0000 0000 0000 0000     ..".Q...........
	...
 900994c:	0000 0023 0065 0000 0000 0000 0000 0000     ..#.e...........
	...
 9009970:	0000 0023 0040 0000 0000 0000 0000 0000     ..#.@...........
	...
 9009994:	0000 0024 007d 0000 0000 0000 0000 0000     ..$.}...........
 90099a4:	0000 0000                                   ....

090099a8 <trainer_party_x1da_route_5_icarus_party>:
 90099a8:	0000 0300 0540 0000 0000 0000 fc04 fc00     ....@...........
 90099b8:	0000 0026 000b 00d7 00ac 014c 00d3 0062     ..&.......L...b.
 90099c8:	0000 0000 0000 0300 0540 0000 0000 0000     ........@.......
 90099d8:	fc04 fc00 0000 0027 0011 00c4 014c 0068     ......'.....L.h.
 90099e8:	0062 00d3 0000 0000 0000 0300 0540 0000     b...........@...
 90099f8:	0000 0000 fc04 fc00 0000 0028 018b 0188     ..........(.....
 9009a08:	0151 0034 0177 001d 0000 0000 0100 0f00     Q.4.w...........
 9009a18:	0544 0000 0000 0000 0004 fc00 00fc 0023     D.............#.
 9009a28:	0166 008e 0011 001f 00d3 0055 0000 0000     f.........U.....

09009a38 <trainer_party_x1d9_route_4_clouds_trainer_5>:
	...
 9009a48:	0000 0022 004b 0000 0000 0000 0000 0000     ..".K...........
	...
 9009a6c:	0000 0022 0140 0000 0000 0000 0000 0000     ..".@...........
	...
 9009a90:	0000 0021 0043 0000 0000 0000 0000 0000     ..!.C...........
 9009aa0:	0000 0000                                   ....

09009aa4 <trainer_party_x1d8_route_4_clouds_trainer_4>:
	...
 9009ab4:	0000 0022 0043 0000 0000 0000 0000 0000     ..".C...........
	...
 9009ad8:	0000 0023 004a 0000 0000 0000 0000 0000     ..#.J...........
 9009ae8:	0000 0000                                   ....

09009aec <trainer_party_x1d7_route_4_clouds_trainer_3>:
	...
 9009afc:	0000 0024 007d 0000 0000 0000 0000 0000     ..$.}...........
 9009b0c:	0000 0000                                   ....

09009b10 <trainer_party_x1d6_route_4_clouds_trainer_2>:
	...
 9009b20:	0000 0022 002c 0000 0000 0000 0000 0000     ..".,...........
	...
 9009b44:	0000 0023 0046 0000 0000 0000 0000 0000     ..#.F...........
 9009b54:	0000 0000                                   ....

09009b58 <trainer_party_x1d5_anemonia_clouds_trainer_0>:
	...
 9009b68:	0000 0022 013e 0000 0000 0000 0000 0000     ..".>...........
	...
 9009b8c:	0000 0023 004a 0000 0000 0000 0000 0000     ..#.J...........
	...
 9009bb0:	0000 0023 008a 0000 0000 0000 0000 0000     ..#.............
 9009bc0:	0000 0000                                   ....

09009bc4 <trainer_party_x1d4_route_5_trainer_9>:
	...
 9009bd4:	0000 0025 0082 0000 0000 0000 0000 0000     ..%.............
 9009be4:	0000 0000                                   ....

09009be8 <trainer_party_x1d3_route_5_trainer_8>:
	...
 9009bf8:	0000 0022 00b7 0000 0000 0000 0000 0000     ..".............
	...
 9009c1c:	0000 0023 004f 0000 0000 0000 0000 0000     ..#.O...........
	...
 9009c40:	0000 0023 0146 0000 0000 0000 0000 0000     ..#.F...........
	...
 9009c64:	0000 0022 0081 0000 0000 0000 0000 0000     ..".............
 9009c74:	0000 0000                                   ....

09009c78 <trainer_party_x1d2_route_5_trainer_7>:
	...
 9009c88:	0000 0024 009f 0000 0000 0000 0000 0000     ..$.............
	...
 9009cac:	0000 0024 0062 0000 0000 0000 0000 0000     ..$.b...........
 9009cbc:	0000 0000                                   ....

09009cc0 <trainer_party_x1d1_route_5_trainer_6>:
	...
 9009cd0:	0000 0025 018a 0000 0000 0000 0000 0000     ..%.............
 9009ce0:	0000 0000                                   ....

09009ce4 <trainer_party_x1d0_bluetenbach_gym_trainer_7>:
	...
 9009cf4:	0000 0025 006b 0000 0000 0000 0000 0000     ..%.k...........
 9009d04:	0000 0000                                   ....

09009d08 <trainer_party_x1cf_bluetenbach_gym_trainer_6>:
	...
 9009d18:	0000 0024 0039 0000 0000 0000 0000 0000     ..$.9...........
	...
 9009d3c:	0000 0023 00ec 0000 0000 0000 0000 0000     ..#.............
 9009d4c:	0000 0000                                   ....

09009d50 <trainer_party_x1ce_bluetenbach_gym_trainer_5>:
	...
 9009d60:	0000 0025 006a 0000 0000 0000 0000 0000     ..%.j...........
 9009d70:	0000 0000                                   ....

09009d74 <trainer_party_x1cd_bluetenbach_gym_trainer_4>:
	...
 9009d84:	0000 0022 0043 0000 0000 0000 0000 0000     ..".C...........
	...
 9009da8:	0000 0023 014f 0000 0000 0000 0000 0000     ..#.O...........
	...
 9009dcc:	0000 0022 0164 0000 0000 0000 0000 0000     ..".d...........
 9009ddc:	0000 0000                                   ....

09009de0 <trainer_party_x1cc_bluetenbach_gym_manus_hard>:
 9009de0:	0000 0d00 0d40 1f1f 1f1f 1f1f fc04 fc00     ....@...........
 9009df0:	0000 0028 007c 019e 0178 015c 017d 0174     ..(.|...x.\.}.t.
 9009e00:	0000 0000 0000 0300 0d40 1f1f 1f1f 1f1f     ........@.......
 9009e10:	fcfc 0400 0000 002a 0044 01a2 00df 016f     ......*.D.....o.
 9009e20:	0059 0009 0000 0000 0001 0300 0d41 1f1f     Y...........A...
 9009e30:	1f1f 1f1f fc04 fc00 0000 0029 00d6 01a1     ..........).....
 9009e40:	00e0 0174 016f 00b6 0000 0000 0000 0300     ..t.o...........
 9009e50:	0d40 1f1f 1f1f 1f1f fcfc 0400 0000 0028     @.............(.
 9009e60:	0039 00b3 0108 00d5 017d 0068 0000 0000     9.......}.h.....
 9009e70:	0000 0d00 0d40 1f1f 1f1f 1f1f fc04 fc00     ....@...........
 9009e80:	0000 0029 00a4 00aa 014c 0118 0009 00cb     ..).....L.......
 9009e90:	0000 0000 0000 0300 0d40 1f1f 1f1f 1f1f     ........@.......
 9009ea0:	fc04 fc00 0000 002b 0150 009e 0174 00f2     ......+.P...t...
 9009eb0:	0059 0168 0000 0000                         Y.h.....

09009eb8 <trainer_party_x1cb_bluetenbach_gym_manus_easy>:
 9009eb8:	0000 0d00 0d40 0b0b 0b0b 0b0b fc04 fc00     ....@...........
 9009ec8:	0000 0023 007c 019e 0178 015c 017d 0174     ..#.|...x.\.}.t.
 9009ed8:	0000 0000 0001 0300 0d41 0b0b 0b0b 0b0b     ........A.......
 9009ee8:	fc04 fc00 0000 0023 00d6 01a1 00e0 0118     ......#.........
 9009ef8:	009d 00b6 0000 0000 0000 0300 0d40 0b0b     ............@...
 9009f08:	0b0b 0b0b fcfc 0400 0000 0022 0039 00b3     ..........".9...
 9009f18:	0108 00d5 017d 0068 0000 0000 0000 0300     ....}.h.........
 9009f28:	0d40 0b0b 0b0b 0b0b fc04 fc00 0000 0024     @.............$.
 9009f38:	0150 009e 0118 009d 0059 0168 0000 0000     P.......Y.h.....

09009f48 <trainer_party_x1ca_route_4_cave_south_painter>:
 9009f48:	0000 0f00 0540 0000 0000 0000 00fc 0400     ....@...........
 9009f58:	00fc 002f 00c4 00fd 015b 005e 0073 0071     ../.....[.^.s.q.
 9009f68:	0000 0000 0000 0d00 0540 0000 0000 0000     ........@.......
 9009f78:	fc04 fc00 0000 002f 00e0 00d1 00be 003a     ....../.......:.
 9009f88:	0144 014b 0000 0000 0000 0a00 0540 0000     D.K.........@...
 9009f98:	0000 0000 0004 fc00 00fc 002f 0134 00d9     ........../.4...
 9009fa8:	0092 017c 0118 009d 0000 0000 0000 0300     ..|.............
 9009fb8:	0540 0000 0000 0000 fc04 fc00 0000 002f     @............./.
 9009fc8:	00c1 0095 017b 0007 0008 00fc 0000 0000     ....{...........

09009fd8 <trainer_party_x1c9_route_4_trainer_7>:
	...
 9009fe8:	0000 0022 0071 0000 0000 0000 0000 0000     ..".q...........
	...
 900a00c:	0000 0021 00b0 0000 0000 0000 0000 0000     ..!.............
	...
 900a030:	0000 0022 0066 0000 0000 0000 0000 0000     ..".f...........
 900a040:	0000 0000                                   ....

0900a044 <trainer_party_x1c8_route_4_trainer_6>:
	...
 900a054:	0000 001f 004d 0000 0000 0000 0000 0000     ....M...........
	...
 900a078:	0000 0020 0008 0000 0000 0000 0000 0000     .. .............
	...
 900a09c:	0000 001f 0043 0000 0000 0000 0000 0000     ....C...........
	...
 900a0c0:	0000 001f 011f 0000 0000 0000 0000 0000     ................
 900a0d0:	0000 0000                                   ....

0900a0d4 <trainer_party_x1c7_route_4_trainer_5>:
	...
 900a0e4:	0000 001f 006a 0000 0000 0000 0000 0000     ....j...........
	...
 900a108:	0000 0020 0164 0000 0000 0000 0000 0000     .. .d...........
	...
 900a12c:	0000 001f 0043 0000 0000 0000 0000 0000     ....C...........
 900a13c:	0000 0000                                   ....

0900a140 <trainer_party_x1c6_route_4_trainer_4>:
	...
 900a150:	0000 0021 0028 0000 0000 0000 0000 0000     ..!.(...........
	...
 900a174:	0000 0021 013c 0000 0000 0000 0000 0000     ..!.<...........
 900a184:	0000 0000                                   ....

0900a188 <trainer_party_x1c5_route_4_trainer_3>:
	...
 900a198:	0000 001f 0126 0000 0000 0000 0000 0000     ....&...........
	...
 900a1bc:	0000 001f 012e 0000 0000 0000 0000 0000     ................
	...
 900a1e0:	0000 001f 0137 0000 0000 0000 0000 0000     ....7...........
 900a1f0:	0000 0000                                   ....

0900a1f4 <trainer_party_x1c4_route_4_trainer_2>:
	...
 900a204:	0000 0020 0052 0000 0000 0000 0000 0000     .. .R...........
	...
 900a228:	0000 001f 0019 0000 0000 0000 0000 0000     ................
 900a238:	0000 0000                                   ....

0900a23c <trainer_party_x1c3_route_4_trainer_1>:
	...
 900a24c:	0000 0020 000b 0000 0000 0000 0000 0000     .. .............
	...
 900a270:	0000 001f 0136 0000 0000 0000 0000 0000     ....6...........
	...
 900a294:	0000 0020 0130 0000 0000 0000 0000 0000     .. .0...........
 900a2a4:	0000 0000                                   ....

0900a2a8 <trainer_party_x1c2_route_4_trainer_0>:
	...
 900a2b8:	0000 0020 0164 0000 0000 0000 0000 0000     .. .d...........
	...
 900a2dc:	0000 001f 0039 0000 0000 0000 0000 0000     ....9...........
 900a2ec:	0000 0000                                   ....

0900a2f0 <trainer_party_x1c1_route_4_north_cave_trainer_0>:
	...
 900a300:	0000 001f 0043 0000 0000 0000 0000 0000     ....C...........
	...
 900a324:	0000 001f 0039 0000 0000 0000 0000 0000     ....9...........
	...
 900a348:	0000 001e 0164 0000 0000 0000 0000 0000     ....d...........
 900a358:	0000 0000                                   ....

0900a35c <trainer_party_x1c0_tafelberg_trainer_5>:
	...
 900a36c:	0000 0022 001c 0000 0000 0000 0000 0000     ..".............
	...
 900a390:	0000 0021 0159 0000 0000 0000 0000 0000     ..!.Y...........
 900a3a0:	0000 0000                                   ....

0900a3a4 <trainer_party_x1bf_tafelberg_trainer_4>:
	...
 900a3b4:	0000 0026 0008 0000 0000 0000 0000 0000     ..&.............
	...
 900a3d8:	0000 0025 0075 0000 0000 0000 0000 0000     ..%.u...........
 900a3e8:	0000 0000                                   ....

0900a3ec <trainer_party_x1be_tafelberg_trainer_3>:
	...
 900a3fc:	0000 0020 012b 0000 0000 0000 0000 0000     .. .+...........
	...
 900a420:	0000 0020 0128 0000 0000 0000 0000 0000     .. .(...........
	...
 900a444:	0000 001f 003a 0000 0000 0000 0000 0000     ....:...........
	...
 900a468:	0000 001f 0025 0000 0000 0000 0000 0000     ....%...........
 900a478:	0000 0000                                   ....

0900a47c <trainer_party_x1bd_tafelberg_trainer_2>:
	...
 900a48c:	0000 0020 00b7 0000 0000 0000 0000 0000     .. .............
	...
 900a4b0:	0000 001f 0027 0000 0000 0000 0000 0000     ....'...........
	...
 900a4d4:	0000 001f 0189 0000 0000 0000 0000 0000     ................
 900a4e4:	0000 0000                                   ....

0900a4e8 <trainer_party_x1bc_tafelberg_trainer_1>:
	...
 900a4f8:	0000 0021 00c3 0000 0000 0000 0000 0000     ..!.............
 900a508:	0000 0000                                   ....

0900a50c <trainer_party_x1bb_tafelberg_trainer_0>:
	...
 900a51c:	0000 001e 0137 0000 0000 0000 0000 0000     ....7...........
	...
 900a540:	0000 001d 0126 0000 0000 0000 0000 0000     ....&...........
	...
 900a564:	0000 001f 0030 0000 0000 0000 0000 0000     ....0...........
 900a574:	0000 0000                                   ....

0900a578 <trainer_party_x1ba_tafelberg_revolutionary_3>:
	...
 900a588:	0000 0020 013c 0000 0000 0000 0000 0000     .. .<...........
	...
 900a5ac:	0000 001f 00c1 0000 0000 0000 0000 0000     ................
 900a5bc:	0000 0000                                   ....

0900a5c0 <trainer_party_x1b9_tafelberg_lapis_cave_trainer_4>:
	...
 900a5d0:	0000 0020 00e0 0000 0000 0000 0000 0000     .. .............
 900a5e0:	0000 0000                                   ....

0900a5e4 <trainer_party_x1b8_tafelberg_lapis_cave_trainer_3>:
	...
 900a5f4:	0000 001d 0164 0000 0000 0000 0000 0000     ....d...........
	...
 900a618:	0000 001c 00b1 0000 0000 0000 0000 0000     ................
	...
 900a63c:	0000 001d 0189 0000 0000 0000 0000 0000     ................
 900a64c:	0000 0000                                   ....

0900a650 <trainer_party_x1b7_tafelberg_lapis_cave_trainer_2>:
	...
 900a660:	0000 001e 011f 0000 0000 0000 0000 0000     ................
	...
 900a684:	0000 001c 0152 0000 0000 0000 0000 0000     ....R...........
 900a694:	0000 0000                                   ....

0900a698 <trainer_party_x1b6_tafelberg_lapis_cave_trainer_1>:
	...
 900a6a8:	0000 001d 0121 0000 0000 0000 0000 0000     ....!...........
	...
 900a6cc:	0000 001c 0128 0000 0000 0000 0000 0000     ....(...........
	...
 900a6f0:	0000 001c 0011 0000 0000 0000 0000 0000     ................
 900a700:	0000 0000                                   ....

0900a704 <trainer_party_x6b>:
	...
 900a714:	0000 001c 0130 0000 0000 0000 0000 0000     ....0...........
	...
 900a738:	0000 001c 0166 0000 0000 0000 0000 0000     ....f...........
 900a748:	0000 0000                                   ....

0900a74c <trainer_party_x1b5_felsige_oednis_east_caves_trainer_3>:
	...
 900a75c:	0000 001d 001c 0000 0000 0000 0000 0000     ................
	...
 900a780:	0000 001d 0021 0000 0000 0000 0000 0000     ....!...........
	...
 900a7a4:	0000 001c 003a 0000 0000 0000 0000 0000     ....:...........
 900a7b4:	0000 0000                                   ....

0900a7b8 <trainer_party_x1b4_felsige_oednis_east_caves_trainer_2>:
	...
 900a7c8:	0000 001f 00d9 0000 0000 0000 0000 0000     ................
 900a7d8:	0000 0000                                   ....

0900a7dc <trainer_party_x1b3_felsige_oednis_east_caves_trainer_1>:
	...
 900a7ec:	0000 001b 005f 0000 0000 0000 0000 0000     ...._...........
	...
 900a810:	0000 001c 004b 0000 0000 0000 0000 0000     ....K...........
	...
 900a834:	0000 001c 0042 0000 0000 0000 0000 0000     ....B...........
 900a844:	0000 0000                                   ....

0900a848 <trainer_party_x1b2_felsige_oednis_east_caves_trainer_0>:
	...
 900a858:	0000 001d 0164 0000 0000 0000 0000 0000     ....d...........
	...
 900a87c:	0000 001c 00ec 0000 0000 0000 0000 0000     ................
 900a88c:	0000 0000                                   ....

0900a890 <trainer_party_x1b1_tafelberg_lower_trainer_6>:
	...
 900a8a0:	0000 0033 015c 0000 0000 0000 0000 0000     ..3.\...........
	...
 900a8c4:	0000 0034 015d 0000 0000 0000 0000 0000     ..4.]...........
	...
 900a8e8:	0000 0031 008a 0000 0000 0000 0000 0000     ..1.............
	...
 900a90c:	0000 0032 008c 0000 0000 0000 0000 0000     ..2.............
 900a91c:	0000 0000                                   ....

0900a920 <trainer_party_x1b0_tafelberg_lower_trainer_5>:
	...
 900a930:	0000 001b 0025 0000 0000 0000 0000 0000     ....%...........
	...
 900a954:	0000 001a 00d1 0000 0000 0000 0000 0000     ................
	...
 900a978:	0000 001a 001e 0000 0000 0000 0000 0000     ................
 900a988:	0000 0000                                   ....

0900a98c <trainer_party_x1af_tafelberg_lower_trainer_4>:
	...
 900a99c:	0000 0020 008e 0000 0000 0000 0000 0000     .. .............
 900a9ac:	0000 0000                                   ....

0900a9b0 <trainer_party_x1ae_tafelberg_lower_trainer_3>:
	...
 900a9c0:	0000 001d 007e 0000 0000 0000 0000 0000     ....~...........
	...
 900a9e4:	0000 001e 007d 0000 0000 0000 0000 0000     ....}...........
 900a9f4:	0000 0000                                   ....

0900a9f8 <trainer_party_x1ad_tafelberg_lower_trainer_2>:
	...
 900aa08:	0000 0019 0054 0000 0000 0000 0000 0000     ....T...........
	...
 900aa2c:	0000 001a 0130 0000 0000 0000 0000 0000     ....0...........
	...
 900aa50:	0000 0019 0011 0000 0000 0000 0000 0000     ................
	...
 900aa74:	0000 0019 00b1 0000 0000 0000 0000 0000     ................
 900aa84:	0000 0000                                   ....

0900aa88 <trainer_party_x1ac_tafelberg_lower_trainer_1>:
	...
 900aa98:	0000 001d 006f 0000 0000 0000 0000 0000     ....o...........
	...
 900aabc:	0000 001d 0033 0000 0000 0000 0000 0000     ....3...........
 900aacc:	0000 0000                                   ....

0900aad0 <trainer_party_x1ab_tafelberg_lower_trainer_0>:
	...
 900aae0:	0000 001b 00a7 0000 0000 0000 0000 0000     ................
	...
 900ab04:	0000 001a 0030 0000 0000 0000 0000 0000     ....0...........
	...
 900ab28:	0000 001e 00a8 0000 0000 0000 0000 0000     ................
 900ab38:	0000 0000                                   ....

0900ab3c <trainer_party_x1aa_felsige_oednis_cave_trainer_4>:
	...
 900ab4c:	0000 0020 016a 003b 0000 0000 0000 0000     .. .j.;.........
 900ab5c:	0000 0000                                   ....

0900ab60 <trainer_party_x1a9_felsige_oednis_cave_trainer_3>:
	...
 900ab70:	0000 001b 0019 0000 0000 0000 0000 0000     ................
	...
 900ab94:	0000 0019 007d 0000 0000 0000 0000 0000     ....}...........
	...
 900abb8:	0000 001a 0151 0000 0000 0000 0000 0000     ....Q...........
 900abc8:	0000 0000                                   ....

0900abcc <trainer_party_x1a8_felsige_oednis_cave_trainer_2>:
	...
 900abdc:	0000 001b 006d 0000 0000 0000 0000 0000     ....m...........
	...
 900ac00:	0000 001c 016f 0000 0000 0000 0000 0000     ....o...........
 900ac10:	0000 0000                                   ....

0900ac14 <trainer_party_x1a7_felsige_oednis_cave_trainer_1>:
	...
 900ac24:	0000 0019 001b 0000 0000 0000 0000 0000     ................
	...
 900ac48:	0000 001c 005f 0000 0000 0000 0000 0000     ...._...........
	...
 900ac6c:	0000 001a 0043 0000 0000 0000 0000 0000     ....C...........
 900ac7c:	0000 0000                                   ....

0900ac80 <trainer_party_x1a6_felsige_oednis_cave_trainer_0>:
	...
 900ac90:	0000 001b 001e 0000 0000 0000 0000 0000     ................
	...
 900acb4:	0000 001b 0021 0000 0000 0000 0000 0000     ....!...........
	...
 900acd8:	0000 001a 0025 0000 0000 0000 0000 0000     ....%...........
	...
 900acfc:	0000 001a 003a 0000 0000 0000 0000 0000     ....:...........
 900ad0c:	0000 0000                                   ....

0900ad10 <trainer_party_x1a3_felsige_oednis_koch>:
	...
 900ad20:	0000 0014 0099 0000 0000 0000 0000 0000     ................
	...
 900ad44:	0000 0013 0175 0000 0000 0000 0000 0000     ....u...........
	...
 900ad68:	0000 0015 0053 0000 0000 0000 0000 0000     ....S...........
	...
 900ad8c:	0000 0012 00f1 0000 0000 0000 0000 0000     ................
 900ad9c:	0000 0000                                   ....

0900ada0 <trainer_party_x1a5_rosalie_difficulty_hard>:
 900ada0:	0000 0f00 0d40 1515 1515 1515 00fc 0400     ....@...........
 900adb0:	00fc 001a 0002 008e 0049 00ca 005c 00bc     ........I...\...
 900adc0:	0000 0000 0000 0300 0d40 1515 1515 1515     ........@.......
 900add0:	fc04 fc00 0000 001b 0133 0000 00b7 0093     ........3.......
 900ade0:	001d 017e 0000 0000 0000 0800 0d40 1515     ..~.........@...
 900adf0:	1515 1515 04fc 00fc 0000 0019 0034 008e     ............4...
 900ae00:	0049 0113 00ca 00b6 0000 0000 0000 0f00     I...............
 900ae10:	0d40 1515 1515 1515 00fc 0400 00fc 001d     @...............
 900ae20:	0129 00b3 0068 0049 0160 00ca 0000 0000     )...h.I.`.......
 900ae30:	0000 0e00 0d40 1515 1515 1515 fc00 0400     ....@...........
 900ae40:	00fc 001a 012c 00ce 0169 0099 00ca 00fc     ....,...i.......
 900ae50:	0000 0000 0000 0f00 0d40 1515 1515 1515     ........@.......
 900ae60:	00fc 0400 00fc 001a 0018 00c8 00f7 0105     ................
 900ae70:	00ca 00ae 0000 0000                         ........

0900ae78 <trainer_party_x1a4_rosalie_difficulty_normal>:
 900ae78:	0000 0f00 0d40 0b0b 0b0b 0b0b 00fc 0400     ....@...........
 900ae88:	00fc 001a 0002 008e 0049 00ca 005c 00bc     ........I...\...
 900ae98:	0000 0000 0000 0300 0d40 0b0b 0b0b 0b0b     ........@.......
 900aea8:	fc04 fc00 0000 001b 0133 0000 00b7 0093     ........3.......
 900aeb8:	001d 017e 0000 0000 0000 0800 0d40 0b0b     ..~.........@...
 900aec8:	0b0b 0b0b 04fc 00fc 0000 0019 0034 008e     ............4...
 900aed8:	0049 0113 00ca 00b6 0000 0000 0000 0f00     I...............
 900aee8:	0d40 0b0b 0b0b 0b0b 00fc 0400 00fc 001d     @...............
 900aef8:	0129 00b3 0068 0049 0160 00ca 0000 0000     )...h.I.`.......
 900af08:	0000 0e00 0d40 0b0b 0b0b 0b0b fc00 0400     ....@...........
 900af18:	00fc 001a 012c 00ce 0169 0099 00ca 00fc     ....,...i.......
 900af28:	0000 0000                                   ....

0900af2c <trainer_party_xb7>:
 900af2c:	0000 0f00 0d40 0b0b 0b0b 0b0b 00fc 0400     ....@...........
 900af3c:	00fc 0018 0002 008e 0049 00ca 005c 00bc     ........I...\...
 900af4c:	0000 0000 0000 0300 0d40 0b0b 0b0b 0b0b     ........@.......
 900af5c:	fc04 fc00 0000 0019 0133 0000 00b7 0093     ........3.......
 900af6c:	001d 017e 0000 0000 0000 0800 0d40 0b0b     ..~.........@...
 900af7c:	0b0b 0b0b 04fc 00fc 0000 0017 0034 008e     ............4...
 900af8c:	0049 0113 00ca 00b6 0000 0000 0000 0f00     I...............
 900af9c:	0d40 0b0b 0b0b 0b0b 00fc 0400 00fc 001a     @...............
 900afac:	0129 00b3 0068 0049 0160 00ca 0000 0000     )...h.I.`.......

0900afbc <trainer_party_x1a2_lester_difficulty_hard>:
 900afbc:	0000 0300 0d40 1515 1515 1515 fcfc 0400     ....@...........
 900afcc:	0000 0011 0140 00c8 0056 00c9 00d1 013d     ....@...V.....=.
 900afdc:	0000 0000 0000 0300 0d40 1515 1515 1515     ........@.......
 900afec:	fc04 fc00 0000 0012 005f 008b 013d 0171     ........_...=.q.
 900affc:	0014 0000 0000 0000 0000 0300 0d40 1515     ............@...
 900b00c:	1515 1515 fcfc 0400 0000 0011 004b 00a8     ............K...
 900b01c:	00de 0171 013d 0078 0000 0000 0000 0300     ..q.=.x.........
 900b02c:	0d40 1515 1515 1515 fcfc 0400 0000 0013     @...............
 900b03c:	017e 008e 0024 00de 013d 00e8 0000 0000     ~...$...=.......
 900b04c:	0000 0300 0d40 1515 1515 1515 fc04 fc00     ....@...........
 900b05c:	0000 0012 006f 00cc 001e 013d 016c 0017     ....o.....=.l...
 900b06c:	0000 0000 0000 0300 0d40 1515 1515 1515     ........@.......
 900b07c:	fc04 fc00 0000 0012 008e 003a 013d 0011     ..........:.=...
 900b08c:	016c 0182 0000 0000                         l.......

0900b094 <trainer_party_x1a1_lester_difficulty_normal>:
 900b094:	0000 0300 0d40 0b0b 0b0b 0b0b fcfc 0400     ....@...........
 900b0a4:	0000 0011 0140 00c8 0056 00c9 00d1 013d     ....@...V.....=.
 900b0b4:	0000 0000 0000 0300 0d40 0b0b 0b0b 0b0b     ........@.......
 900b0c4:	fc04 fc00 0000 0012 005f 008b 013d 0171     ........_...=.q.
 900b0d4:	0014 0000 0000 0000 0000 0300 0d40 0b0b     ............@...
 900b0e4:	0b0b 0b0b fcfc 0400 0000 0011 004b 00a8     ............K...
 900b0f4:	00de 0171 013d 0078 0000 0000 0000 0300     ..q.=.x.........
 900b104:	0d40 0b0b 0b0b 0b0b fcfc 0400 0000 0013     @...............
 900b114:	017e 008e 0024 00de 013d 00e8 0000 0000     ~...$...=.......

0900b124 <trainer_party_xb6>:
 900b124:	0000 0300 0d40 0b0b 0b0b 0b0b fcfc 0400     ....@...........
 900b134:	0000 000f 005f 008b 013d 0171 0014 0000     ...._...=.q.....
 900b144:	0000 0000 0000 0300 0d40 0b0b 0b0b 0b0b     ........@.......
 900b154:	fcfc 0400 0000 0010 004b 00a8 00de 0171     ........K.....q.
 900b164:	013d 0078 0000 0000 0000 0300 0d40 0b0b     =.x.........@...
 900b174:	0b0b 0b0b fcfc 0400 0000 0011 017e 008e     ............~...
 900b184:	0024 00de 013d 00e8 0000 0000               $...=.......

0900b190 <trainer_party_x1a0_bruchfels_gym_trainer2>:
	...
 900b1a0:	0000 0011 006f 0000 0000 0000 0000 0000     ....o...........
 900b1b0:	0000 0000                                   ....

0900b1b4 <trainer_party_x19f_bruchfels_gym_trainer1>:
	...
 900b1c4:	0000 000f 004a 0000 0000 0000 0000 0000     ....J...........
	...
 900b1e8:	0000 000e 005f 0000 0000 0000 0000 0000     ...._...........
	...
 900b20c:	0000 000d 0183 0000 0000 0000 0000 0000     ................
 900b21c:	0000 0000                                   ....

0900b220 <trainer_party_x19e_route_2_cave_teenager>:
	...
 900b230:	0000 0009 003a 0000 0000 0000 0000 0000     ....:...........
 900b240:	0000 0000                                   ....

0900b244 <trainer_party_x19d_route_2_cave_school_kid>:
	...
 900b254:	0000 0008 00ae 0000 0000 0000 0000 0000     ................
	...
 900b278:	0000 0008 00b7 0000 0000 0000 0000 0000     ................
 900b288:	0000 0000                                   ....

0900b28c <trainer_party_x19c_route_2_cave_hiker>:
	...
 900b29c:	0000 0009 005f 0000 0000 0000 0000 0000     ...._...........
 900b2ac:	0000 0000                                   ....

0900b2b0 <trainer_party_x19b_route_2_streber>:
	...
 900b2c0:	0000 0006 0058 0000 0000 0000 0000 0000     ....X...........
 900b2d0:	0000 0000                                   ....

0900b2d4 <trainer_party_x19a_meriana_city_blackbelt_in_front_of_gym>:
	...
 900b2e4:	0000 0005 0042 0000 0000 0000 0000 0000     ....B...........
	...
 900b308:	0000 0005 0038 0000 0000 0000 0000 0000     ....8...........
 900b318:	0000 0000                                   ....

0900b31c <trainer_party_test>:
 900b31c:	0102 1800 0d46 0804 1410 1c18 fc94 0000     ....F...........
 900b32c:	6400 0032 0019 00c8 0039 0057 0000 0000     .d2.....9.W.....
	...
 900b350:	0000 0007 0161 0000 0000 0000 0000 0000     ....a...........
 900b360:	0000 0000                                   ....

0900b364 <trainer_party_x199_bbship_blackbeard>:
 900b364:	0000 0f00 0d40 1616 1616 1616 0004 fc00     ....@...........
 900b374:	00fc 0031 014b 003a 016b 007f 00f2 0131     ..1.K.:.k.....1.
 900b384:	0000 0000 0000 0300 0d40 1616 1616 1616     ........@.......
 900b394:	fc04 fc00 0000 0033 0082 00c8 016b 015d     ......3.....k.].
 900b3a4:	0059 007f 0000 0000 0000 0f00 0f40 1616     Y...........@...
 900b3b4:	1616 1616 00fc 0400 00fc 0034 00e0 00f1     ..........4.....
 900b3c4:	0038 003a 0175 0179 0000 0000 0000 0a00     8.:.u.y.........
 900b3d4:	0d40 1616 1616 1616 0004 fc00 00fc 0032     @.............2.
 900b3e4:	011d 00d1 0185 0180 0169 003a 0000 0000     ........i.:.....
 900b3f4:	0000 1400 0d40 1616 1616 1616 00fc 0400     ....@...........
 900b404:	fc00 0031 00ab 0086 0056 0039 009c 0055     ..1.....V.9...U.
 900b414:	0000 0000                                   ....

0900b418 <trainer_party_x198_bbship_deck_pirate6>:
	...
 900b428:	0000 002e 0082 0000 0000 0000 0000 0000     ................
	...
 900b44c:	0000 0030 014b 0000 0000 0000 0000 0000     ..0.K...........
	...
 900b470:	0000 002f 0147 0000 0000 0000 0000 0000     ../.G...........
	...
 900b494:	0000 002f 011f 0000 0000 0000 0000 0000     ../.............
 900b4a4:	0000 0000                                   ....

0900b4a8 <trainer_party_x197_bbship_deck_pirate5>:
	...
 900b4b8:	0000 002f 0144 0000 0000 0000 0000 0000     ../.D...........
	...
 900b4dc:	0000 002e 0086 0000 0000 0000 0000 0000     ................
	...
 900b500:	0000 0030 0077 0000 0000 0000 0000 0000     ..0.w...........
	...
 900b524:	0000 002f 0049 0000 0000 0000 0000 0000     ../.I...........
 900b534:	0000 0000                                   ....

0900b538 <trainer_party_x196_bbship_deck_pirate4>:
	...
 900b548:	0000 0032 011d 0000 0000 0000 0000 0000     ..2.............
 900b558:	0000 0000                                   ....

0900b55c <trainer_party_x195_bbship_deck_pirate3>:
	...
 900b56c:	0000 0030 0177 0000 0000 0000 0000 0000     ..0.w...........
	...
 900b590:	0000 002e 005b 0000 0000 0000 0000 0000     ....[...........
 900b5a0:	0000 0000                                   ....

0900b5a4 <trainer_party_x194_bbship_deck_pirate2>:
	...
 900b5b4:	0000 002f 00df 0000 0000 0000 0000 0000     ../.............
	...
 900b5d8:	0000 002c 0139 0000 0000 0000 0000 0000     ..,.9...........
 900b5e8:	0000 0000                                   ....

0900b5ec <trainer_party_x193_bbship_deck_pirate1>:
	...
 900b5fc:	0000 002e 0076 0000 0000 0000 0000 0000     ....v...........
	...
 900b620:	0000 002e 0008 0000 0000 0000 0000 0000     ................
 900b630:	0000 0000                                   ....

0900b634 <trainer_party_x192_bbship_deck_pirate0>:
	...
 900b644:	0000 002e 00aa 0000 0000 0000 0000 0000     ................
	...
 900b668:	0000 002e 0078 0000 0000 0000 0000 0000     ....x...........
	...
 900b68c:	0000 002d 0048 0000 0000 0000 0000 0000     ..-.H...........
 900b69c:	0000 0000                                   ....

0900b6a0 <trainer_party_x191_bbship_cabins_pirate3>:
	...
 900b6b0:	0000 0031 0147 0000 0000 0000 0000 0000     ..1.G...........
 900b6c0:	0000 0000                                   ....

0900b6c4 <trainer_party_x190_bbship_cabins_pirate2>:
	...
 900b6d4:	0000 002e 014a 0000 0000 0000 0000 0000     ....J...........
	...
 900b6f8:	0000 002f 0146 0000 0000 0000 0000 0000     ../.F...........
 900b708:	0000 0000                                   ....

0900b70c <trainer_party_x18f_bbship_cabins_pirate1>:
	...
 900b71c:	0000 002f 0075 0000 0000 0000 0000 0000     ../.u...........
	...
 900b740:	0000 002f 0136 0000 0000 0000 0000 0000     ../.6...........
 900b750:	0000 0000                                   ....

0900b754 <trainer_party_x18e_bbship_cabins_pirate0>:
	...
 900b764:	0000 002e 0148 0000 0000 0000 0000 0000     ....H...........
	...
 900b788:	0000 002e 0062 0000 0000 0000 0000 0000     ....b...........
	...
 900b7ac:	0000 002f 0156 0000 0000 0000 0000 0000     ../.V...........
 900b7bc:	0000 0000                                   ....

0900b7c0 <trainer_party_x18d_bbship_cabin_pirate1>:
	...
 900b7d0:	0000 002d 014a 0000 0000 0000 0000 0000     ..-.J...........
	...
 900b7f4:	0000 002e 0076 0000 0000 0000 0000 0000     ....v...........
	...
 900b818:	0000 002f 0007 0000 0000 0000 0000 0000     ../.............
 900b828:	0000 0000                                   ....

0900b82c <trainer_party_x18c_bbship_cabin_pirate0>:
	...
 900b83c:	0000 002d 00e0 0000 0000 0000 0000 0000     ..-.............
	...
 900b860:	0000 002e 0048 0000 0000 0000 0000 0000     ....H...........
 900b870:	0000 0000                                   ....

0900b874 <trainer_party_x18b_bbship_canon_room_pirate0>:
	...
 900b884:	0000 002c 0078 0000 0000 0000 0000 0000     ..,.x...........
	...
 900b8a8:	0000 002b 0135 0000 0000 0000 0000 0000     ..+.5...........
	...
 900b8cc:	0000 002e 0063 0000 0000 0000 0000 0000     ....c...........
 900b8dc:	0000 0000                                   ....

0900b8e0 <trainer_party_x18a_bbship_cells_pirate0>:
	...
 900b8f0:	0000 002d 00df 0000 0000 0000 0000 0000     ..-.............
	...
 900b914:	0000 002d 009e 0000 0000 0000 0000 0000     ..-.............
	...
 900b938:	0000 002c 0175 0000 0000 0000 0000 0000     ..,.u...........
 900b948:	0000 0000                                   ....

0900b94c <trainer_party_x189_bbship_storage_pirate_5>:
	...
 900b95c:	0000 002c 00df 0000 0000 0000 0000 0000     ..,.............
	...
 900b980:	0000 002c 0139 0000 0000 0000 0000 0000     ..,.9...........
 900b990:	0000 0000                                   ....

0900b994 <trainer_party_x188_bbship_storage_pirate_4>:
	...
 900b9a4:	0000 002c 00ab 0000 0000 0000 0000 0000     ..,.............
	...
 900b9c8:	0000 002a 0076 0000 0000 0000 0000 0000     ..*.v...........
	...
 900b9ec:	0000 002b 0155 0000 0000 0000 0000 0000     ..+.U...........
 900b9fc:	0000 0000                                   ....

0900ba00 <trainer_party_x187_bbship_storage_pirate_3>:
	...
 900ba10:	0000 002b 0075 0000 0000 0000 0000 0000     ..+.u...........
	...
 900ba34:	0000 002d 0048 0000 0000 0000 0000 0000     ..-.H...........
 900ba44:	0000 0000                                   ....

0900ba48 <trainer_party_x186_bbship_storage_pirate_2>:
	...
 900ba58:	0000 002c 0175 0000 0000 0000 0000 0000     ..,.u...........
	...
 900ba7c:	0000 002c 009f 0000 0000 0000 0000 0000     ..,.............
 900ba8c:	0000 0000                                   ....

0900ba90 <trainer_party_x185_bbship_storage_pirate_1>:
	...
 900baa0:	0000 002f 014b 0000 0000 0000 0000 0000     ../.K...........
 900bab0:	0000 0000                                   ....

0900bab4 <trainer_party_x184_bbship_storage_pirate_0>:
	...
 900bac4:	0000 002c 0146 0000 0000 0000 0000 0000     ..,.F...........
	...
 900bae8:	0000 002d 014a 0000 0000 0000 0000 0000     ..-.J...........
 900baf8:	0000 0000                                   ....

0900bafc <trainer_party_x183_dark_tower_trainer_2>:
	...
 900bb0c:	0000 0029 007a 0000 0000 0000 0000 0000     ..).z...........
	...
 900bb30:	0000 0028 0169 0000 0000 0000 0000 0000     ..(.i...........
 900bb40:	0000 0000                                   ....

0900bb44 <trainer_party_x182_dark_tower_trainer_1>:
	...
 900bb54:	0000 0027 005c 0000 0000 0000 0000 0000     ..'.\...........
	...
 900bb78:	0000 0026 0072 0000 0000 0000 0000 0000     ..&.r...........
	...
 900bb9c:	0000 0028 0076 0000 0000 0000 0000 0000     ..(.v...........
 900bbac:	0000 0000                                   ....

0900bbb0 <trainer_party_x181_dark_tower_trainer_0>:
	...
 900bbc0:	0000 0028 0017 0000 0000 0000 0000 0000     ..(.............
	...
 900bbe4:	0000 0029 017a 0000 0000 0000 0000 0000     ..).z...........
 900bbf4:	0000 0000                                   ....

0900bbf8 <trainer_party_x180_ceometria_clouds_ruin_maniac_0>:
	...
 900bc08:	0000 0022 0032 0000 0000 0000 0000 0000     ..".2...........
	...
 900bc2c:	0000 0025 013e 0000 0000 0000 0000 0000     ..%.>...........
 900bc3c:	0000 0000                                   ....

0900bc40 <trainer_party_x17f_ceometria_clouds_witch_1>:
	...
 900bc50:	0000 0025 0169 0000 0000 0000 0000 0000     ..%.i...........
	...
 900bc74:	0000 0023 00bb 0000 0000 0000 0000 0000     ..#.............
	...
 900bc98:	0000 0023 005c 0000 0000 0000 0000 0000     ..#.\...........
 900bca8:	0000 0000                                   ....

0900bcac <trainer_party_x17e_ceometria_clouds_witch_0>:
	...
 900bcbc:	0000 0024 007a 0000 0000 0000 0000 0000     ..$.z...........
	...
 900bce0:	0000 0024 005d 0000 0000 0000 0000 0000     ..$.]...........
 900bcf0:	0000 0000                                   ....

0900bcf4 <trainer_party_x17d_route_11_couple>:
	...
 900bd04:	0000 0024 0128 0000 0000 0000 0000 0000     ..$.(...........
	...
 900bd28:	0000 0024 012b 0000 0000 0000 0000 0000     ..$.+...........
	...
 900bd4c:	0000 0023 013c 0000 0000 0000 0000 0000     ..#.<...........
	...
 900bd70:	0000 0023 0152 0000 0000 0000 0000 0000     ..#.R...........
 900bd80:	0000 0000                                   ....

0900bd84 <trainer_party_x17c_route_12_couple>:
	...
 900bd94:	0000 0026 001e 0000 0000 0000 0000 0000     ..&.............
	...
 900bdb8:	0000 0026 0021 0000 0000 0000 0000 0000     ..&.!...........
 900bdc8:	0000 0000                                   ....

0900bdcc <trainer_party_x17b_route_7_picknicker>:
	...
 900bddc:	0000 0025 001b 0000 0000 0000 0000 0000     ..%.............
	...
 900be00:	0000 0024 0021 0000 0000 0000 0000 0000     ..$.!...........
 900be10:	0000 0000                                   ....

0900be14 <trainer_party_x17a_route_7_beatuy>:
	...
 900be24:	0000 0026 013c 0000 0000 0000 0000 0000     ..&.<...........
	...
 900be48:	0000 0026 00d1 0000 0000 0000 0000 0000     ..&.............
 900be58:	0000 0000                                   ....

0900be5c <trainer_party_x179_route_7_twins>:
	...
 900be6c:	0000 0023 0019 0000 0000 0000 0000 0000     ..#.............
	...
 900be90:	0000 0025 0064 0000 0000 0000 0000 0000     ..%.d...........
 900bea0:	0000 0000                                   ....

0900bea4 <trainer_party_x178_route_10_couple>:
	...
 900beb4:	0000 0024 005b 0000 0000 0000 0000 0000     ..$.[...........
	...
 900bed8:	0000 0025 005f 0000 0000 0000 0000 0000     ..%._...........
 900bee8:	0000 0000                                   ....

0900beec <trainer_party_x177_route_8_couple>:
	...
 900befc:	0000 0017 0124 0000 0000 0000 0000 0000     ....$...........
	...
 900bf20:	0000 0017 0126 0000 0000 0000 0000 0000     ....&...........
 900bf30:	0000 0000                                   ....

0900bf34 <trainer_party_x176_route_8_psycho_0>:
	...
 900bf44:	0000 0018 00c4 0000 0000 0000 0000 0000     ................
 900bf54:	0000 0000                                   ....

0900bf58 <trainer_party_x175_route_9_swimmer_1>:
	...
 900bf68:	0000 0024 00df 0000 0000 0000 0000 0000     ..$.............
	...
 900bf8c:	0000 0025 0155 0000 0000 0000 0000 0000     ..%.U...........
 900bf9c:	0000 0000                                   ....

0900bfa0 <trainer_party_x174_route_9_swimmer_0>:
	...
 900bfb0:	0000 0025 0139 0000 0000 0000 0000 0000     ..%.9...........
	...
 900bfd4:	0000 0026 0136 0000 0000 0000 0000 0000     ..&.6...........
 900bfe4:	0000 0000                                   ....

0900bfe8 <trainer_party_x170_volcano_igva_ally>:
 900bfe8:	0000 0300 0f40 1313 1313 1313 fc04 fc00     ....@...........
 900bff8:	0000 0029 000c 00d2 0170 016a 00d3 013b     ..).....p.j...;.
 900c008:	0000 0000 0000 0f00 0d40 1313 1313 1313     ........@.......
 900c018:	0004 fc00 00fc 0028 0006 00b4 013b 013a     ......(.....;.:.
 900c028:	004c 00f1 0000 0000 0000 0f00 0d40 1313     L...........@...
 900c038:	1313 1313 0004 fc00 00fc 002c 0141 008e     ..........,.A...
 900c048:	013b 0167 0055 005e 0000 0000               ;.g.U.^.....

0900c054 <trainer_party_x173_volcano_grunt_2>:
	...
 900c064:	0000 0022 0022 0000 0000 0000 0000 0000     .."."...........
	...
 900c088:	0000 0025 0170 0000 0000 0000 0000 0000     ..%.p...........
	...
 900c0ac:	0000 0024 00e0 0000 0000 0000 0000 0000     ..$.............
 900c0bc:	0000 0000                                   ....

0900c0c0 <trainer_party_x172_volcano_grunt_1>:
	...
 900c0d0:	0000 0023 011f 0000 0000 0000 0000 0000     ..#.............
	...
 900c0f4:	0000 0021 0072 0000 0000 0000 0000 0000     ..!.r...........
 900c104:	0000 0000                                   ....

0900c108 <trainer_party_x171_volcano_grunt_0>:
	...
 900c118:	0000 0021 002a 0000 0000 0000 0000 0000     ..!.*...........
	...
 900c13c:	0000 0022 016f 0000 0000 0000 0000 0000     ..".o...........
 900c14c:	0000 0000                                   ....

0900c150 <trainer_party_x16f_route_6_couple>:
	...
 900c160:	0000 0024 00b7 0000 0000 0000 0000 0000     ..$.............
	...
 900c184:	0000 0025 001c 0000 0000 0000 0000 0000     ..%.............
	...
 900c1a8:	0000 0023 0040 0000 0000 0000 0000 0000     ..#.@...........
	...
 900c1cc:	0000 0025 00d1 0000 0000 0000 0000 0000     ..%.............
 900c1dc:	0000 0000                                   ....

0900c1e0 <trainer_party_x16e_route_6_trainer_0>:
	...
 900c1f0:	0000 0027 00ed 0000 0000 0000 0000 0000     ..'.............
	...
 900c214:	0000 0027 0043 0000 0000 0000 0000 0000     ..'.C...........
 900c224:	0000 0000                                   ....

0900c228 <trainer_party_x16d_route_5_twins>:
	...
 900c238:	0000 0023 00a5 0000 0000 0000 0000 0000     ..#.............
	...
 900c25c:	0000 0023 0137 0000 0000 0000 0000 0000     ..#.7...........
	...
 900c280:	0000 0024 0027 0000 0000 0000 0000 0000     ..$.'...........
	...
 900c2a4:	0000 0023 0023 0000 0000 0000 0000 0000     ..#.#...........
 900c2b4:	0000 0000                                   ....

0900c2b8 <trainer_party_x16c_route_5_trainer_0>:
	...
 900c2c8:	0000 001e 0166 0000 0000 0000 0000 0000     ....f...........
	...
 900c2ec:	0000 001f 0189 0000 0000 0000 0000 0000     ................
 900c2fc:	0000 0000                                   ....

0900c300 <trainer_party_x16b_route_4_trainer_couple>:
	...
 900c310:	0000 0020 00d1 0000 0000 0000 0000 0000     .. .............
	...
 900c334:	0000 001f 0028 0000 0000 0000 0000 0000     ....(...........
	...
 900c358:	0000 0020 001e 0000 0000 0000 0000 0000     .. .............
	...
 900c37c:	0000 0021 0021 0000 0000 0000 0000 0000     ..!.!...........
 900c38c:	0000 0000                                   ....

0900c390 <trainer_party_x16a_kuestenberg_revolutionaer>:
	...
 900c3a0:	0000 0021 00e8 0000 0000 0000 0000 0000     ..!.............
	...
 900c3c4:	0000 0022 014b 0000 0000 0000 0000 0000     ..".K...........
 900c3d4:	0000 0000                                   ....

0900c3d8 <trainer_party_x169_kuestenberg_felix>:
 900c3d8:	0000 0300 0d40 1111 1111 1111 fc04 fc00     ....@...........
 900c3e8:	0000 0022 016d 00d9 00a3 016d 014c 017d     ..".m.....m.L.}.
 900c3f8:	0000 0000 0000 0f00 0d40 1111 1111 1111     ........@.......
 900c408:	00fc 0400 00fc 0024 006c 0178 0015 007a     ......$.l.x...z.
 900c418:	0055 0035 0000 0000 0000 0300 0d40 1111     U.5.........@...
 900c428:	1111 1111 fcfc 0400 0000 0023 0028 00b7     ..........#.(...
 900c438:	0026 018c 0118 0009 0000 0000               &...........

0900c444 <trainer_party_x168_felsige_oednis_trainer_0>:
	...
 900c454:	0000 0018 0140 0000 0000 0000 0000 0000     ....@...........
 900c464:	0000 0000                                   ....

0900c468 <trainer_party_x167_route_3_trainer_0>:
	...
 900c478:	0000 0012 0042 0000 0000 0000 0000 0000     ....B...........
 900c488:	0000 0000                                   ....

0900c48c <trainer_party_x166_route_2_trainer_1>:
	...
 900c49c:	0000 000b 000a 0000 0000 0000 0000 0000     ................
	...
 900c4c0:	0000 000a 0120 0000 0000 0000 0000 0000     .... ...........
 900c4d0:	0000 0000                                   ....

0900c4d4 <trainer_party_x165_route_2_twins>:
	...
 900c4e4:	0000 000d 0019 0000 0000 0000 0000 0000     ................
	...
 900c508:	0000 000d 0064 0000 0000 0000 0000 0000     ....d...........
 900c518:	0000 0000                                   ....

0900c51c <trainer_party_x164_route_2_grunt_second>:
	...
 900c52c:	0000 000c 0029 0000 0000 0000 0000 0000     ....)...........
	...
 900c550:	0000 000b 0060 0000 0000 0000 0000 0000     ....`...........
 900c560:	0000 0000                                   ....

0900c564 <trainer_party_x163_route_2_trainer_0>:
	...
 900c574:	0000 000c 0027 0000 0000 0000 0000 0000     ....'...........
 900c584:	0000 0000                                   ....

0900c588 <trainer_party_x162_route_2_east_trainer_0>:
	...
 900c598:	0000 0007 000d 0000 0000 0000 0000 0000     ................
	...
 900c5bc:	0000 0007 012d 0000 0000 0000 0000 0000     ....-...........
 900c5cc:	0000 0000                                   ....

0900c5d0 <trainer_party_x161_route_2_rival_water_starter>:
 900c5d0:	0000 0f00 0d40 0b0b 0b0b 0b0b 00fc 0400     ....@...........
 900c5e0:	00fc 000a 0007 0000 0021 0037 006e 0000     ........!.7.n...
 900c5f0:	0000 0000 0000 0300 0d40 0b0b 0b0b 0b0b     ........@.......
 900c600:	fcfc 0400 0000 000b 0115 008b 0001 006a     ..............j.
 900c610:	004b 0000 0000 0000                         K.......

0900c618 <trainer_party_x160_route_2_rival_fire_starter>:
 900c618:	0000 0a00 0d40 0b0b 0b0b 0b0b 0004 fc00     ....@...........
 900c628:	00fc 000a 0004 0000 000a 002d 0034 0000     ..........-.4...
 900c638:	0000 0000 0000 0f00 0d40 0b0b 0b0b 0b0b     ........@.......
 900c648:	0004 fc00 00fc 000b 011b 008b 0001 002b     ..............+.
 900c658:	0037 0000 0000 0000                         7.......

0900c660 <trainer_party_x15f_route_2_rival_plant_starter>:
 900c660:	0000 0f00 0d40 0b0b 0b0b 0b0b 00fc 0400     ....@...........
 900c670:	00fc 000a 0001 0000 0016 0021 002d 0000     ..........!.-...
 900c680:	0000 0000 0000 0f00 0d40 0b0b 0b0b 0b0b     ........@.......
 900c690:	0004 fc00 00fc 000b 0118 008b 0034 0150     ............4.P.
 900c6a0:	000a 0000 0000 0000                         ........

0900c6a8 <trainer_party_x15e_ardeal_lucius>:
 900c6a8:	0000 0d00 0d40 1f1f 1f1f 1f1f fc04 fc00     ....@...........
 900c6b8:	0000 0057 0171 00f0 0059 0151 0009 016f     ..W.q...Y.Q...o.
 900c6c8:	0000 0000 0000 0300 0d40 1f1f 1f1f 1f1f     ........@.......
 900c6d8:	fcfc 0400 0000 0059 003e 00c8 019c 0186     ......Y.>.......
 900c6e8:	017a 000e 0000 0000 0000 0300 0d40 1f1f     z...........@...
 900c6f8:	1f1f 1f1f fcfc 0400 0000 0056 0117 00cd     ..........V.....
 900c708:	015c 0186 016f 0174 0000 0000 0000 0f00     \...o.t.........
 900c718:	0d40 1f1f 1f1f 1f1f 00fc 0400 00fc 0057     @.............W.
 900c728:	0149 00db 0039 003a 005f 0069 0000 0000     I...9.:._.i.....
 900c738:	0000 0300 0d40 1f1f 1f1f 1f1f fc04 fc00     ....@...........
 900c748:	0000 0058 018d 003a 00c8 0059 016f 014c     ..X...:...Y.o.L.
 900c758:	0000 0000 0000 0a00 0d40 1f1f 1f1f 1f1f     ........@.......
 900c768:	0004 fc00 00fc 0055 0006 00b4 013b 013a     ......U.....;.:.
 900c778:	0167 004c 0000 0000                         g.L.....

0900c780 <trainer_party_x15d_ardeal_trainer_4>:
	...
 900c790:	0000 002d 006e 0000 0000 0000 0000 0000     ..-.n...........
	...
 900c7b4:	0000 002b 0059 0000 0000 0000 0000 0000     ..+.Y...........
 900c7c4:	0000 0000                                   ....

0900c7c8 <trainer_party_x15c_ardeal_trainer_3>:
	...
 900c7d8:	0000 002c 00a9 0000 0000 0000 0000 0000     ..,.............
	...
 900c7fc:	0000 002d 0061 0000 0000 0000 0000 0000     ..-.a...........
 900c80c:	0000 0000                                   ....

0900c810 <trainer_party_x15b_ardeal_trainer_2>:
	...
 900c820:	0000 002c 00c4 0000 0000 0000 0000 0000     ..,.............
 900c830:	0000 0000                                   ....

0900c834 <trainer_party_x15a_ardeal_trainer_1>:
	...
 900c844:	0000 002a 0116 0000 0000 0000 0000 0000     ..*.............
	...
 900c868:	0000 0029 00e5 0000 0000 0000 0000 0000     ..).............
	...
 900c88c:	0000 002b 00be 0000 0000 0000 0000 0000     ..+.............
 900c89c:	0000 0000                                   ....

0900c8a0 <trainer_party_x159_ardeal_trainer_0>:
	...
 900c8b0:	0000 002b 0012 0000 0000 0000 0000 0000     ..+.............
	...
 900c8d4:	0000 002a 003d 0000 0000 0000 0000 0000     ..*.=...........
 900c8e4:	0000 0000                                   ....

0900c8e8 <trainer_party_x158_route_7_trainer_25>:
	...
 900c8f8:	0000 0026 0037 0000 0000 0000 0000 0000     ..&.7...........
	...
 900c91c:	0000 0027 0048 0000 0000 0000 0000 0000     ..'.H...........
	...
 900c940:	0000 0026 009f 0000 0000 0000 0000 0000     ..&.............
 900c950:	0000 0000                                   ....

0900c954 <trainer_party_x157_route_7_trainer_24>:
	...
 900c964:	0000 002a 0147 0000 0000 0000 0000 0000     ..*.G...........
 900c974:	0000 0000                                   ....

0900c978 <trainer_party_x156_route_7_trainer_23>:
	...
 900c988:	0000 0027 0076 0000 0000 0000 0000 0000     ..'.v...........
	...
 900c9ac:	0000 0026 0048 0000 0000 0000 0000 0000     ..&.H...........
 900c9bc:	0000 0000                                   ....

0900c9c0 <trainer_party_x155_route_7_trainer_22>:
	...
 900c9d0:	0000 0023 014a 0000 0000 0000 0000 0000     ..#.J...........
	...
 900c9f4:	0000 002a 0082 0000 0000 0000 0000 0000     ..*.............
 900ca04:	0000 0000                                   ....

0900ca08 <trainer_party_x154_route_7_trainer_21>:
	...
 900ca18:	0000 0025 0052 0000 0000 0000 0000 0000     ..%.R...........
	...
 900ca3c:	0000 0027 0040 0000 0000 0000 0000 0000     ..'.@...........
	...
 900ca60:	0000 0026 0059 0000 0000 0000 0000 0000     ..&.Y...........
 900ca70:	0000 0000                                   ....

0900ca74 <trainer_party_x153_route_7_trainer_20>:
	...
 900ca84:	0000 002a 00b8 0000 0000 0000 0000 0000     ..*.............
 900ca94:	0000 0000                                   ....

0900ca98 <trainer_party_x152_route_7_trainer_19>:
	...
 900caa8:	0000 0026 0139 0000 0000 0000 0000 0000     ..&.9...........
	...
 900cacc:	0000 0029 0076 0000 0000 0000 0000 0000     ..).v...........
	...
 900caf0:	0000 0027 011c 0000 0000 0000 0000 0000     ..'.............
 900cb00:	0000 0000                                   ....

0900cb04 <trainer_party_x151_route_7_trainer_18>:
	...
 900cb14:	0000 0029 0136 0000 0000 0000 0000 0000     ..).6...........
	...
 900cb38:	0000 0028 0043 0000 0000 0000 0000 0000     ..(.C...........
 900cb48:	0000 0000                                   ....

0900cb4c <trainer_party_x150_route_7_trainer_17>:
	...
 900cb5c:	0000 0028 00e5 0000 0000 0000 0000 0000     ..(.............
	...
 900cb80:	0000 0028 011f 0000 0000 0000 0000 0000     ..(.............
 900cb90:	0000 0000                                   ....

0900cb94 <trainer_party_x14f_route_7_trainer_16>:
	...
 900cba4:	0000 0028 0121 0000 0000 0000 0000 0000     ..(.!...........
	...
 900cbc8:	0000 0027 0066 0000 0000 0000 0000 0000     ..'.f...........
	...
 900cbec:	0000 0026 0019 0000 0000 0000 0000 0000     ..&.............
 900cbfc:	0000 0000                                   ....

0900cc00 <trainer_party_x14e_route_7_trainer_15>:
	...
 900cc10:	0000 002b 0009 0000 0000 0000 0000 0000     ..+.............
 900cc20:	0000 0000                                   ....

0900cc24 <trainer_party_x14d_route_7_trainer_14>:
	...
 900cc34:	0000 0029 0048 0000 0000 0000 0000 0000     ..).H...........
	...
 900cc58:	0000 002a 0076 0000 0000 0000 0000 0000     ..*.v...........
 900cc68:	0000 0000                                   ....

0900cc6c <trainer_party_x14c_route_7_trainer_13>:
	...
 900cc7c:	0000 0027 0043 0000 0000 0000 0000 0000     ..'.C...........
	...
 900cca0:	0000 002a 0136 0000 0000 0000 0000 0000     ..*.6...........
	...
 900ccc4:	0000 0025 0052 0000 0000 0000 0000 0000     ..%.R...........
 900ccd4:	0000 0000                                   ....

0900ccd8 <trainer_party_x14b_route_7_trainer_12>:
	...
 900cce8:	0000 0027 009f 0000 0000 0000 0000 0000     ..'.............
	...
 900cd0c:	0000 0029 001e 0000 0000 0000 0000 0000     ..).............
 900cd1c:	0000 0000                                   ....

0900cd20 <trainer_party_x14a_route_7_trainer_11>:
	...
 900cd30:	0000 002a 0079 0000 0000 0000 0000 0000     ..*.y...........
 900cd40:	0000 0000                                   ....

0900cd44 <trainer_party_x149_route_7_trainer_10>:
	...
 900cd54:	0000 0026 001c 0000 0000 0000 0000 0000     ..&.............
	...
 900cd78:	0000 0027 00b7 0000 0000 0000 0000 0000     ..'.............
	...
 900cd9c:	0000 0025 0062 0000 0000 0000 0000 0000     ..%.b...........
 900cdac:	0000 0000                                   ....

0900cdb0 <trainer_party_x148_route_7_trainer_9>:
	...
 900cdc0:	0000 0027 0055 0000 0000 0000 0000 0000     ..'.U...........
	...
 900cde4:	0000 0028 006a 0000 0000 0000 0000 0000     ..(.j...........
 900cdf4:	0000 0000                                   ....

0900cdf8 <trainer_party_x147_route_7_trainer_8>:
	...
 900ce08:	0000 002a 00e5 0000 0000 0000 0000 0000     ..*.............
 900ce18:	0000 0000                                   ....

0900ce1c <trainer_party_x146_route_7_trainer_7>:
	...
 900ce2c:	0000 0024 0131 0000 0000 0000 0000 0000     ..$.1...........
	...
 900ce50:	0000 0026 000b 0000 0000 0000 0000 0000     ..&.............
 900ce60:	0000 0000                                   ....

0900ce64 <trainer_party_x145_route_7_trainer_6>:
	...
 900ce74:	0000 0028 0046 0000 0000 0000 0000 0000     ..(.F...........
	...
 900ce98:	0000 0027 0016 0000 0000 0000 0000 0000     ..'.............
 900cea8:	0000 0000                                   ....

0900ceac <trainer_party_x144_route_7_trainer_5>:
	...
 900cebc:	0000 0027 0121 0000 0000 0000 0000 0000     ..'.!...........
	...
 900cee0:	0000 0025 006e 0000 0000 0000 0000 0000     ..%.n...........
	...
 900cf04:	0000 0026 0189 0000 0000 0000 0000 0000     ..&.............
 900cf14:	0000 0000                                   ....

0900cf18 <trainer_party_x143_route_7_trainer_4>:
	...
 900cf28:	0000 002b 0044 0000 0000 0000 0000 0000     ..+.D...........
 900cf38:	0000 0000                                   ....

0900cf3c <trainer_party_x142_route_7_trainer_3>:
	...
 900cf4c:	0000 0026 014a 0000 0000 0000 0000 0000     ..&.J...........
	...
 900cf70:	0000 0025 0076 0000 0000 0000 0000 0000     ..%.v...........
	...
 900cf94:	0000 0027 00df 0000 0000 0000 0000 0000     ..'.............
 900cfa4:	0000 0000                                   ....

0900cfa8 <trainer_party_x141_route_7_trainer_2>:
	...
 900cfb8:	0000 0026 0052 0000 0000 0000 0000 0000     ..&.R...........
	...
 900cfdc:	0000 0026 0152 0000 0000 0000 0000 0000     ..&.R...........
 900cfec:	0000 0000                                   ....

0900cff0 <trainer_party_x140_route_7_trainer_1>:
	...
 900d000:	0000 0026 005f 0000 0000 0000 0000 0000     ..&._...........
	...
 900d024:	0000 0025 0043 0000 0000 0000 0000 0000     ..%.C...........
	...
 900d048:	0000 0026 004b 0000 0000 0000 0000 0000     ..&.K...........
 900d058:	0000 0000                                   ....

0900d05c <trainer_party_x13f_route_7_trainer_0>:
	...
 900d06c:	0000 0026 0005 0000 0000 0000 0000 0000     ..&.............
	...
 900d090:	0000 0026 003a 0000 0000 0000 0000 0000     ..&.:...........
 900d0a0:	0000 0000                                   ....

0900d0a4 <trainer_party_ceometria_gym_leader>:
 900d0a4:	0000 0300 0f40 1313 1313 1313 fcfc 0400     ....@...........
 900d0b4:	0000 002f 0077 00d1 0069 00f7 0039 0105     ../.w...i...9...
 900d0c4:	0000 0000 0000 0f00 0d40 1313 1313 1313     ........@.......
 900d0d4:	00fc 0400 00fc 002e 0018 008e 00f7 0179     ..............y.
 900d0e4:	0049 0105 0000 0000 0000 0f00 0d40 3030     I...........@.00
 900d0f4:	3030 3030 0004 fc00 00fc 0030 005e 00d5     0000......0.^...
 900d104:	00f7 0055 0167 00bc 0000 0000 0000 0800     ..U.g...........
 900d114:	0d40 1313 1313 1313 04fc 00fc 0000 0031     @.............1.
 900d124:	0142 00c8 017a 0105 00dc 0059 0000 0000     B...z.....Y.....

0900d134 <trainer_party_x13d_haweiland_may>:
 900d134:	0000 0300 0d40 1313 1313 1313 fc04 fc00     ....@...........
 900d144:	0000 002c 0012 00d2 0170 0174 00d3 0062     ..,.....p.t...b.
 900d154:	0000 0000 0000 0300 0d40 1313 1313 1313     ........@.......
 900d164:	fcfc 0400 0000 002e 011a 008e 0184 0169     ..............i.
 900d174:	0094 005e 0000 0000 0000 1400 0d40 1313     ..^.........@...
 900d184:	1313 1313 00fc 0400 fc00 002d 0049 00c8     ..........-.I...
 900d194:	005c 0039 00b6 003a 0000 0000 0000 0d00     \.9...:.........
 900d1a4:	0d40 1313 1313 1313 fc04 fc00 0000 002b     @.............+.
 900d1b4:	002e 00cd 015c 011a 014c 016e 0000 0000     ....\...L.n.....

0900d1c4 <trainer_party_x13c_haweiland_may>:
 900d1c4:	0000 0300 0d40 1313 1313 1313 fc04 fc00     ....@...........
 900d1d4:	0000 002c 0012 00d2 0170 0174 00d3 0062     ..,.....p.t...b.
 900d1e4:	0000 0000 0000 0300 0d40 1313 1313 1313     ........@.......
 900d1f4:	fcfc 0400 0000 002e 0117 008e 015c 0186     ............\...
 900d204:	000e 0174 0000 0000 0000 1400 0d40 1313     ..t.........@...
 900d214:	1313 1313 00fc 0400 fc00 002d 003b 00d7     ..........-.;...
 900d224:	016a 00f5 00f2 0174 0000 0000 0000 1400     j.....t.........
 900d234:	0d40 1313 1313 1313 00fc 0400 fc00 002b     @.............+.
 900d244:	0086 00c8 0039 003a 0111 00b6 0000 0000     ....9.:.........

0900d254 <trainer_party_x13b_haweiland_may>:
 900d254:	0000 0300 0d40 1313 1313 1313 fc04 fc00     ....@...........
 900d264:	0000 002c 0012 00d2 0170 0174 00d3 0062     ..,.....p.t...b.
 900d274:	0000 0000 0000 0f00 0d40 1313 1313 1313     ........@.......
 900d284:	0004 fc00 00fc 002e 011d 008e 0185 0180     ................
 900d294:	0169 003a 0000 0000 0000 1400 0d40 1313     i.:.........@...
 900d2a4:	1313 1313 00fc 0400 fc00 002d 002d 00c8     ..........-.-...
 900d2b4:	00ca 00bc 00eb 005c 0000 0000 0000 0300     ......\.........
 900d2c4:	0d40 1313 1313 1313 fcfc 0400 0000 002b     @.............+.
 900d2d4:	0088 00d7 016a 0114 0111 00b6 0000 0000     ....j...........

0900d2e4 <trainer_party_x13a_haweiland_cargo_hall_trainer_5>:
	...
 900d2f4:	0000 002a 008d 0000 0000 0000 0000 0000     ..*.............
	...
 900d318:	0000 0027 0075 0000 0000 0000 0000 0000     ..'.u...........
	...
 900d33c:	0000 002a 014b 0000 0000 0000 0000 0000     ..*.K...........
 900d34c:	0000 0000                                   ....

0900d350 <trainer_party_x139_haweiland_cargo_hall_trainer_4>:
	...
 900d360:	0000 0028 0063 0000 0000 0000 0000 0000     ..(.c...........
	...
 900d384:	0000 0029 0177 0000 0000 0000 0000 0000     ..).w...........
	...
 900d3a8:	0000 002a 0136 0000 0000 0000 0000 0000     ..*.6...........
 900d3b8:	0000 0000                                   ....

0900d3bc <trainer_party_x138_haweiland_cargo_hall_trainer_3>:
	...
 900d3cc:	0000 0028 0135 0000 0000 0000 0000 0000     ..(.5...........
	...
 900d3f0:	0000 0027 0176 0000 0000 0000 0000 0000     ..'.v...........
 900d400:	0000 0000                                   ....

0900d404 <trainer_party_x137_haweiland_cargo_hall_trainer_2>:
	...
 900d414:	0000 002a 014b 0000 0000 0000 0000 0000     ..*.K...........
 900d424:	0000 0000                                   ....

0900d428 <trainer_party_x136_haweiland_cargo_hall_trainer_1>:
	...
 900d438:	0000 0026 008c 0000 0000 0000 0000 0000     ..&.............
	...
 900d45c:	0000 0025 005a 0000 0000 0000 0000 0000     ..%.Z...........
	...
 900d480:	0000 0026 0076 0000 0000 0000 0000 0000     ..&.v...........
 900d490:	0000 0000                                   ....

0900d494 <trainer_party_x135_haweiland_cargo_hall_trainer_0>:
	...
 900d4a4:	0000 0027 0062 0000 0000 0000 0000 0000     ..'.b...........
	...
 900d4c8:	0000 0028 014a 0000 0000 0000 0000 0000     ..(.J...........
 900d4d8:	0000 0000                                   ....

0900d4dc <trainer_party_x134_haweiland_clouds_trainer_1>:
	...
 900d4ec:	0000 0028 00a6 0000 0000 0000 0000 0000     ..(.............
 900d4fc:	0000 0000                                   ....

0900d500 <trainer_party_x133_haweiland_clouds_trainer_0>:
	...
 900d510:	0000 0023 001c 0000 0000 0000 0000 0000     ..#.............
	...
 900d534:	0000 0024 0013 0000 0000 0000 0000 0000     ..$.............
 900d544:	0000 0000                                   ....

0900d548 <trainer_party_x132_route_12_clouds_trainer_2>:
	...
 900d558:	0000 0025 0152 0000 0000 0000 0000 0000     ..%.R...........
	...
 900d57c:	0000 0024 0052 0000 0000 0000 0000 0000     ..$.R...........
 900d58c:	0000 0000                                   ....

0900d590 <trainer_party_x131_route_12_clouds_trainer_1>:
	...
 900d5a0:	0000 0027 000c 0000 0000 0000 0000 0000     ..'.............
 900d5b0:	0000 0000                                   ....

0900d5b4 <trainer_party_x130_route_12_clouds_trainer_0>:
	...
 900d5c4:	0000 0023 0121 0000 0000 0000 0000 0000     ..#.!...........
	...
 900d5e8:	0000 0024 00a6 0000 0000 0000 0000 0000     ..$.............
 900d5f8:	0000 0000                                   ....

0900d5fc <trainer_party_x12f_ceometria_clouds_trainer_0>:
	...
 900d60c:	0000 0022 005c 0000 0000 0000 0000 0000     ..".\...........
	...
 900d630:	0000 0021 007a 0000 0000 0000 0000 0000     ..!.z...........
	...
 900d654:	0000 0022 0179 0000 0000 0000 0000 0000     ..".y...........
 900d664:	0000 0000                                   ....

0900d668 <trainer_party_x12e_route_11_clouds_trainer_0>:
	...
 900d678:	0000 0021 0081 0000 0000 0000 0000 0000     ..!.............
	...
 900d69c:	0000 0023 0076 0000 0000 0000 0000 0000     ..#.v...........
	...
 900d6c0:	0000 0022 0074 0000 0000 0000 0000 0000     ..".t...........
 900d6d0:	0000 0000                                   ....

0900d6d4 <trainer_party_x12d_kuestenberg_clouds_trainer_0>:
	...
 900d6e4:	0000 0027 0048 0000 0000 0000 0000 0000     ..'.H...........
	...
 900d708:	0000 0029 0008 0000 0000 0000 0000 0000     ..).............
 900d718:	0000 0000                                   ....

0900d71c <trainer_party_x12c_aktania_clouds_trainer_0>:
	...
 900d72c:	0000 0026 004c 0000 0000 0000 0000 0000     ..&.L...........
 900d73c:	0000 0000                                   ....

0900d740 <trainer_party_x12b_route_9_clouds_trainer_2>:
	...
 900d750:	0000 0023 007e 0000 0000 0000 0000 0000     ..#.~...........
	...
 900d774:	0000 0022 009c 0000 0000 0000 0000 0000     ..".............
 900d784:	0000 0000                                   ....

0900d788 <trainer_party_x12a_route_9_clouds_trainer_1>:
	...
 900d798:	0000 0023 0131 0000 0000 0000 0000 0000     ..#.1...........
	...
 900d7bc:	0000 0022 0055 0000 0000 0000 0000 0000     ..".U...........
	...
 900d7e0:	0000 0021 00cf 0000 0000 0000 0000 0000     ..!.............
 900d7f0:	0000 0000                                   ....

0900d7f4 <trainer_party_x129_route_9_clouds_trainer_0>:
	...
 900d804:	0000 0023 0189 0000 0000 0000 0000 0000     ..#.............
	...
 900d828:	0000 0022 0014 0000 0000 0000 0000 0000     ..".............
 900d838:	0000 0000                                   ....

0900d83c <trainer_party_x128_laubdorf_clouds_trainer_0>:
	...
 900d84c:	0000 0023 0124 0000 0000 0000 0000 0000     ..#.$...........
	...
 900d870:	0000 0022 013c 0000 0000 0000 0000 0000     ..".<...........
	...
 900d894:	0000 0024 0023 0000 0000 0000 0000 0000     ..$.#...........
 900d8a4:	0000 0000                                   ....

0900d8a8 <trainer_party_x127_route_8_clouds_trainer_0>:
	...
 900d8b8:	0000 0024 0131 0000 0000 0000 0000 0000     ..$.1...........
	...
 900d8dc:	0000 0025 000b 0000 0000 0000 0000 0000     ..%.............
 900d8ec:	0000 0000                                   ....

0900d8f0 <trainer_party_x126_silvania_wald_clouds_trainer_1>:
	...
 900d900:	0000 0023 002d 0000 0000 0000 0000 0000     ..#.-...........
 900d910:	0000 0000                                   ....

0900d914 <trainer_party_x125_silvania_wald_clouds_trainer_0>:
	...
 900d924:	0000 001c 007b 0000 0000 0000 0000 0000     ....{...........
	...
 900d948:	0000 001f 000f 0000 0000 0000 0000 0000     ................
	...
 900d96c:	0000 001c 0138 0000 0000 0000 0000 0000     ....8...........
	...
 900d990:	0000 001f 00a6 0000 0000 0000 0000 0000     ................
 900d9a0:	0000 0000                                   ....

0900d9a4 <trainer_party_x124_route_3_clouds_trainer_0>:
	...
 900d9b4:	0000 001f 0138 0000 0000 0000 0000 0000     ....8...........
	...
 900d9d8:	0000 001f 00a6 0000 0000 0000 0000 0000     ................
 900d9e8:	0000 0000                                   ....

0900d9ec <trainer_party_x123_silvania_clouds_trainer_0>:
	...
 900d9fc:	0000 001d 00c6 0000 0000 0000 0000 0000     ................
	...
 900da20:	0000 001e 0135 0000 0000 0000 0000 0000     ....5...........
	...
 900da44:	0000 0020 000b 0000 0000 0000 0000 0000     .. .............
 900da54:	0000 0000                                   ....

0900da58 <trainer_party_x122_felsige_oednis_clouds_trainer_1>:
	...
 900da68:	0000 001f 0138 0000 0000 0000 0000 0000     ....8...........
	...
 900da8c:	0000 001f 0131 0000 0000 0000 0000 0000     ....1...........
 900da9c:	0000 0000                                   ....

0900daa0 <trainer_party_x121_felsige_oednis_clouds_trainer_0>:
	...
 900dab0:	0000 001d 009c 0000 0000 0000 0000 0000     ................
	...
 900dad4:	0000 0020 0128 0000 0000 0000 0000 0000     .. .(...........
 900dae4:	0000 0000                                   ....

0900dae8 <trainer_party_x120_kaskada_clouds_trainer_1>:
	...
 900daf8:	0000 0022 0021 0000 0000 0000 0000 0000     ..".!...........
	...
 900db1c:	0000 0023 0039 0000 0000 0000 0000 0000     ..#.9...........
	...
 900db40:	0000 0021 011f 0000 0000 0000 0000 0000     ..!.............
 900db50:	0000 0000                                   ....

0900db54 <trainer_party_x11f_kaskada_clouds_trainer_0>:
	...
 900db64:	0000 0025 013f 0000 0000 0000 0000 0000     ..%.?...........
 900db74:	0000 0000                                   ....

0900db78 <trainer_party_x11e_route_4_clouds_trainer_1>:
	...
 900db88:	0000 0021 000b 0000 0000 0000 0000 0000     ..!.............
	...
 900dbac:	0000 0023 00c6 0000 0000 0000 0000 0000     ..#.............
	...
 900dbd0:	0000 0022 0136 0000 0000 0000 0000 0000     ..".6...........
 900dbe0:	0000 0000                                   ....

0900dbe4 <trainer_party_x11d_route_4_clouds_trainer_0>:
	...
 900dbf4:	0000 0022 0054 0000 0000 0000 0000 0000     ..".T...........
	...
 900dc18:	0000 0024 0166 0000 0000 0000 0000 0000     ..$.f...........
 900dc28:	0000 0000                                   ....

0900dc2c <trainer_party_x11c_inferior_clouds_trainer_0>:
	...
 900dc3c:	0000 0020 0167 0000 0000 0000 0000 0000     .. .g...........
 900dc4c:	0000 0000                                   ....

0900dc50 <trainer_party_x11b_route_6_clouds_trainer_1>:
	...
 900dc60:	0000 001f 000b 0000 0000 0000 0000 0000     ................
	...
 900dc84:	0000 0021 00a6 0000 0000 0000 0000 0000     ..!.............
 900dc94:	0000 0000                                   ....

0900dc98 <trainer_party_x11a_route_6_clouds_trainer_0>:
	...
 900dca8:	0000 0022 002e 0000 0000 0000 0000 0000     ..".............
	...
 900dccc:	0000 0021 018a 0000 0000 0000 0000 0000     ..!.............
	...
 900dcf0:	0000 0020 011f 0000 0000 0000 0000 0000     .. .............
 900dd00:	0000 0000                                   ....

0900dd04 <trainer_party_x119_orina_city_clouds_trainer_2>:
	...
 900dd14:	0000 001f 013f 0000 0000 0000 0000 0000     ....?...........
	...
 900dd38:	0000 0020 004b 0000 0000 0000 0000 0000     .. .K...........
 900dd48:	0000 0000                                   ....

0900dd4c <trainer_party_x118_orina_city_clouds_trainer_1>:
	...
 900dd5c:	0000 0022 0088 0000 0000 0000 0000 0000     ..".............
	...
 900dd80:	0000 0020 0152 0000 0000 0000 0000 0000     .. .R...........
	...
 900dda4:	0000 0024 00c8 0000 0000 0000 0000 0000     ..$.............
 900ddb4:	0000 0000                                   ....

0900ddb8 <trainer_party_x117_orina_city_clouds_trainer_0>:
	...
 900ddc8:	0000 0020 00ad 0000 0000 0000 0000 0000     .. .............
 900ddd8:	0000 0000                                   ....

0900dddc <trainer_party_x116_route_5_clouds_trainer_2>:
 900dddc:	0000 0300 0d40 1f1f 1f1f 1f1f fc04 fc00     ....@...........
 900ddec:	0000 0027 012e 00b3 00b6 000e 016e 0068     ..'.........n.h.
 900ddfc:	0000 0000 0000 0a00 0d40 1f1f 1f1f 1f1f     ........@.......
 900de0c:	0004 fc00 00fc 0029 012e 003a 007e 0198     ......)...:.~...
 900de1c:	005e 019a 0000 0000 0000 0300 0d40 1f1f     ^...........@...
 900de2c:	1f1f 1f1f fc04 fc00 0000 0029 012e 009e     ..........).....
 900de3c:	0168 016e 0174 0061 0000 0000 0000 0f00     h.n.t.a.........
 900de4c:	0d40 1f1f 1f1f 1f1f 0004 fc00 00fc 0029     @.............).
 900de5c:	0031 019b 0055 019a 0179 0056 0000 0000     1...U...y.V.....

0900de6c <trainer_party_x115_route_2_clouds_trainer_4>:
	...
 900de7c:	0000 0023 0131 0000 0000 0000 0000 0000     ..#.1...........
	...
 900dea0:	0000 0022 000a 0000 0000 0000 0000 0000     ..".............
	...
 900dec4:	0000 0022 0054 0000 0000 0000 0000 0000     ..".T...........
 900ded4:	0000 0000                                   ....

0900ded8 <trainer_party_x114_route_2_clouds_trainer_3>:
	...
 900dee8:	0000 0026 008e 0000 0000 0000 0000 0000     ..&.............
 900def8:	0000 0000                                   ....

0900defc <trainer_party_x113_route_2_clouds_trainer_2>:
	...
 900df0c:	0000 0022 0136 0000 0000 0000 0000 0000     ..".6...........
	...
 900df30:	0000 0023 0130 0000 0000 0000 0000 0000     ..#.0...........
	...
 900df54:	0000 0022 000b 0000 0000 0000 0000 0000     ..".............
 900df64:	0000 0000                                   ....

0900df68 <trainer_party_x112_route_2_clouds_trainer_1>:
	...
 900df78:	0000 0027 00a9 0000 0000 0000 0000 0000     ..'.............
 900df88:	0000 0000                                   ....

0900df8c <trainer_party_x111_route_2_clouds_trainer_0>:
	...
 900df9c:	0000 0024 00e3 0000 0000 0000 0000 0000     ..$.............
	...
 900dfc0:	0000 0025 0166 0000 0000 0000 0000 0000     ..%.f...........
 900dfd0:	0000 0000                                   ....

0900dfd4 <trainer_party_x110_route_12_trainer_20>:
	...
 900dfe4:	0000 0027 0136 0000 0000 0000 0000 0000     ..'.6...........
	...
 900e008:	0000 002a 0008 0000 0000 0000 0000 0000     ..*.............
	...
 900e02c:	0000 002a 0129 0000 0000 0000 0000 0000     ..*.)...........
 900e03c:	0000 0000                                   ....

0900e040 <trainer_party_x10f_route_12_trainer_19>:
	...
 900e050:	0000 0028 0049 0000 0000 0000 0000 0000     ..(.I...........
	...
 900e074:	0000 002a 00e0 0000 0000 0000 0000 0000     ..*.............
 900e084:	0000 0000                                   ....

0900e088 <trainer_party_x10e_route_12_trainer_18>:
	...
 900e098:	0000 0029 016d 0000 0000 0000 0000 0000     ..).m...........
	...
 900e0bc:	0000 002a 0039 0000 0000 0000 0000 0000     ..*.9...........
	...
 900e0e0:	0000 0029 00c1 0000 0000 0000 0000 0000     ..).............
 900e0f0:	0000 0000                                   ....

0900e0f4 <trainer_party_x10d_route_12_trainer_17>:
	...
 900e104:	0000 0029 014b 0000 0000 0000 0000 0000     ..).K...........
	...
 900e128:	0000 002a 006e 0000 0000 0000 0000 0000     ..*.n...........
 900e138:	0000 0000                                   ....

0900e13c <trainer_party_x10c_route_12_trainer_16>:
	...
 900e14c:	0000 0029 004c 0000 0000 0000 0000 0000     ..).L...........
	...
 900e170:	0000 002a 0171 0000 0000 0000 0000 0000     ..*.q...........
	...
 900e194:	0000 002a 002f 0000 0000 0000 0000 0000     ..*./...........
 900e1a4:	0000 0000                                   ....

0900e1a8 <trainer_party_x10b_route_12_trainer_15>:
	...
 900e1b8:	0000 0028 0076 0000 0000 0000 0000 0000     ..(.v...........
	...
 900e1dc:	0000 002a 009f 0000 0000 0000 0000 0000     ..*.............
 900e1ec:	0000 0000                                   ....

0900e1f0 <trainer_party_x10a_route_12_trainer_14>:
	...
 900e200:	0000 0028 00b8 0000 0000 0000 0000 0000     ..(.............
	...
 900e224:	0000 0027 0121 0000 0000 0000 0000 0000     ..'.!...........
	...
 900e248:	0000 0029 00df 0000 0000 0000 0000 0000     ..).............
 900e258:	0000 0000                                   ....

0900e25c <trainer_party_x109_route_12_trainer_13>:
	...
 900e26c:	0000 0029 003b 0000 0000 0000 0000 0000     ..).;...........
	...
 900e290:	0000 0029 0059 0000 0000 0000 0000 0000     ..).Y...........
 900e2a0:	0000 0000                                   ....

0900e2a4 <trainer_party_x108_route_12_trainer_12>:
	...
 900e2b4:	0000 0028 0048 0000 0000 0000 0000 0000     ..(.H...........
	...
 900e2d8:	0000 0027 0175 0000 0000 0000 0000 0000     ..'.u...........
	...
 900e2fc:	0000 0029 0076 0000 0000 0000 0000 0000     ..).v...........
 900e30c:	0000 0000                                   ....

0900e310 <trainer_party_x107_route_12_trainer_11>:
	...
 900e320:	0000 0029 0043 0000 0000 0000 0000 0000     ..).C...........
	...
 900e344:	0000 002a 0147 0000 0000 0000 0000 0000     ..*.G...........
 900e354:	0000 0000                                   ....

0900e358 <trainer_party_x106_route_12_trainer_10>:
	...
 900e368:	0000 0027 0139 0000 0000 0000 0000 0000     ..'.9...........
	...
 900e38c:	0000 002a 0075 0000 0000 0000 0000 0000     ..*.u...........
	...
 900e3b0:	0000 0029 0049 0000 0000 0000 0000 0000     ..).I...........
 900e3c0:	0000 0000                                   ....

0900e3c4 <trainer_party_x105_route_12_trainer_9>:
	...
 900e3d4:	0000 0027 0131 0000 0000 0000 0000 0000     ..'.1...........
	...
 900e3f8:	0000 002a 00b2 0000 0000 0000 0000 0000     ..*.............
 900e408:	0000 0000                                   ....

0900e40c <trainer_party_x104_route_12_trainer_8>:
	...
 900e41c:	0000 0024 0081 0000 0000 0000 0000 0000     ..$.............
	...
 900e440:	0000 0025 0048 0000 0000 0000 0000 0000     ..%.H...........
	...
 900e464:	0000 0026 0148 0000 0000 0000 0000 0000     ..&.H...........
	...
 900e488:	0000 002a 0082 0000 0000 0000 0000 0000     ..*.............
 900e498:	0000 0000                                   ....

0900e49c <trainer_party_x103_route_12_trainer_7>:
	...
 900e4ac:	0000 002b 0009 0000 0000 0000 0000 0000     ..+.............
 900e4bc:	0000 0000                                   ....

0900e4c0 <trainer_party_x102_route_12_trainer_6>:
	...
 900e4d0:	0000 0027 0136 0000 0000 0000 0000 0000     ..'.6...........
	...
 900e4f4:	0000 0029 0008 0000 0000 0000 0000 0000     ..).............
	...
 900e518:	0000 0028 0048 0000 0000 0000 0000 0000     ..(.H...........
 900e528:	0000 0000                                   ....

0900e52c <trainer_party_x101_route_12_trainer_5>:
	...
 900e53c:	0000 0029 011c 0000 0000 0000 0000 0000     ..).............
	...
 900e560:	0000 002a 013a 0000 0000 0000 0000 0000     ..*.:...........
 900e570:	0000 0000                                   ....

0900e574 <trainer_party_x100_route_12_trainer_4>:
	...
 900e584:	0000 0029 0077 0000 0000 0000 0000 0000     ..).w...........
	...
 900e5a8:	0000 0028 014a 0000 0000 0000 0000 0000     ..(.J...........
 900e5b8:	0000 0000                                   ....

0900e5bc <trainer_party_xff_route_12_trainer_3>:
	...
 900e5cc:	0000 002b 0012 0000 0000 0000 0000 0000     ..+.............
	...
 900e5f0:	0000 002c 0147 0000 0000 0000 0000 0000     ..,.G...........
	...
 900e614:	0000 002a 0165 0000 0000 0000 0000 0000     ..*.e...........
 900e624:	0000 0000                                   ....

0900e628 <trainer_party_xfe_route_12_trainer_2>:
	...
 900e638:	0000 002c 0082 0000 0000 0000 0000 0000     ..,.............
 900e648:	0000 0000                                   ....

0900e64c <trainer_party_xfd_route_12_trainer_1>:
	...
 900e65c:	0000 0029 0074 0000 0000 0000 0000 0000     ..).t...........
	...
 900e680:	0000 0028 0136 0000 0000 0000 0000 0000     ..(.6...........
	...
 900e6a4:	0000 0028 00ab 0000 0000 0000 0000 0000     ..(.............
 900e6b4:	0000 0000                                   ....

0900e6b8 <trainer_party_xfc_route_12_trainer_0>:
	...
 900e6c8:	0000 0028 007a 0000 0000 0000 0000 0000     ..(.z...........
	...
 900e6ec:	0000 002a 00bc 0000 0000 0000 0000 0000     ..*.............
 900e6fc:	0000 0000                                   ....

0900e700 <trainer_party_xf2_forest_cemetery_trainer_8>:
	...
 900e710:	0000 0029 0058 0000 0000 0000 0000 0000     ..).X...........
	...
 900e734:	0000 0028 006d 0000 0000 0000 0000 0000     ..(.m...........
 900e744:	0000 0000                                   ....

0900e748 <trainer_party_xf1_forest_cemetery_trainer_7>:
	...
 900e758:	0000 0026 0013 0000 0000 0000 0000 0000     ..&.............
	...
 900e77c:	0000 0027 0061 0000 0000 0000 0000 0000     ..'.a...........
	...
 900e7a0:	0000 0026 002a 0000 0000 0000 0000 0000     ..&.*...........
 900e7b0:	0000 0000                                   ....

0900e7b4 <trainer_party_xf0_forest_cemetery_trainer_6>:
	...
 900e7c4:	0000 002b 0018 0000 0000 0000 0000 0000     ..+.............
 900e7d4:	0000 0000                                   ....

0900e7d8 <trainer_party_xef_forest_cemetery_trainer_5>:
	...
 900e7e8:	0000 0026 0179 0000 0000 0000 0000 0000     ..&.y...........
	...
 900e80c:	0000 0028 005d 0000 0000 0000 0000 0000     ..(.]...........
 900e81c:	0000 0000                                   ....

0900e820 <trainer_party_xee_forest_cemetery_trainer_4>:
	...
 900e830:	0000 002c 00bd 0000 0000 0000 0000 0000     ..,.............
 900e840:	0000 0000                                   ....

0900e844 <trainer_party_xed_forest_cemetery_trainer_3>:
	...
 900e854:	0000 002a 00bc 0000 0000 0000 0000 0000     ..*.............
	...
 900e878:	0000 0029 0041 0000 0000 0000 0000 0000     ..).A...........
	...
 900e89c:	0000 002a 012c 0000 0000 0000 0000 0000     ..*.,...........
 900e8ac:	0000 0000                                   ....

0900e8b0 <trainer_party_xec_forest_cemetery_trainer_2>:
	...
 900e8c0:	0000 0027 017a 0000 0000 0000 0000 0000     ..'.z...........
	...
 900e8e4:	0000 0026 005c 0000 0000 0000 0000 0000     ..&.\...........
	...
 900e908:	0000 0026 00bb 0000 0000 0000 0000 0000     ..&.............
 900e918:	0000 0000                                   ....

0900e91c <trainer_party_xeb_forest_cemetery_trainer_1>:
	...
 900e92c:	0000 0028 00a8 0000 0000 0000 0000 0000     ..(.............
	...
 900e950:	0000 0026 007b 0000 0000 0000 0000 0000     ..&.{...........
 900e960:	0000 0000                                   ....

0900e964 <trainer_party_xea_forest_cemetery_trainer_0>:
	...
 900e974:	0000 0027 005d 0000 0000 0000 0000 0000     ..'.]...........
	...
 900e998:	0000 0026 0169 0000 0000 0000 0000 0000     ..&.i...........
	...
 900e9bc:	0000 0025 0017 0000 0000 0000 0000 0000     ..%.............
 900e9cc:	0000 0000                                   ....

0900e9d0 <trainer_party_xe9_route_11_trainer_8>:
	...
 900e9e0:	0000 0025 0081 0000 0000 0000 0000 0000     ..%.............
	...
 900ea04:	0000 0026 0048 0000 0000 0000 0000 0000     ..&.H...........
	...
 900ea28:	0000 0026 0076 0000 0000 0000 0000 0000     ..&.v...........
	...
 900ea4c:	0000 0026 014b 0000 0000 0000 0000 0000     ..&.K...........
 900ea5c:	0000 0000                                   ....

0900ea60 <trainer_party_xe8_route_11_trainer_7>:
	...
 900ea70:	0000 0026 0062 0000 0000 0000 0000 0000     ..&.b...........
	...
 900ea94:	0000 0027 0049 0000 0000 0000 0000 0000     ..'.I...........
 900eaa4:	0000 0000                                   ....

0900eaa8 <trainer_party_xe7_route_11_trainer_6>:
	...
 900eab8:	0000 0026 0175 0000 0000 0000 0000 0000     ..&.u...........
	...
 900eadc:	0000 0025 00b8 0000 0000 0000 0000 0000     ..%.............
	...
 900eb00:	0000 0025 0148 0000 0000 0000 0000 0000     ..%.H...........
 900eb10:	0000 0000                                   ....

0900eb14 <trainer_party_xe6_route_11_trainer_5>:
	...
 900eb24:	0000 0027 0040 0000 0000 0000 0000 0000     ..'.@...........
	...
 900eb48:	0000 0026 00b2 0000 0000 0000 0000 0000     ..&.............
 900eb58:	0000 0000                                   ....

0900eb5c <trainer_party_xe5_route_11_trainer_4>:
	...
 900eb6c:	0000 0026 005c 0000 0000 0000 0000 0000     ..&.\...........
	...
 900eb90:	0000 0025 0017 0000 0000 0000 0000 0000     ..%.............
	...
 900ebb4:	0000 0025 0179 0000 0000 0000 0000 0000     ..%.y...........
 900ebc4:	0000 0000                                   ....

0900ebc8 <trainer_party_xe4_route_11_trainer_3>:
	...
 900ebd8:	0000 0026 0139 0000 0000 0000 0000 0000     ..&.9...........
	...
 900ebfc:	0000 0026 0136 0000 0000 0000 0000 0000     ..&.6...........
 900ec0c:	0000 0000                                   ....

0900ec10 <trainer_party_xe3_route_11_trainer_2>:
	...
 900ec20:	0000 0028 0057 0000 0000 0000 0000 0000     ..(.W...........
 900ec30:	0000 0000                                   ....

0900ec34 <trainer_party_xe2_route_11_trainer_1>:
	...
 900ec44:	0000 0025 0152 0000 0000 0000 0000 0000     ..%.R...........
	...
 900ec68:	0000 0026 0054 0000 0000 0000 0000 0000     ..&.T...........
 900ec78:	0000 0000                                   ....

0900ec7c <trainer_party_xe1_route_11_trainer_0>:
	...
 900ec8c:	0000 0024 0076 0000 0000 0000 0000 0000     ..$.v...........
	...
 900ecb0:	0000 0025 0135 0000 0000 0000 0000 0000     ..%.5...........
	...
 900ecd4:	0000 0025 014a 0000 0000 0000 0000 0000     ..%.J...........
 900ece4:	0000 0000                                   ....

0900ece8 <trainer_party_xe0_route_10_trainer_8>:
	...
 900ecf8:	0000 0024 0136 0000 0000 0000 0000 0000     ..$.6...........
	...
 900ed1c:	0000 0025 0131 0000 0000 0000 0000 0000     ..%.1...........
	...
 900ed40:	0000 0025 0138 0000 0000 0000 0000 0000     ..%.8...........
 900ed50:	0000 0000                                   ....

0900ed54 <trainer_party_xdf_route_10_trainer_7>:
	...
 900ed64:	0000 0026 0044 0000 0000 0000 0000 0000     ..&.D...........
 900ed74:	0000 0000                                   ....

0900ed78 <trainer_party_xde_route_10_trainer_6>:
	...
 900ed88:	0000 0025 005b 0000 0000 0000 0000 0000     ..%.[...........
	...
 900edac:	0000 0023 0062 0000 0000 0000 0000 0000     ..#.b...........
	...
 900edd0:	0000 0023 0135 0000 0000 0000 0000 0000     ..#.5...........
 900ede0:	0000 0000                                   ....

0900ede4 <trainer_party_xdd_route_10_trainer_5>:
	...
 900edf4:	0000 0024 00b7 0000 0000 0000 0000 0000     ..$.............
	...
 900ee18:	0000 0025 014a 0000 0000 0000 0000 0000     ..%.J...........
	...
 900ee3c:	0000 0024 0048 0000 0000 0000 0000 0000     ..$.H...........
 900ee4c:	0000 0000                                   ....

0900ee50 <trainer_party_xdc_route_10_trainer_4>:
	...
 900ee60:	0000 0024 0054 0000 0000 0000 0000 0000     ..$.T...........
	...
 900ee84:	0000 0026 0043 0000 0000 0000 0000 0000     ..&.C...........
 900ee94:	0000 0000                                   ....

0900ee98 <trainer_party_xdb_route_10_trainer_3>:
	...
 900eea8:	0000 0027 014b 0000 0000 0000 0000 0000     ..'.K...........
 900eeb8:	0000 0000                                   ....

0900eebc <trainer_party_xda_route_10_trainer_2>:
	...
 900eecc:	0000 0023 014a 0000 0000 0000 0000 0000     ..#.J...........
	...
 900eef0:	0000 0026 0056 0000 0000 0000 0000 0000     ..&.V...........
 900ef00:	0000 0000                                   ....

0900ef04 <trainer_party_xd9_route_10_trainer_1>:
	...
 900ef14:	0000 0024 0081 0000 0000 0000 0000 0000     ..$.............
	...
 900ef38:	0000 0025 0074 0000 0000 0000 0000 0000     ..%.t...........
	...
 900ef5c:	0000 0025 0082 0000 0000 0000 0000 0000     ..%.............
 900ef6c:	0000 0000                                   ....

0900ef70 <trainer_party_xd8_route_10_trainer_0>:
	...
 900ef80:	0000 0026 0079 0000 0000 0000 0000 0000     ..&.y...........
 900ef90:	0000 0000                                   ....

0900ef94 <trainer_party_xd7_route_9_trainer_13>:
	...
 900efa4:	0000 0024 005a 0000 0000 0000 0000 0000     ..$.Z...........
	...
 900efc8:	0000 0025 0049 0000 0000 0000 0000 0000     ..%.I...........
 900efd8:	0000 0000                                   ....

0900efdc <trainer_party_xd6_route_9_trainer_12>:
	...
 900efec:	0000 0024 0139 0000 0000 0000 0000 0000     ..$.9...........
	...
 900f010:	0000 0023 0063 0000 0000 0000 0000 0000     ..#.c...........
	...
 900f034:	0000 0025 0136 0000 0000 0000 0000 0000     ..%.6...........
 900f044:	0000 0000                                   ....

0900f048 <trainer_party_xd5_route_9_trainer_11>:
	...
 900f058:	0000 0024 0056 0000 0000 0000 0000 0000     ..$.V...........
	...
 900f07c:	0000 0025 0048 0000 0000 0000 0000 0000     ..%.H...........
 900f08c:	0000 0000                                   ....

0900f090 <trainer_party_xd4_route_9_trainer_10>:
	...
 900f0a0:	0000 0028 0077 0000 0000 0000 0000 0000     ..(.w...........
 900f0b0:	0000 0000                                   ....

0900f0b4 <trainer_party_xd3_route_9_trainer_9>:
	...
 900f0c4:	0000 0023 00b8 0000 0000 0000 0000 0000     ..#.............
	...
 900f0e8:	0000 0024 0155 0000 0000 0000 0000 0000     ..$.U...........
	...
 900f10c:	0000 0025 0076 0000 0000 0000 0000 0000     ..%.v...........
 900f11c:	0000 0000                                   ....

0900f120 <trainer_party_xd2_route_9_trainer_8>:
	...
 900f130:	0000 0021 0148 0000 0000 0000 0000 0000     ..!.H...........
	...
 900f154:	0000 0025 0082 0000 0000 0000 0000 0000     ..%.............
 900f164:	0000 0000                                   ....

0900f168 <trainer_party_xd1_route_9_trainer_7>:
	...
 900f178:	0000 0025 011c 0000 0000 0000 0000 0000     ..%.............
	...
 900f19c:	0000 0026 014b 0000 0000 0000 0000 0000     ..&.K...........
	...
 900f1c0:	0000 0025 0135 0000 0000 0000 0000 0000     ..%.5...........
 900f1d0:	0000 0000                                   ....

0900f1d4 <trainer_party_xd0_route_9_trainer_6>:
	...
 900f1e4:	0000 0029 013a 0000 0000 0000 0000 0000     ..).:...........
 900f1f4:	0000 0000                                   ....

0900f1f8 <trainer_party_xcf_route_9_trainer_5>:
	...
 900f208:	0000 0026 0055 0000 0000 0000 0000 0000     ..&.U...........
	...
 900f22c:	0000 0025 0165 0000 0000 0000 0000 0000     ..%.e...........
	...
 900f250:	0000 0025 0152 0000 0000 0000 0000 0000     ..%.R...........
 900f260:	0000 0000                                   ....

0900f264 <trainer_party_xce_route_9_trainer_4>:
	...
 900f274:	0000 0026 014a 0000 0000 0000 0000 0000     ..&.J...........
	...
 900f298:	0000 0025 0079 0000 0000 0000 0000 0000     ..%.y...........
	...
 900f2bc:	0000 0026 0139 0000 0000 0000 0000 0000     ..&.9...........
 900f2cc:	0000 0000                                   ....

0900f2d0 <trainer_party_xcd_route_9_trainer_3>:
	...
 900f2e0:	0000 0026 0177 0000 0000 0000 0000 0000     ..&.w...........
	...
 900f304:	0000 0026 0176 0000 0000 0000 0000 0000     ..&.v...........
 900f314:	0000 0000                                   ....

0900f318 <trainer_party_xcc_route_9_trainer_2>:
	...
 900f328:	0000 0024 0136 0000 0000 0000 0000 0000     ..$.6...........
	...
 900f34c:	0000 0025 0078 0000 0000 0000 0000 0000     ..%.x...........
	...
 900f370:	0000 0027 0008 0000 0000 0000 0000 0000     ..'.............
 900f380:	0000 0000                                   ....

0900f384 <trainer_party_xcb_route_9_trainer_1>:
	...
 900f394:	0000 0026 00b7 0000 0000 0000 0000 0000     ..&.............
	...
 900f3b8:	0000 0025 009e 0000 0000 0000 0000 0000     ..%.............
 900f3c8:	0000 0000                                   ....

0900f3cc <trainer_party_xcA_route_9_trainer_0>:
	...
 900f3dc:	0000 0026 0048 0000 0000 0000 0000 0000     ..&.H...........
	...
 900f400:	0000 0025 0139 0000 0000 0000 0000 0000     ..%.9...........
	...
 900f424:	0000 0026 0075 0000 0000 0000 0000 0000     ..&.u...........
 900f434:	0000 0000                                   ....

0900f438 <trainer_party_xc9_route_8_trainer_4>:
	...
 900f448:	0000 0028 0165 0000 0000 0000 0000 0000     ..(.e...........
 900f458:	0000 0000                                   ....

0900f45c <trainer_party_xc8_route_8_trainer_3>:
	...
 900f46c:	0000 0012 00af 0000 0000 0000 0000 0000     ................
	...
 900f490:	0000 0012 00de 0000 0000 0000 0000 0000     ................
	...
 900f4b4:	0000 0013 00b7 0000 0000 0000 0000 0000     ................
	...
 900f4d8:	0000 0012 00f0 0000 0000 0000 0000 0000     ................
	...
 900f4fc:	0000 0013 0183 0000 0000 0000 0000 0000     ................
 900f50c:	0000 0000                                   ....

0900f510 <trainer_party_xc7_route_8_trainer_2>:
	...
 900f520:	0000 0015 007b 0000 0000 0000 0000 0000     ....{...........
	...
 900f544:	0000 0015 00a7 0000 0000 0000 0000 0000     ................
 900f554:	0000 0000                                   ....

0900f558 <trainer_party_xc6_route_8_trainer_1>:
	...
 900f568:	0000 0014 0076 0000 0000 0000 0000 0000     ....v...........
	...
 900f58c:	0000 0016 0143 0000 0000 0000 0000 0000     ....C...........
	...
 900f5b0:	0000 0015 0148 0000 0000 0000 0000 0000     ....H...........
 900f5c0:	0000 0000                                   ....

0900f5c4 <trainer_party_xc5_route_8_trainer_0>:
	...
 900f5d4:	0000 0015 00ec 0000 0000 0000 0000 0000     ................
	...
 900f5f8:	0000 0017 0042 0000 0000 0000 0000 0000     ....B...........
 900f608:	0000 0000                                   ....

0900f60c <trainer_party_xc4_inferior_gymleader>:
 900f60c:	0000 0300 0f40 1313 1313 1313 fc04 fc00     ....@...........
 900f61c:	0000 0029 000c 00d2 0170 016a 00d3 013b     ..).....p.j...;.
 900f62c:	0000 0000 0000 0f00 0d40 1313 1313 1313     ........@.......
 900f63c:	0004 fc00 00fc 0028 0006 00b4 013b 013a     ......(.....;.:.
 900f64c:	004c 00f1 0000 0000 0000 0300 0d40 1313     L...........@...
 900f65c:	1313 1313 fc04 fc00 0000 002a 003b 008b     ..........*.;...
 900f66c:	00f5 00f2 016a 013b 0000 0000 0000 0f00     ....j.;.........
 900f67c:	0d40 1313 1313 1313 0004 fc00 00fc 002c     @.............,.
 900f68c:	0141 008e 013b 0167 0055 005e 0000 0000     A...;.g.U.^.....

0900f69c <trainer_party_xc3_inferior_gym>:
	...
 900f6ac:	0000 0028 0006 0000 0000 0000 0000 0000     ..(.............
 900f6bc:	0000 0000                                   ....

0900f6c0 <trainer_party_xc2_inferior_gym>:
	...
 900f6d0:	0000 0022 00db 0000 0000 0000 0000 0000     ..".............
	...
 900f6f4:	0000 0023 003a 0000 0000 0000 0000 0000     ..#.:...........
	...
 900f718:	0000 0023 0005 0000 0000 0000 0000 0000     ..#.............
 900f728:	0000 0000                                   ....

0900f72c <trainer_party_xc1_inferior_gym>:
	...
 900f73c:	0000 0023 0026 0000 0000 0000 0000 0000     ..#.&...........
	...
 900f760:	0000 0026 009c 0000 0000 0000 0000 0000     ..&.............
 900f770:	0000 0000                                   ....

0900f774 <trainer_party_xc0_inferior_gym>:
	...
 900f784:	0000 0027 0154 0000 0000 0000 0000 0000     ..'.T...........
 900f794:	0000 0000                                   ....

0900f798 <trainer_party_xbf_inferior_gym>:
	...
 900f7a8:	0000 0024 000b 0000 0000 0000 0000 0000     ..$.............
	...
 900f7cc:	0000 0023 0153 0000 0000 0000 0000 0000     ..#.S...........
	...
 900f7f0:	0000 0024 007e 0000 0000 0000 0000 0000     ..$.~...........
 900f800:	0000 0000                                   ....

0900f804 <trainer_party_xbe>:
 900f804:	0000 0a00 0d40 1111 1111 1111 0004 fc00     ....@...........
 900f814:	00fc 0027 0006 00d7 0035 0013 009d 016d     ..'.....5.....m.
 900f824:	0000 0000 0000 0300 0d40 1111 1111 1111     ........@.......
 900f834:	fc04 fc00 0000 0026 00b8 00db 018c 0177     ......&.......w.
 900f844:	0114 0008 0000 0000 0000 0300 0d40 1111     ............@...
 900f854:	1111 1111 fcfc 0400 0000 0029 0117 008e     ..........).....
 900f864:	017e 0186 00a3 000e 0000 0000 0000 0300     ~...............
 900f874:	0d40 1111 1111 1111 fcfc 0400 0000 0028     @.............(.
 900f884:	0094 00a3 0056 0055 0180 0039 0000 0000     ....V.U...9.....

0900f894 <trainer_party_xbd>:
 900f894:	0000 0f00 0d40 1111 1111 1111 00fc 0400     ....@...........
 900f8a4:	00fc 0027 0003 00cd 004f 0049 00eb 00ca     ..'.....O.I.....
 900f8b4:	0000 0000 0000 0a00 0d40 1111 1111 1111     ........@.......
 900f8c4:	0004 fc00 00fc 0026 007e 0182 0035 006d     ......&.~...5.m.
 900f8d4:	0167 0000 0000 0000 0000 0f00 0d40 1111     g...........@...
 900f8e4:	1111 1111 0004 fc00 00fc 0029 011d 008e     ..........).....
 900f8f4:	0185 0180 0169 00e7 0000 0000 0000 0300     ....i...........
 900f904:	0d40 1111 1111 1111 fc04 fc00 0000 0028     @.............(.
 900f914:	018c 00a3 0151 00b6 0024 0034 0000 0000     ....Q...$.4.....

0900f924 <trainer_party_xbc>:
 900f924:	0000 0f00 0d40 1111 1111 1111 00fc 0400     ....@...........
 900f934:	00fc 0027 0009 00d1 003a 0039 0082 0165     ..'.....:.9...e.
 900f944:	0000 0000 0000 0f00 0d40 1111 1111 1111     ........@.......
 900f954:	00fc 0400 00fc 0026 0067 00fd 005e 0073     ......&.g...^.s.
 900f964:	0071 0179 0000 0000 0000 0f00 0d40 1111     q.y.........@...
 900f974:	1111 1111 0004 fc00 00fc 0029 011a 008e     ..........).....
 900f984:	0184 0169 0146 0062 0000 0000 0000 0300     ..i.F.b.........
 900f994:	0d40 1111 1111 1111 fc04 fc00 0000 0028     @.............(.
 900f9a4:	0173 00a3 0021 0151 009d 00a3 0000 0000     s...!.Q.........

0900f9b4 <trainer_party_xbb>:
 900f9b4:	0000 0a00 0d40 0b0b 0b0b 0b0b 0004 fc00     ....@...........
 900f9c4:	00fc 0014 0005 0000 00e8 0007 015d 009d     ............]...
 900f9d4:	0000 0000 0000 0300 0d40 0b0b 0b0b 0b0b     ........@.......
 900f9e4:	fcfc 0400 0000 0015 0116 008e 015c 010b     ............\...
 900f9f4:	014e 0118 0000 0000 0000 0300 0d40 0b0b     N...........@...
 900fa04:	0b0b 0b0b fc04 fc00 0000 0013 00b7 0000     ................
 900fa14:	0008 0183 018c 005b 0000 0000               ......[.....

0900fa20 <trainer_party_xba>:
 900fa20:	0000 0f00 0d40 0b0b 0b0b 0b0b 00fc 0400     ....@...........
 900fa30:	00fc 0014 0002 0000 004f 0049 0033 0179     ........O.I.3.y.
 900fa40:	0000 0000 0000 0f00 0d40 0b0b 0b0b 0b0b     ........@.......
 900fa50:	0004 fc00 00fc 0015 011c 008e 00b9 003e     ..............>.
 900fa60:	0160 006d 0000 0000 0000 0e00 0d40 0b0b     `.m.........@...
 900fa70:	0b0b 0b0b fc00 0400 00fc 0013 00f0 0000     ................
 900fa80:	0034 0009 0118 00b9 0000 0000               4...........

0900fa8c <trainer_party_xb9>:
 900fa8c:	0000 0f00 0d40 0b0b 0b0b 0b0b 00fc 0400     ....@...........
 900fa9c:	00fc 0014 0008 0000 0160 003e 0165 0000     ........`.>.e...
 900faac:	0000 0000 0000 0f00 0d40 0b0b 0b0b 0b0b     ........@.......
 900fabc:	0004 fc00 00fc 0015 0119 008e 0034 002c     ............4.,.
 900facc:	000f 000a 0000 0000 0000 0f00 0d40 0b0b     ............@...
 900fadc:	0b0b 0b0b 00fc 0400 00fc 0013 0066 0000     ............f...
 900faec:	0048 005d 005f 0073 0000 0000               H.]._.s.....

0900faf8 <trainer_party_xb5>:
 900faf8:	0000 0300 0440 0000 0000 0000 fcfc 0400     ....@...........
 900fb08:	0000 0005 0115 0000 0000 0000 0000 0000     ................
 900fb18:	0000 0000 0000 0a00 0440 0000 0000 0000     ........@.......
 900fb28:	0004 fc00 00fc 0005 0004 0000 0000 0000     ................
	...

0900fb40 <trainer_party_xb4>:
 900fb40:	0000 0f00 0440 0000 0000 0000 0004 fc00     ....@...........
 900fb50:	00fc 0005 011b 0000 0000 0000 0000 0000     ................
 900fb60:	0000 0000 0000 0f00 0440 0000 0000 0000     ........@.......
 900fb70:	00fc 0400 00fc 0005 0001 0000 0000 0000     ................
	...

0900fb88 <trainer_party_xb3>:
 900fb88:	0000 0f00 0440 0000 0000 0000 0004 fc00     ....@...........
 900fb98:	00fc 0005 0118 0000 0000 0000 0000 0000     ................
 900fba8:	0000 0000 0000 0f00 0440 0000 0000 0000     ........@.......
 900fbb8:	00fc 0400 00fc 0005 0007 0000 0000 0000     ................
	...

0900fbd0 <trainer_party_xb8>:
 900fbd0:	0000 0300 0d40 0b0b 0b0b 0b0b fc04 fc00     ....@...........
 900fbe0:	0000 0026 00d6 0096 00e0 0174 016f 0108     ..&.......t.o...
 900fbf0:	0000 0000 0000 0d00 0d40 0b0b 0b0b 0b0b     ........@.......
 900fc00:	fc04 fc00 0000 0026 0165 0000 0178 0153     ......&.e...x.S.
 900fc10:	0108 0118 0000 0000 0000 0300 0d40 0b0b     ............@...
 900fc20:	0b0b 0b0b fcfc 0400 0000 0025 0044 00cf     ..........%.D...
 900fc30:	00df 016f 0059 0009 0000 0000 0000 0300     ..o.Y...........
 900fc40:	0d40 0b0b 0b0b 0b0b fcfc 0400 0000 0025     @.............%.
 900fc50:	0039 00c4 0108 00d5 017d 016f 0000 0000     9.......}.o.....
 900fc60:	0000 0300 0d40 0b0b 0b0b 0b0b fc04 fc00     ....@...........
 900fc70:	0000 0027 0150 009e 0174 016f 0059 0168     ..'.P...t.o.Y.h.
 900fc80:	0000 0000                                   ....

0900fc84 <trainer_party_xb2>:
	...
 900fc94:	0000 0026 001f 0000 0000 0000 0000 0000     ..&.............
	...
 900fcb8:	0000 0025 00a9 0000 0000 0000 0000 0000     ..%.............
	...
 900fcdc:	0000 0025 007c 0000 0000 0000 0000 0000     ..%.|...........
 900fcec:	0000 0000                                   ....

0900fcf0 <trainer_party_xb1>:
	...
 900fd00:	0000 0022 00c6 0000 0000 0000 0000 0000     ..".............
	...
 900fd24:	0000 0023 011f 0000 0000 0000 0000 0000     ..#.............
	...
 900fd48:	0000 0021 0052 0000 0000 0000 0000 0000     ..!.R...........
 900fd58:	0000 0000                                   ....

0900fd5c <trainer_party_xb0>:
	...
 900fd6c:	0000 0022 0040 0000 0000 0000 0000 0000     ..".@...........
	...
 900fd90:	0000 0023 0058 0000 0000 0000 0000 0000     ..#.X...........
 900fda0:	0000 0000                                   ....

0900fda4 <trainer_party_xaf>:
	...
 900fdb4:	0000 0026 013f 0000 0000 0000 0000 0000     ..&.?...........
	...
 900fdd8:	0000 0026 003d 0000 0000 0000 0000 0000     ..&.=...........
 900fde8:	0000 0000                                   ....

0900fdec <trainer_party_xae>:
	...
 900fdfc:	0000 0025 0049 0000 0000 0000 0000 0000     ..%.I...........
	...
 900fe20:	0000 0024 00b5 0000 0000 0000 0000 0000     ..$.............
	...
 900fe44:	0000 0025 0159 0000 0000 0000 0000 0000     ..%.Y...........
 900fe54:	0000 0000                                   ....

0900fe58 <trainer_party_xad>:
	...
 900fe68:	0000 0022 015f 0000 0000 0000 0000 0000     .."._...........
	...
 900fe8c:	0000 0023 0060 0000 0000 0000 0000 0000     ..#.`...........
	...
 900feb0:	0000 0023 0013 0000 0000 0000 0000 0000     ..#.............
 900fec0:	0000 0000                                   ....

0900fec4 <trainer_party_xac>:
	...
 900fed4:	0000 0022 00da 0000 0000 0000 0000 0000     ..".............
	...
 900fef8:	0000 0022 00e4 0000 0000 0000 0000 0000     ..".............
	...
 900ff1c:	0000 0022 0153 0000 0000 0000 0000 0000     ..".S...........
 900ff2c:	0000 0000                                   ....

0900ff30 <trainer_party_xab>:
	...
 900ff40:	0000 0021 0025 0000 0000 0000 0000 0000     ..!.%...........
	...
 900ff64:	0000 0022 0005 0000 0000 0000 0000 0000     ..".............
	...
 900ff88:	0000 0020 0119 0000 0000 0000 0000 0000     .. .............
	...
 900ffac:	0000 0023 007e 0000 0000 0000 0000 0000     ..#.~...........
 900ffbc:	0000 0000                                   ....

0900ffc0 <trainer_party_xaa>:
 900ffc0:	0000 0000 0100 0000 0000 0000 0000 0000     ................
 900ffd0:	0000 0032 0195 00ee 007e 0059 004c 003f     ..2.....~.Y.L.?.
 900ffe0:	0000 0000 0000 0300 0d40 1313 1313 1313     ........@.......
 900fff0:	fc04 fc00 0000 002d 00c8 00ce 017d 0013     ......-.....}...
 9010000:	00d3 0114 0000 0000                         ........

09010008 <trainer_party_xa9>:
	...
 9010018:	0000 002a 00d9 0000 0000 0000 0000 0000     ..*.............
	...
 901003c:	0000 002b 00b2 0000 0000 0000 0000 0000     ..+.............
	...
 9010060:	0000 002a 011c 0000 0000 0000 0000 0000     ..*.............
 9010070:	0000 0000                                   ....

09010074 <trainer_party_xa8>:
	...
 9010084:	0000 002a 017f 0000 0000 0000 0000 0000     ..*.............
 9010094:	0000 0000                                   ....

09010098 <trainer_party_xa7>:
 9010098:	0000 0000 0100 0000 0000 0000 0000 0000     ................
 90100a8:	0000 001b 00bc 0000 0199 0000 0000 0000     ................
 90100b8:	0000 0000 0000 0a00 0540 0000 0000 0000     ........@.......
 90100c8:	0004 fc00 00fc 001c 00bc 0000 0199 0000     ................
	...

090100e0 <trainer_party_xa6>:
	...
 90100f0:	0000 0029 001e 0000 0000 0000 0000 0000     ..).............
 9010100:	0000 0000                                   ....

09010104 <trainer_party_xa5>:
	...
 9010114:	0000 0027 00c6 0000 0000 0000 0000 0000     ..'.............
	...
 9010138:	0000 0028 011f 0000 0000 0000 0000 0000     ..(.............
 9010148:	0000 0000                                   ....

0901014c <trainer_party_xa4>:
	...
 901015c:	0000 0026 00e4 0000 0000 0000 0000 0000     ..&.............
	...
 9010180:	0000 0025 011f 0000 0000 0000 0000 0000     ..%.............
	...
 90101a4:	0000 0026 015f 0000 0000 0000 0000 0000     ..&._...........
 90101b4:	0000 0000                                   ....

090101b8 <trainer_party_xa3>:
	...
 90101c8:	0000 0027 0060 0000 0000 0000 0000 0000     ..'.`...........
	...
 90101ec:	0000 0026 002a 0000 0000 0000 0000 0000     ..&.*...........
 90101fc:	0000 0000                                   ....

09010200 <trainer_party_xa2>:
	...
 9010210:	0000 0026 006d 0000 0000 0000 0000 0000     ..&.m...........
	...
 9010234:	0000 0025 0119 0000 0000 0000 0000 0000     ..%.............
 9010244:	0000 0000                                   ....

09010248 <trainer_party_xa1>:
	...
 9010258:	0000 0027 0032 0000 0000 0000 0000 0000     ..'.2...........
	...
 901027c:	0000 0025 0153 0000 0000 0000 0000 0000     ..%.S...........
	...
 90102a0:	0000 0024 00e4 0000 0000 0000 0000 0000     ..$.............
	...
 90102c4:	0000 0024 013e 0000 0000 0000 0000 0000     ..$.>...........
 90102d4:	0000 0000                                   ....

090102d8 <trainer_party_xa0>:
	...
 90102e8:	0000 0026 004b 0000 0000 0000 0000 0000     ..&.K...........
	...
 901030c:	0000 0027 00da 0000 0000 0000 0000 0000     ..'.............
 901031c:	0000 0000                                   ....

09010320 <trainer_party_x9f>:
	...
 9010330:	0000 0023 0017 0000 0000 0000 0000 0000     ..#.............
	...
 9010354:	0000 0024 001d 0000 0000 0000 0000 0000     ..$.............
	...
 9010378:	0000 0022 00a5 0000 0000 0000 0000 0000     ..".............
	...
 901039c:	0000 0021 0134 0000 0000 0000 0000 0000     ..!.4...........
	...
 90103c0:	0000 0023 006f 0000 0000 0000 0000 0000     ..#.o...........
	...
 90103e4:	0000 0023 0163 0000 0000 0000 0000 0000     ..#.c...........
 90103f4:	0000 0000                                   ....

090103f8 <trainer_party_x9e>:
	...
 9010408:	0000 0026 011f 0000 0000 0000 0000 0000     ..&.............
	...
 901042c:	0000 0026 0059 0000 0000 0000 0000 0000     ..&.Y...........
 901043c:	0000 0000                                   ....

09010440 <trainer_party_x9d>:
	...
 9010450:	0000 0027 013c 0000 0000 0000 0000 0000     ..'.<...........
	...
 9010474:	0000 0026 0023 0000 0000 0000 0000 0000     ..&.#...........
 9010484:	0000 0000                                   ....

09010488 <trainer_party_x9c>:
	...
 9010498:	0000 0026 0154 0000 0000 0000 0000 0000     ..&.T...........
	...
 90104bc:	0000 0028 001f 0000 0000 0000 0000 0000     ..(.............
	...
 90104e0:	0000 0029 0165 0000 0000 0000 0000 0000     ..).e...........
 90104f0:	0000 0000                                   ....

090104f4 <trainer_party_x9b>:
	...
 9010504:	0000 0005 015e 0000 0000 0000 0000 0000     ....^...........
 9010514:	0000 0000                                   ....

09010518 <trainer_party_x9a>:
	...
 9010528:	0000 0025 004b 0000 0000 0000 0000 0000     ..%.K...........
	...
 901054c:	0000 0026 005f 0000 0000 0000 0000 0000     ..&._...........
	...
 9010570:	0000 0027 00da 0000 0000 0000 0000 0000     ..'.............
	...
 9010594:	0000 0026 003a 0000 0000 0000 0000 0000     ..&.:...........
 90105a4:	0000 0000                                   ....

090105a8 <trainer_party_x99>:
	...
 90105b8:	0000 0026 0153 0000 0000 0000 0000 0000     ..&.S...........
	...
 90105dc:	0000 0025 003a 0000 0000 0000 0000 0000     ..%.:...........
 90105ec:	0000 0000                                   ....

090105f0 <trainer_party_x98>:
	...
 9010600:	0000 0027 003b 0000 0000 0000 0000 0000     ..'.;...........
	...
 9010624:	0000 0026 00d2 0000 0000 0000 0000 0000     ..&.............
	...
 9010648:	0000 0024 00e3 0000 0000 0000 0000 0000     ..$.............
 9010658:	0000 0000                                   ....

0901065c <trainer_party_x97>:
	...
 901066c:	0000 0026 0119 0000 0000 0000 0000 0000     ..&.............
	...
 9010690:	0000 0026 0052 0000 0000 0000 0000 0000     ..&.R...........
 90106a0:	0000 0000                                   ....

090106a4 <trainer_party_x96>:
	...
 90106b4:	0000 0028 00e5 0000 0000 0000 0000 0000     ..(.............
 90106c4:	0000 0000                                   ....

090106c8 <trainer_party_x95>:
	...
 90106d8:	0000 0024 0153 0000 0000 0000 0000 0000     ..$.S...........
	...
 90106fc:	0000 0023 00da 0000 0000 0000 0000 0000     ..#.............
	...
 9010720:	0000 0025 007e 0000 0000 0000 0000 0000     ..%.~...........
	...
 9010744:	0000 0025 004b 0000 0000 0000 0000 0000     ..%.K...........
 9010754:	0000 0000                                   ....

09010758 <trainer_party_x94>:
	...
 9010768:	0000 0026 0189 0000 0000 0000 0000 0000     ..&.............
	...
 901078c:	0000 0026 0025 0000 0000 0000 0000 0000     ..&.%...........
 901079c:	0000 0000                                   ....

090107a0 <trainer_party_x93>:
	...
 90107b0:	0000 0025 001c 0000 0000 0000 0000 0000     ..%.............
	...
 90107d4:	0000 0026 0025 0000 0000 0000 0000 0000     ..&.%...........
	...
 90107f8:	0000 0026 00f0 0000 0000 0000 0000 0000     ..&.............
 9010808:	0000 0000                                   ....

0901080c <trainer_party_x92>:
	...
 901081c:	0000 0025 0005 0000 0000 0000 0000 0000     ..%.............
	...
 9010840:	0000 0027 0153 0000 0000 0000 0000 0000     ..'.S...........
 9010850:	0000 0000                                   ....

09010854 <trainer_party_x91>:
	...
 9010864:	0000 0028 0082 0000 0000 0000 0000 0000     ..(.............
	...
 9010888:	0000 0028 00ca 0000 0000 0000 0000 0000     ..(.............
	...
 90108ac:	0000 0028 013f 0000 0000 0000 0000 0000     ..(.?...........
 90108bc:	0000 0000                                   ....

090108c0 <trainer_party_x90>:
	...
 90108d0:	0000 0026 0059 0000 0000 0000 0000 0000     ..&.Y...........
 90108e0:	0000 0000                                   ....

090108e4 <trainer_party_x8f>:
	...
 90108f4:	0000 0025 00e4 0000 0000 0000 0000 0000     ..%.............
	...
 9010918:	0000 0024 005d 0000 0000 0000 0000 0000     ..$.]...........
 9010928:	0000 0000                                   ....

0901092c <trainer_party_x8e>:
	...
 901093c:	0000 0026 0040 0000 0000 0000 0000 0000     ..&.@...........
 901094c:	0000 0000                                   ....

09010950 <trainer_party_x8d>:
	...
 9010960:	0000 0020 002a 0000 0000 0000 0000 0000     .. .*...........
	...
 9010984:	0000 0021 0165 0000 0000 0000 0000 0000     ..!.e...........
	...
 90109a8:	0000 001f 0179 0000 0000 0000 0000 0000     ....y...........
 90109b8:	0000 0000                                   ....

090109bc <trainer_party_x8c>:
	...
 90109cc:	0000 0024 015d 0000 0000 0000 0000 0000     ..$.]...........
	...
 90109f0:	0000 0024 015c 0000 0000 0000 0000 0000     ..$.\...........
 9010a00:	0000 0000                                   ....

09010a04 <trainer_party_x8b>:
	...
 9010a14:	0000 0026 0140 0000 0000 0000 0000 0000     ..&.@...........
	...
 9010a38:	0000 0025 016f 0000 0000 0000 0000 0000     ..%.o...........
 9010a48:	0000 0000                                   ....

09010a4c <trainer_party_x8a>:
	...
 9010a5c:	0000 0025 0181 0000 0000 0000 0000 0000     ..%.............
 9010a6c:	0000 0000                                   ....

09010a70 <trainer_party_x89>:
	...
 9010a80:	0000 0023 0055 0000 0000 0000 0000 0000     ..#.U...........
	...
 9010aa4:	0000 0022 00c6 0000 0000 0000 0000 0000     ..".............
 9010ab4:	0000 0000                                   ....

09010ab8 <trainer_party_x88>:
	...
 9010ac8:	0000 0024 0124 0000 0000 0000 0000 0000     ..$.$...........
	...
 9010aec:	0000 0024 007b 0000 0000 0000 0000 0000     ..$.{...........
 9010afc:	0000 0000                                   ....

09010b00 <trainer_party_x87>:
	...
 9010b10:	0000 0024 0012 0000 0000 0000 0000 0000     ..$.............
	...
 9010b34:	0000 0025 00ce 0000 0000 0000 0000 0000     ..%.............
	...
 9010b58:	0000 0025 0159 0000 0000 0000 0000 0000     ..%.Y...........
 9010b68:	0000 0000                                   ....

09010b6c <trainer_party_x86>:
	...
 9010b7c:	0000 0024 00e4 0000 0000 0000 0000 0000     ..$.............
	...
 9010ba0:	0000 0025 0152 0000 0000 0000 0000 0000     ..%.R...........
 9010bb0:	0000 0000                                   ....

09010bb4 <trainer_party_x85>:
	...
 9010bc4:	0000 0024 013e 0000 0000 0000 0000 0000     ..$.>...........
	...
 9010be8:	0000 0023 0013 0000 0000 0000 0000 0000     ..#.............
 9010bf8:	0000 0000                                   ....

09010bfc <trainer_party_x84>:
	...
 9010c0c:	0000 0020 013c 0000 0000 0000 0000 0000     .. .<...........
	...
 9010c30:	0000 0020 0052 0000 0000 0000 0000 0000     .. .R...........
	...
 9010c54:	0000 0020 00b8 0000 0000 0000 0000 0000     .. .............
	...
 9010c78:	0000 0020 00d2 0000 0000 0000 0000 0000     .. .............
	...
 9010c9c:	0000 0020 0026 0000 0000 0000 0000 0000     .. .&...........
	...
 9010cc0:	0000 0020 0061 0000 0000 0000 0000 0000     .. .a...........
 9010cd0:	0000 0000                                   ....

09010cd4 <trainer_party_x83>:
	...
 9010ce4:	0000 0025 0043 0000 0000 0000 0000 0000     ..%.C...........
 9010cf4:	0000 0000                                   ....

09010cf8 <trainer_party_x82>:
	...
 9010d08:	0000 0023 0043 0000 0000 0000 0000 0000     ..#.C...........
	...
 9010d2c:	0000 0022 014f 0000 0000 0000 0000 0000     ..".O...........
	...
 9010d50:	0000 0024 0039 0000 0000 0000 0000 0000     ..$.9...........
 9010d60:	0000 0000                                   ....

09010d64 <trainer_party_x81>:
	...
 9010d74:	0000 0025 00d6 0000 0000 0000 0000 0000     ..%.............
 9010d84:	0000 0000                                   ....

09010d88 <trainer_party_x80>:
	...
 9010d98:	0000 0023 0039 0000 0000 0000 0000 0000     ..#.9...........
	...
 9010dbc:	0000 0023 0164 0000 0000 0000 0000 0000     ..#.d...........
 9010dcc:	0000 0000                                   ....

09010dd0 <trainer_party_x7f>:
	...
 9010de0:	0000 001d 001e 0000 0000 0000 0000 0000     ................
	...
 9010e04:	0000 001e 0124 0000 0000 0000 0000 0000     ....$...........
 9010e14:	0000 0000                                   ....

09010e18 <trainer_party_x7e>:
	...
 9010e28:	0000 001d 001b 0000 0000 0000 0000 0000     ................
	...
 9010e4c:	0000 001e 004b 0000 0000 0000 0000 0000     ....K...........
 9010e5c:	0000 0000                                   ....

09010e60 <trainer_party_x7d>:
	...
 9010e70:	0000 001e 0121 0000 0000 0000 0000 0000     ....!...........
	...
 9010e94:	0000 001c 0171 0000 0000 0000 0000 0000     ....q...........
	...
 9010eb8:	0000 001d 004d 0000 0000 0000 0000 0000     ....M...........
 9010ec8:	0000 0000                                   ....

09010ecc <trainer_party_x7c>:
	...
 9010edc:	0000 0020 0164 0000 0000 0000 0000 0000     .. .d...........
	...
 9010f00:	0000 0021 014f 0000 0000 0000 0000 0000     ..!.O...........
 9010f10:	0000 0000                                   ....

09010f14 <trainer_party_x7b>:
	...
 9010f24:	0000 001e 0048 0000 0000 0000 0000 0000     ....H...........
	...
 9010f48:	0000 001d 0076 0000 0000 0000 0000 0000     ....v...........
	...
 9010f6c:	0000 001d 0146 0000 0000 0000 0000 0000     ....F...........
 9010f7c:	0000 0000                                   ....

09010f80 <trainer_party_x7a>:
	...
 9010f90:	0000 0021 0043 0000 0000 0000 0000 0000     ..!.C...........
	...
 9010fb4:	0000 0017 0038 0000 0000 0000 0000 0000     ....8...........
 9010fc4:	0000 0000                                   ....

09010fc8 <trainer_party_x79>:
	...
 9010fd8:	0000 0023 006a 0000 0000 0000 0000 0000     ..#.j...........
 9010fe8:	0000 0000                                   ....

09010fec <trainer_party_x78>:
	...
 9010ffc:	0000 0021 0048 0000 0000 0000 0000 0000     ..!.H...........
	...
 9011020:	0000 0020 0075 0000 0000 0000 0000 0000     .. .u...........
 9011030:	0000 0000                                   ....

09011034 <trainer_party_x77>:
	...
 9011044:	0000 001f 0189 0000 0000 0000 0000 0000     ................
	...
 9011068:	0000 0022 011f 0000 0000 0000 0000 0000     ..".............
 9011078:	0000 0000                                   ....

0901107c <trainer_party_x76>:
	...
 901108c:	0000 001f 0040 0000 0000 0000 0000 0000     ....@...........
	...
 90110b0:	0000 0021 015f 0000 0000 0000 0000 0000     ..!._...........
	...
 90110d4:	0000 0020 0013 0000 0000 0000 0000 0000     .. .............
 90110e4:	0000 0000                                   ....

090110e8 <trainer_party_x75>:
	...
 90110f8:	0000 0023 0130 0000 0000 0000 0000 0000     ..#.0...........
	...
 901111c:	0000 0025 0131 0000 0000 0000 0000 0000     ..%.1...........
 901112c:	0000 0000                                   ....

09011130 <trainer_party_x74>:
	...
 9011140:	0000 0020 0164 0000 0000 0000 0000 0000     .. .d...........
	...
 9011164:	0000 0021 0038 0000 0000 0000 0000 0000     ..!.8...........
	...
 9011188:	0000 0020 0043 0000 0000 0000 0000 0000     .. .C...........
 9011198:	0000 0000                                   ....

0901119c <trainer_party_x73>:
	...
 90111ac:	0000 001d 018b 0000 0000 0000 0000 0000     ................
	...
 90111d0:	0000 001d 014f 0000 0000 0000 0000 0000     ....O...........
	...
 90111f4:	0000 001c 00a4 0000 0000 0000 0000 0000     ................
 9011204:	0000 0000                                   ....

09011208 <trainer_party_x72>:
	...
 9011218:	0000 001d 001e 0000 0000 0000 0000 0000     ................
	...
 901123c:	0000 001e 0023 0000 0000 0000 0000 0000     ....#...........
 901124c:	0000 0000                                   ....

09011250 <trainer_party_x71>:
	...
 9011260:	0000 001d 0054 0000 0000 0000 0000 0000     ....T...........
	...
 9011284:	0000 001d 004d 0000 0000 0000 0000 0000     ....M...........
	...
 90112a8:	0000 001e 000b 0000 0000 0000 0000 0000     ................
 90112b8:	0000 0000                                   ....

090112bc <trainer_party_x70>:
	...
 90112cc:	0000 0021 007d 0000 0000 0000 0000 0000     ..!.}...........
 90112dc:	0000 0000                                   ....

090112e0 <trainer_party_x6f>:
	...
 90112f0:	0000 001e 0133 0000 0000 0000 0000 0000     ....3...........
	...
 9011314:	0000 001d 0016 0000 0000 0000 0000 0000     ................
 9011324:	0000 0000                                   ....

09011328 <trainer_party_x6e>:
	...
 9011338:	0000 001e 00b9 0000 0000 0000 0000 0000     ................
	...
 901135c:	0000 001f 0124 0000 0000 0000 0000 0000     ....$...........
	...
 9011380:	0000 001d 0152 0000 0000 0000 0000 0000     ....R...........
 9011390:	0000 0000                                   ....

09011394 <trainer_party_x6d>:
	...
 90113a4:	0000 001e 0073 0000 0000 0000 0000 0000     ....s...........
	...
 90113c8:	0000 0020 000b 0000 0000 0000 0000 0000     .. .............
	...
 90113ec:	0000 001f 0138 0000 0000 0000 0000 0000     ....8...........
 90113fc:	0000 0000                                   ....

09011400 <trainer_party_x6c>:
	...
 9011410:	0000 001d 00a5 0000 0000 0000 0000 0000     ................
	...
 9011434:	0000 001f 00a6 0000 0000 0000 0000 0000     ................
 9011444:	0000 0000                                   ....

09011448 <trainer_party_x6a>:
	...
 9011458:	0000 001a 001b 0000 0000 0000 0000 0000     ................
	...
 901147c:	0000 001a 004b 0000 0000 0000 0000 0000     ....K...........
	...
 90114a0:	0000 001b 0140 0000 0000 0000 0000 0000     ....@...........
	...
 90114c4:	0000 001a 014f 0000 0000 0000 0000 0000     ....O...........
 90114d4:	0000 0000                                   ....

090114d8 <trainer_party_x69>:
	...
 90114e8:	0000 0019 0040 0000 0000 0000 0000 0000     ....@...........
	...
 901150c:	0000 001a 004f 0000 0000 0000 0000 0000     ....O...........
	...
 9011530:	0000 001a 0189 0000 0000 0000 0000 0000     ................
 9011540:	0000 0000                                   ....

09011544 <trainer_party_x68>:
	...
 9011554:	0000 001c 00cb 0000 0000 0000 0000 0000     ................
 9011564:	0000 0000                                   ....

09011568 <trainer_party_x67>:
	...
 9011578:	0000 001a 000f 0000 0000 0000 0000 0000     ................
	...
 901159c:	0000 0019 00a7 0000 0000 0000 0000 0000     ................
	...
 90115c0:	0000 001a 00a6 0000 0000 0000 0000 0000     ................
 90115d0:	0000 0000                                   ....

090115d4 <trainer_party_x66>:
	...
 90115e4:	0000 001c 00b4 0000 0000 0000 0000 0000     ................
	...
 9011608:	0000 001c 0026 0000 0000 0000 0000 0000     ....&...........
 9011618:	0000 0000                                   ....

0901161c <trainer_party_x65>:
	...
 901162c:	0000 001b 0085 0000 0000 0000 0000 0000     ................
	...
 9011650:	0000 001a 0019 0000 0000 0000 0000 0000     ................
 9011660:	0000 0000                                   ....

09011664 <trainer_party_x64>:
	...
 9011674:	0000 001b 0166 0000 0000 0000 0000 0000     ....f...........
	...
 9011698:	0000 001a 00a4 0000 0000 0000 0000 0000     ................
 90116a8:	0000 0000                                   ....

090116ac <trainer_party_x63>:
	...
 90116bc:	0000 001a 0013 0000 0000 0000 0000 0000     ................
	...
 90116e0:	0000 0019 0021 0000 0000 0000 0000 0000     ....!...........
	...
 9011704:	0000 001a 0163 0000 0000 0000 0000 0000     ....c...........
 9011714:	0000 0000                                   ....

09011718 <trainer_party_x62>:
	...
 9011728:	0000 001a 0128 0000 0000 0000 0000 0000     ....(...........
	...
 901174c:	0000 001b 014f 0000 0000 0000 0000 0000     ....O...........
 901175c:	0000 0000                                   ....

09011760 <trainer_party_x61>:
	...
 9011770:	0000 0019 00b7 0000 0000 0000 0000 0000     ................
	...
 9011794:	0000 0019 009b 0000 0000 0000 0000 0000     ................
	...
 90117b8:	0000 0019 003f 0000 0000 0000 0000 0000     ....?...........
	...
 90117dc:	0000 0019 0188 0000 0000 0000 0000 0000     ................
	...
 9011800:	0000 0019 0183 0000 0000 0000 0000 0000     ................
 9011810:	0000 0000                                   ....

09011814 <trainer_party_x60>:
	...
 9011824:	0000 001b 004b 0000 0000 0000 0000 0000     ....K...........
	...
 9011848:	0000 001a 005f 0000 0000 0000 0000 0000     ...._...........
 9011858:	0000 0000                                   ....

0901185c <trainer_party_x5f>:
	...
 901186c:	0000 001b 0158 0000 0000 0000 0000 0000     ....X...........
	...
 9011890:	0000 001a 0032 0000 0000 0000 0000 0000     ....2...........
 90118a0:	0000 0000                                   ....

090118a4 <trainer_party_x5e>:
 90118a4:	0000 0000 0100 0000 0000 0000 0000 0000     ................
 90118b4:	0000 001d 0011 0000 00d3 014c 011b 0062     ..........L...b.
	...
 90118cc:	0100 0000 0000 0000 0000 0000 0000 001f     ................
 90118dc:	0119 008e 00ac 002c 005b 00e7 0000 0000     ......,.[.......
 90118ec:	0000 0000 0100 0000 0000 0000 0000 0000     ................
 90118fc:	0000 001e 0008 008b 0160 002c 003a 006f     ........`.,.:.o.
 901190c:	0000 0000                                   ....

09011910 <trainer_party_x5d>:
 9011910:	0000 0000 0100 0000 0000 0000 0000 0000     ................
 9011920:	0000 001d 0011 0000 00d3 014c 011b 0062     ..........L...b.
	...
 9011938:	0100 0000 0000 0000 0000 0000 0000 001f     ................
 9011948:	0116 008e 015c 00ae 00d2 0075 0000 0000     ....\.....u.....
 9011958:	0000 0000 0100 0000 0000 0000 0000 0000     ................
 9011968:	0000 001e 0005 008b 0034 00e8 006c 016d     ........4...l.m.
 9011978:	0000 0000                                   ....

0901197c <trainer_party_x5c>:
 901197c:	0000 0000 0100 0000 0000 0000 0000 0000     ................
 901198c:	0000 001d 0011 0000 00d3 014c 011b 0062     ..........L...b.
	...
 90119a4:	0100 0000 0000 0000 0000 0000 0000 001f     ................
 90119b4:	011c 008e 015d 0177 00e7 0156 0000 0000     ....].w...V.....
 90119c4:	0000 0000 0100 0000 0000 0000 0000 0000     ................
 90119d4:	0000 001e 0002 008b 004f 004b 00bc 0049     ........O.K...I.
 90119e4:	0000 0000                                   ....

090119e8 <trainer_party_x5b>:
	...
 90119f8:	0000 001a 0013 0000 0000 0000 0000 0000     ................
	...
 9011a1c:	0000 001b 0011 0000 0000 0000 0000 0000     ................
	...
 9011a40:	0000 001b 013c 0000 0000 0000 0000 0000     ....<...........
 9011a50:	0000 0000                                   ....

09011a54 <trainer_party_x5a>:
	...
 9011a64:	0000 0019 0158 0000 0000 0000 0000 0000     ....X...........
	...
 9011a88:	0000 0019 0072 0000 0000 0000 0000 0000     ....r...........
 9011a98:	0000 0000                                   ....

09011a9c <trainer_party_x59>:
	...
 9011aac:	0000 0018 004a 0000 0000 0000 0000 0000     ....J...........
	...
 9011ad0:	0000 0019 00a4 0000 0000 0000 0000 0000     ................
 9011ae0:	0000 0000                                   ....

09011ae4 <trainer_party_x58>:
	...
 9011af4:	0000 001a 013e 0000 0000 0000 0000 0000     ....>...........
	...
 9011b18:	0000 0019 0032 0000 0000 0000 0000 0000     ....2...........
	...
 9011b3c:	0000 0019 0013 0000 0000 0000 0000 0000     ................
	...
 9011b60:	0000 001c 00cf 0000 0000 0000 0000 0000     ................
 9011b70:	0000 0000                                   ....

09011b74 <trainer_party_x57>:
	...
 9011b84:	0000 001b 008e 0000 0000 0000 0000 0000     ................
 9011b94:	0000 0000                                   ....

09011b98 <trainer_party_x56>:
 9011b98:	0000 0000 0200 0000 0000 0000 0000 0000     ................
 9011ba8:	0000 0018 006c 0000 0000 0000 0000 0000     ....l...........
	...
 9011bc0:	0200 0000 0000 0000 0000 0000 0000 0018     ................
 9011bd0:	0051 0000 0000 0000 0000 0000 0000 0000     Q...............
 9011be0:	0000 0000 0200 0000 0000 0000 0000 0000     ................
 9011bf0:	0000 0017 0030 0000 0000 0000 0000 0000     ....0...........
 9011c00:	0000 0000                                   ....

09011c04 <trainer_party_x55>:
	...
 9011c14:	0000 0018 012b 0000 0000 0000 0000 0000     ....+...........
	...
 9011c38:	0000 0018 0128 0000 0000 0000 0000 0000     ....(...........
 9011c48:	0000 0000                                   ....

09011c4c <trainer_party_x54>:
	...
 9011c5c:	0000 0017 0042 0000 0000 0000 0000 0000     ....B...........
	...
 9011c80:	0000 0017 006b 0000 0000 0000 0000 0000     ....k...........
	...
 9011ca4:	0000 0018 006a 0000 0000 0000 0000 0000     ....j...........
 9011cb4:	0000 0000                                   ....

09011cb8 <trainer_party_x53>:
	...
 9011cc8:	0000 0017 002c 0000 0000 0000 0000 0000     ....,...........
	...
 9011cec:	0000 0016 000b 0000 0000 0000 0000 0000     ................
 9011cfc:	0000 0000                                   ....

09011d00 <trainer_party_x52>:
	...
 9011d10:	0000 001a 004b 0000 0000 0000 0000 0000     ....K...........
 9011d20:	0000 0000                                   ....

09011d24 <trainer_party_x51>:
	...
 9011d34:	0000 0017 00d1 0000 0000 0000 0000 0000     ................
	...
 9011d58:	0000 0017 0130 0000 0000 0000 0000 0000     ....0...........
 9011d68:	0000 0000                                   ....

09011d6c <trainer_party_x50>:
	...
 9011d7c:	0000 0017 005f 0000 0000 0000 0000 0000     ...._...........
	...
 9011da0:	0000 0017 0042 0000 0000 0000 0000 0000     ....B...........
	...
 9011dc4:	0000 0018 004a 0000 0000 0000 0000 0000     ....J...........
 9011dd4:	0000 0000                                   ....

09011dd8 <trainer_party_x4f>:
	...
 9011de8:	0000 0017 0017 0000 0000 0000 0000 0000     ................
	...
 9011e0c:	0000 0017 001e 0000 0000 0000 0000 0000     ................
 9011e1c:	0000 0000                                   ....

09011e20 <trainer_party_x4e>:
	...
 9011e30:	0000 0018 011f 0000 0000 0000 0000 0000     ................
 9011e40:	0000 0000                                   ....

09011e44 <trainer_party_x4d>:
	...
 9011e54:	0000 0017 001b 0000 0000 0000 0000 0000     ................
	...
 9011e78:	0000 0016 017e 0000 0000 0000 0000 0000     ....~...........
 9011e88:	0000 0000                                   ....

09011e8c <trainer_party_x4c>:
 9011e8c:	0000 0300 0d40 0b0b 0b0b 0b0b fcfc 0400     ....@...........
 9011e9c:	0000 0019 005f 00aa 009d 005b 00e7 016f     ...._.....[...o.
 9011eac:	0000 0000 0000 0300 0d40 0b0b 0b0b 0b0b     ........@.......
 9011ebc:	fc04 fc00 0000 001a 0082 00a1 015d 002c     ............].,.
 9011ecc:	0177 016b 0000 0000 0002 0f00 0d42 0b0b     w.k.........B...
 9011edc:	0b0b 0b0b 0004 fc00 00fc 001a 016f 00d3     ............o...
 9011eec:	0131 0035 00fc 008b 0000 0000 0000 0300     1.5.............
 9011efc:	0d40 0b0b 0b0b 0b0b fcfc 0400 0000 001c     @...............
 9011f0c:	017b 008d 0156 00e7 017d 0177 0000 0000     {...V...}.w.....

09011f1c <trainer_party_x4b>:
	...
 9011f2c:	0000 0016 0052 0000 0000 0000 0000 0000     ....R...........
	...
 9011f50:	0000 0016 001e 0000 0000 0000 0000 0000     ................
 9011f60:	0000 0000                                   ....

09011f64 <trainer_party_x4a>:
	...
 9011f74:	0000 0017 00c6 0000 0000 0000 0000 0000     ................
	...
 9011f98:	0000 0017 005d 0000 0000 0000 0000 0000     ....]...........
 9011fa8:	0000 0000                                   ....

09011fac <trainer_party_x49>:
	...
 9011fbc:	0000 0016 0060 0000 0000 0000 0000 0000     ....`...........
	...
 9011fe0:	0000 0018 0021 0000 0000 0000 0000 0000     ....!...........
 9011ff0:	0000 0000                                   ....

09011ff4 <trainer_party_x48>:
	...
 9012004:	0000 0016 002a 0000 0000 0000 0000 0000     ....*...........
	...
 9012028:	0000 0015 013e 0000 0000 0000 0000 0000     ....>...........
 9012038:	0000 0000                                   ....

0901203c <trainer_party_x47>:
	...
 901204c:	0000 0016 0172 0000 0000 0000 0000 0000     ....r...........
	...
 9012070:	0000 0017 0166 0000 0000 0000 0000 0000     ....f...........
 9012080:	0000 0000                                   ....

09012084 <trainer_party_x46>:
	...
 9012094:	0000 0015 015f 0000 0000 0000 0000 0000     ...._...........
	...
 90120b8:	0000 0016 00b4 0000 0000 0000 0000 0000     ................
 90120c8:	0000 0000                                   ....

090120cc <trainer_party_x45>:
	...
 90120dc:	0000 0016 0025 0000 0000 0000 0000 0000     ....%...........
	...
 9012100:	0000 0016 0011 0000 0000 0000 0000 0000     ................
	...
 9012124:	0000 0016 0151 0000 0000 0000 0000 0000     ....Q...........
 9012134:	0000 0000                                   ....

09012138 <trainer_party_x44>:
	...
 9012148:	0000 0017 002a 0000 0000 0000 0000 0000     ....*...........
	...
 901216c:	0000 0016 00c6 0000 0000 0000 0000 0000     ................
	...
 9012190:	0000 0016 016f 0000 0000 0000 0000 0000     ....o...........
 90121a0:	0000 0000                                   ....

090121a4 <trainer_party_x43>:
	...
 90121b4:	0000 0015 0126 0000 0000 0000 0000 0000     ....&...........
	...
 90121d8:	0000 0015 0124 0000 0000 0000 0000 0000     ....$...........
	...
 90121fc:	0000 0014 00a7 00d3 0000 0000 0000 0000     ................
 901220c:	0000 0000                                   ....

09012210 <trainer_party_x42>:
	...
 9012220:	0000 0013 0146 0000 0000 0000 0000 0000     ....F...........
	...
 9012244:	0000 0016 0076 0000 0000 0000 0000 0000     ....v...........
	...
 9012268:	0000 0013 0081 0000 0000 0000 0000 0000     ................
 9012278:	0000 0000                                   ....

0901227c <trainer_party_x41>:
	...
 901228c:	0000 0015 0021 0000 0000 0000 0000 0000     ....!...........
	...
 90122b0:	0000 0015 001e 0000 0000 0000 0000 0000     ................
 90122c0:	0000 0000                                   ....

090122c4 <trainer_party_x40>:
	...
 90122d4:	0000 0016 002b 0000 0000 0000 0000 0000     ....+...........
	...
 90122f8:	0000 0015 012b 0000 0000 0000 0000 0000     ....+...........
	...
 901231c:	0000 0015 0115 0000 0000 0000 0000 0000     ................
	...
 9012340:	0000 0015 0046 0000 0000 0000 0000 0000     ....F...........
	...
 9012364:	0000 0014 0015 0000 0000 0000 0000 0000     ................
 9012374:	0000 0000                                   ....

09012378 <trainer_party_x3f>:
	...
 9012388:	0000 0018 0099 0000 0000 0000 0000 0000     ................
 9012398:	0000 0000                                   ....

0901239c <trainer_party_x3e>:
	...
 90123ac:	0000 0017 0015 0000 0000 0000 0000 0000     ................
	...
 90123d0:	0000 0016 0132 0000 0000 0000 0000 0000     ....2...........
 90123e0:	0000 0000                                   ....

090123e4 <trainer_party_x3d>:
	...
 90123f4:	0000 0017 002c 0000 0000 0000 0000 0000     ....,...........
	...
 9012418:	0000 0016 012b 0000 0000 0000 0000 0000     ....+...........
	...
 901243c:	0000 0015 0046 0000 0000 0000 0000 0000     ....F...........
 901244c:	0000 0000                                   ....

09012450 <trainer_party_x3c>:
	...
 9012460:	0000 0014 007d 0000 0000 0000 0000 0000     ....}...........
	...
 9012484:	0000 0013 0158 0000 0000 0000 0000 0000     ....X...........
	...
 90124a8:	0000 0015 0189 0000 0000 0000 0000 0000     ................
 90124b8:	0000 0000                                   ....

090124bc <trainer_party_x3b>:
	...
 90124cc:	0000 0016 0066 0000 0000 0000 0000 0000     ....f...........
	...
 90124f0:	0000 0017 007f 0000 0000 0000 0000 0000     ................
	...
 9012514:	0000 0018 014a 0000 0000 0000 0000 0000     ....J...........
	...
 9012538:	0000 0017 0025 0000 0000 0000 0000 0000     ....%...........
 9012548:	0000 0000                                   ....

0901254c <trainer_party_x3a>:
	...
 901255c:	0000 0014 0066 0000 0000 0000 0000 0000     ....f...........
	...
 9012580:	0000 0014 00d1 0000 0000 0000 0000 0000     ................
 9012590:	0000 0000                                   ....

09012594 <trainer_party_x39>:
	...
 90125a4:	0000 0014 001b 0000 0000 0000 0000 0000     ................
 90125b4:	0000 0000                                   ....

090125b8 <trainer_party_x38>:
	...
 90125c8:	0000 0011 00bb 0000 0000 0000 0000 0000     ................
	...
 90125ec:	0000 0011 0015 0000 0000 0000 0000 0000     ................
	...
 9012610:	0000 0011 001e 0000 0000 0000 0000 0000     ................
	...
 9012634:	0000 0011 00b4 0000 0000 0000 0000 0000     ................
	...
 9012658:	0000 0011 0130 0000 0000 0000 0000 0000     ....0...........
 9012668:	0000 0000                                   ....

0901266c <trainer_party_x37>:
	...
 901267c:	0000 0004 016c 0000 0000 0000 0000 0000     ....l...........
	...
 90126a0:	0000 0005 00b7 0000 0000 0000 0000 0000     ................
	...
 90126c4:	0000 0004 0132 0000 0000 0000 0000 0000     ....2...........
 90126d4:	0000 0000                                   ....

090126d8 <trainer_party_x36>:
	...
 90126e8:	0000 0010 002b 0000 0000 0000 0000 0000     ....+...........
	...
 901270c:	0000 0010 0045 0000 0000 0000 0000 0000     ....E...........
	...
 9012730:	0000 0010 00ae 0000 0000 0000 0000 0000     ................
 9012740:	0000 0000                                   ....

09012744 <trainer_party_x35>:
	...
 9012754:	0000 0014 016b 0000 0000 0000 0000 0000     ....k...........
	...
 9012778:	0000 0013 0023 0000 0000 0000 0000 0000     ....#...........
 9012788:	0000 0000                                   ....

0901278c <trainer_party_x34>:
	...
 901279c:	0000 0014 00cc 0000 0000 0000 0000 0000     ................
	...
 90127c0:	0000 0014 00e7 0000 0000 0000 0000 0000     ................
 90127d0:	0000 0000                                   ....

090127d4 <trainer_party_x33>:
	...
 90127e4:	0000 0013 003c 0000 0000 0000 0000 0000     ....<...........
	...
 9012808:	0000 0014 00cf 0000 0000 0000 0000 0000     ................
 9012818:	0000 0000                                   ....

0901281c <trainer_party_x32>:
	...
 901282c:	0000 0014 004a 0000 0000 0000 0000 0000     ....J...........
	...
 9012850:	0000 0014 005f 0000 0000 0000 0000 0000     ...._...........
 9012860:	0000 0000                                   ....

09012864 <trainer_party_x31>:
	...
 9012874:	0000 0014 0164 0000 0000 0000 0000 0000     ....d...........
	...
 9012898:	0000 0015 0042 0000 0000 0000 0000 0000     ....B...........
 90128a8:	0000 0000                                   ....

090128ac <trainer_party_x30>:
	...
 90128bc:	0000 0012 00a5 0000 0000 0000 0000 0000     ................
	...
 90128e0:	0000 0011 0066 0000 0000 0000 0000 0000     ....f...........
	...
 9012904:	0000 0012 0038 0000 0000 0000 0000 0000     ....8...........
	...
 9012928:	0000 0012 0164 0000 0000 0000 0000 0000     ....d...........
 9012938:	0000 0000                                   ....

0901293c <trainer_party_x2f>:
	...
 901294c:	0000 0012 011e 0000 0000 0000 0000 0000     ................
	...
 9012970:	0000 0013 0189 0000 0000 0000 0000 0000     ................
 9012980:	0000 0000                                   ....

09012984 <trainer_party_x2e>:
	...
 9012994:	0000 0012 0002 0000 0000 0000 0000 0000     ................
	...
 90129b8:	0000 0012 0023 0000 0000 0000 0000 0000     ....#...........
	...
 90129dc:	0000 0011 002b 0000 0000 0000 0000 0000     ....+...........
 90129ec:	0000 0000                                   ....

090129f0 <trainer_party_x2d>:
	...
 9012a00:	0000 0012 0051 0000 0000 0000 0000 0000     ....Q...........
	...
 9012a24:	0000 0011 0064 0000 0000 0000 0000 0000     ....d...........
	...
 9012a48:	0000 0012 0151 0000 0000 0000 0000 0000     ....Q...........
	...
 9012a6c:	0000 0011 0051 0000 0000 0000 0000 0000     ....Q...........
 9012a7c:	0000 0000                                   ....

09012a80 <trainer_party_x2c>:
	...
 9012a90:	0000 0006 0151 0000 0000 0000 0000 0000     ....Q...........
	...
 9012ab4:	0000 0006 011e 0000 0000 0000 0000 0000     ................
 9012ac4:	0000 0000                                   ....

09012ac8 <trainer_party_x2b>:
	...
 9012ad8:	0000 000e 0007 008e 0000 0000 0000 0000     ................
	...
 9012afc:	0000 000f 0118 008e 0000 0000 0000 0000     ................
 9012b0c:	0000 0000                                   ....

09012b10 <trainer_party_x2a>:
	...
 9012b20:	0000 000e 0004 008e 0000 0000 0000 0000     ................
	...
 9012b44:	0000 000f 0115 008e 0000 0000 0000 0000     ................
 9012b54:	0000 0000                                   ....

09012b58 <trainer_party_x29>:
	...
 9012b68:	0000 000f 0001 008e 0000 0000 0000 0000     ................
	...
 9012b8c:	0000 000f 011b 008e 0000 0000 0000 0000     ................
 9012b9c:	0000 0000                                   ....

09012ba0 <trainer_party_x28>:
	...
 9012bb0:	0000 0010 000f 0000 0000 0000 0000 0000     ................
	...
 9012bd4:	0000 0010 000f 0000 0000 0000 0000 0000     ................
	...
 9012bf8:	0000 0011 000f 0000 0000 0000 0000 0000     ................
 9012c08:	0000 0000                                   ....

09012c0c <trainer_party_x27>:
	...
 9012c1c:	0000 0010 000a 0000 0000 0000 0000 0000     ................
	...
 9012c40:	0000 0011 0130 0000 0000 0000 0000 0000     ....0...........
	...
 9012c64:	0000 0012 0166 0000 0000 0000 0000 0000     ....f...........
 9012c74:	0000 0000                                   ....

09012c78 <trainer_party_x26>:
	...
 9012c88:	0000 0010 006d 0000 0000 0000 0000 0000     ....m...........
	...
 9012cac:	0000 0011 0029 0000 0000 0000 0000 0000     ....)...........
	...
 9012cd0:	0000 0011 00c6 0000 0000 0000 0000 0000     ................
 9012ce0:	0000 0000                                   ....

09012ce4 <trainer_party_x25>:
	...
 9012cf4:	0000 0010 00be 0000 0000 0000 0000 0000     ................
	...
 9012d18:	0000 0010 0040 0000 0000 0000 0000 0000     ....@...........
	...
 9012d3c:	0000 0010 0020 0000 0000 0000 0000 0000     .... ...........
 9012d4c:	0000 0000                                   ....

09012d50 <trainer_party_x24>:
	...
 9012d60:	0000 0011 0166 0000 0000 0000 0000 0000     ....f...........
	...
 9012d84:	0000 0010 0042 0000 0000 0000 0000 0000     ....B...........
 9012d94:	0000 0000                                   ....

09012d98 <trainer_party_x23>:
 9012d98:	0000 0000 0100 0000 0000 0000 0000 0000     ................
 9012da8:	0000 0011 000b 0000 0034 0040 00d3 0021     ........4.@...!.
	...
 9012dc0:	0100 0000 0000 0000 0000 0000 0000 0012     ................
 9012dd0:	009f 00d1 0008 007f 000a 015d 0000 0000     ..........].....
 9012de0:	0000 0000 0100 0000 0000 0000 0000 0000     ................
 9012df0:	0000 0010 012b 0000 00fc 00b9 00ca 0146     ....+.........F.
	...
 9012e08:	0100 0000 0000 0000 0000 0000 0000 0012     ................
 9012e18:	0040 008e 003c 0167 018e 0000 0000 0000     @...<.g.........

09012e28 <trainer_party_x22>:
	...
 9012e38:	0000 0010 006d 0000 0000 0000 0000 0000     ....m...........
	...
 9012e5c:	0000 0010 0038 0000 0000 0000 0000 0000     ....8...........
	...
 9012e80:	0000 0010 014f 0000 0000 0000 0000 0000     ....O...........
	...
 9012ea4:	0000 0010 00ec 0000 0000 0000 0000 0000     ................
 9012eb4:	0000 0000                                   ....

09012eb8 <trainer_party_x21>:
	...
 9012ec8:	0000 0011 0081 0000 0000 0000 0000 0000     ................
	...
 9012eec:	0000 0011 0148 0000 0000 0000 0000 0000     ....H...........
	...
 9012f10:	0000 0011 0076 0000 0000 0000 0000 0000     ....v...........
 9012f20:	0000 0000                                   ....

09012f24 <trainer_party_x20>:
	...
 9012f34:	0000 0010 014a 0000 0000 0000 0000 0000     ....J...........
	...
 9012f58:	0000 0010 004f 0000 0000 0000 0000 0000     ....O...........
 9012f68:	0000 0000                                   ....

09012f6c <trainer_party_x1f>:
	...
 9012f7c:	0000 0010 00b3 0000 0000 0000 0000 0000     ................
	...
 9012fa0:	0000 0010 0015 0000 0000 0000 0000 0000     ................
 9012fb0:	0000 0000                                   ....

09012fb4 <trainer_party_x1e>:
	...
 9012fc4:	0000 000f 0172 0000 0000 0000 0000 0000     ....r...........
	...
 9012fe8:	0000 000f 0093 0000 0000 0000 0000 0000     ................
	...
 901300c:	0000 000e 018b 0000 0000 0000 0000 0000     ................
 901301c:	0000 0000                                   ....

09013020 <trainer_party_x1d>:
	...
 9013030:	0000 000f 0076 0000 0000 0000 0000 0000     ....v...........
	...
 9013054:	0000 000f 0146 0000 0000 0000 0000 0000     ....F...........
 9013064:	0000 0000                                   ....

09013068 <trainer_party_x1c>:
	...
 9013078:	0000 0010 0078 0000 0000 0000 0000 0000     ....x...........
 9013088:	0000 0000                                   ....

0901308c <trainer_party_x1b>:
	...
 901309c:	0000 000d 0034 0000 0000 0000 0000 0000     ....4...........
	...
 90130c0:	0000 000e 0001 0000 0000 0000 0000 0000     ................
	...
 90130e4:	0000 000f 00ae 0000 0000 0000 0000 0000     ................
 90130f4:	0000 0000                                   ....

090130f8 <trainer_party_x1a>:
	...
 9013108:	0000 000e 0020 0000 0000 0000 0000 0000     .... ...........
	...
 901312c:	0000 000e 001d 0000 0000 0000 0000 0000     ................
 901313c:	0000 0000                                   ....

09013140 <trainer_party_x19>:
	...
 9013150:	0000 0010 00ba 0000 0000 0000 0000 0000     ................
	...
 9013174:	0000 0011 003a 0000 0000 0000 0000 0000     ....:...........
 9013184:	0000 0000                                   ....

09013188 <trainer_party_x18>:
	...
 9013198:	0000 000d 0010 0000 0000 0000 0000 0000     ................
	...
 90131bc:	0000 000e 000a 0000 0000 0000 0000 0000     ................
 90131cc:	0000 0000                                   ....

090131d0 <trainer_party_x17>:
	...
 90131e0:	0000 0009 0188 0000 0000 0000 0000 0000     ................
	...
 9013204:	0000 0009 003f 0000 0000 0000 0000 0000     ....?...........
 9013214:	0000 0000                                   ....

09013218 <trainer_party_x16>:
	...
 9013228:	0000 000f 00c6 0000 0000 0000 0000 0000     ................
	...
 901324c:	0000 000f 00a4 0000 0000 0000 0000 0000     ................
	...
 9013270:	0000 000e 0130 0000 0000 0000 0000 0000     ....0...........
 9013280:	0000 0000                                   ....

09013284 <trainer_party_x15>:
	...
 9013294:	0000 0011 0120 0000 0000 0000 0000 0000     .... ...........
 90132a4:	0000 0000                                   ....

090132a8 <trainer_party_x14>:
	...
 90132b8:	0000 0007 00ae 0000 0000 0000 0000 0000     ................
	...
 90132dc:	0000 0008 0085 0000 0000 0000 0000 0000     ................
 90132ec:	0000 0000                                   ....

090132f0 <trainer_party_x13>:
	...
 9013300:	0000 0007 0030 0000 0000 0000 0000 0000     ....0...........
	...
 9013324:	0000 0007 0122 0000 0000 0000 0000 0000     ...."...........
 9013334:	0000 0000                                   ....

09013338 <trainer_party_x12>:
	...
 9013348:	0000 000d 004a 0000 0000 0000 0000 0000     ....J...........
	...
 901336c:	0000 000e 0140 0000 0000 0000 0000 0000     ....@...........
 901337c:	0000 0000                                   ....

09013380 <trainer_party_x11>:
	...
 9013390:	0000 0009 0042 0000 0000 0000 0000 0000     ....B...........
	...
 90133b4:	0000 0009 0164 0000 0000 0000 0000 0000     ....d...........
 90133c4:	0000 0000                                   ....

090133c8 <trainer_party_x10>:
	...
 90133d8:	0000 000c 0132 0000 0000 0000 0000 0000     ....2...........
	...
 90133fc:	0000 000d 0001 0000 0000 0000 0000 0000     ................
 901340c:	0000 0000                                   ....

09013410 <trainer_party_xf>:
	...
 9013420:	0000 000d 00b7 0000 0000 0000 0000 0000     ................
	...
 9013444:	0000 000e 0153 0000 0000 0000 0000 0000     ....S...........
 9013454:	0000 0000                                   ....

09013458 <trainer_party_xe>:
	...
 9013468:	0000 0007 0038 0000 0000 0000 0000 0000     ....8...........
	...
 901348c:	0000 0006 0164 0000 0000 0000 0000 0000     ....d...........
	...
 90134b0:	0000 0007 014f 0000 0000 0000 0000 0000     ....O...........
 90134c0:	0000 0000                                   ....

090134c4 <trainer_party_xd>:
	...
 90134d4:	0000 0009 004d 0000 0000 0000 0000 0000     ....M...........
	...
 90134f8:	0000 000a 013b 0000 0000 0000 0000 0000     ....;...........
 9013508:	0000 0000                                   ....

0901350c <trainer_party_xc>:
	...
 901351c:	0000 0009 001b 0000 0000 0000 0000 0000     ................
	...
 9013540:	0000 0009 013e 0000 0000 0000 0000 0000     ....>...........
 9013550:	0000 0000                                   ....

09013554 <trainer_party_xb>:
	...
 9013564:	0000 0007 011e 0000 0000 0000 0000 0000     ................
	...
 9013588:	0000 0007 003a 0000 0000 0000 0000 0000     ....:...........
	...
 90135ac:	0000 0008 0151 0000 0000 0000 0000 0000     ....Q...........
 90135bc:	0000 0000                                   ....

090135c0 <trainer_party_xa>:
	...
 90135d0:	0000 0008 0051 0000 0000 0000 0000 0000     ....Q...........
	...
 90135f4:	0000 0009 0064 0000 0000 0000 0000 0000     ....d...........
 9013604:	0000 0000                                   ....

09013608 <trainer_party_x9>:
	...
 9013618:	0000 0006 0183 0000 0000 0000 0000 0000     ................
	...
 901363c:	0000 0006 00ae 0000 0000 0000 0000 0000     ................
 901364c:	0000 0000                                   ....

09013650 <trainer_party_x8>:
	...
 9013660:	0000 000a 011e 0000 0000 0000 0000 0000     ................
	...
 9013684:	0000 000b 0058 0000 0000 0000 0000 0000     ....X...........
 9013694:	0000 0000                                   ....

09013698 <trainer_party_x7>:
	...
 90136a8:	0000 0005 002b 0000 0000 0000 0000 0000     ....+...........
	...
 90136cc:	0000 0005 012a 0000 0000 0000 0000 0000     ....*...........
	...
 90136f0:	0000 0006 0015 0000 0000 0000 0000 0000     ................
	...
 9013714:	0000 0006 002b 0000 0000 0000 0000 0000     ....+...........
 9013724:	0000 0000                                   ....

09013728 <trainer_party_x6>:
	...
 9013738:	0000 0008 00bb 0000 0000 0000 0000 0000     ................
	...
 901375c:	0000 0006 0060 0000 0000 0000 0000 0000     ....`...........
 901376c:	0000 0000                                   ....

09013770 <trainer_party_x5>:
	...
 9013780:	0000 0006 0151 0000 0000 0000 0000 0000     ....Q...........
	...
 90137a4:	0000 0006 001b 0000 0000 0000 0000 0000     ................
 90137b4:	0000 0000                                   ....

090137b8 <trainer_party_x4>:
	...
 90137c8:	0000 0007 0029 0000 0000 0000 0000 0000     ....)...........
 90137d8:	0000 0000                                   ....

090137dc <trainer_party_x3>:
	...
 90137ec:	0000 0004 000a 0000 0000 0000 0000 0000     ................
 90137fc:	0000 0000                                   ....

09013800 <trainer_party_x2>:
	...
 9013810:	0000 0004 0120 0000 0000 0000 0000 0000     .... ...........
 9013820:	0000 0000                                   ....

09013824 <trainer_party_x1>:
	...
 9013834:	0000 0004 000a 0000 0000 0000 0000 0000     ................
 9013844:	0000 0000                                   ....

09013848 <trainer_party_x0>:
	...
 9013858:	0000 0004 011e 0000 0000 0000 0000 0000     ................
 9013868:	0000 0000 5500 6d00 f6cc d9e4 ffe0 0000     .....U.m........
	...
 901388c:	0001 0000 0000 0000 4000 1d03 e2bb e6d8     .........@......
 901389c:	d5d9 ffe7 0000 0000 0000 0000 0000 0000     ................
 90138ac:	0000 0000 0001 0000 0001 0000 0000 0000     ................
 90138bc:	3900 2406 d5c7 ddec dde1 dde0 e2d5 00ff     .9.$............
	...
 90138d8:	0001 0000 0001 0000 0000 0000 0d00 0d06     ................
 90138e8:	e3c2 dbe0 e6d9 00ff 0000 0000 000d 0000     ................
	...
 9013900:	0001 0000 0001 0000 0000 0000 5500 6d03     .............U.m
 9013910:	f6cc d9e4 00e0 adc2 00ff 0000 0000 0000     ................
	...
 9013928:	0007 0000 0001 0000 0000 0000 1d00 2402     ...............$
 9013938:	d9ca d9e8 ffe6 0000 0000 0000 0000 0000     ................
	...
 9013950:	0001 0000 0002 0000 0000 0000 5500 4e83     .............U.N
 9013960:	e4cc e0d9 bc00 ffad 0000 0000 0000 0000     ................
	...
 9013978:	0007 0000 0002 0000 0000 0000 0400 0382     ................
 9013988:	d5c7 e0e6 d9d9 d9e2 00ff 0000 0000 0000     ................
	...
 90139a0:	0001 0000 0002 0000 0000 0000 5500 6d00     .............U.m
 90139b0:	f6cc d9e4 00e0 adcc 00ff 0000 0000 0000     ................
	...
 90139c8:	0007 0000 0002 0000 0000 0000 0400 0305     ................
 90139d8:	e7d3 d6d5 e0d9 ffe0 0000 0000 0000 0000     ................
	...
 90139f0:	0007 0000 0002 0000 0000 0000 4400 5d05     .............D.]
 9013a00:	d5d2 d9ea ffe6 0000 0000 0000 0000 0000     ................
	...
 9013a18:	0007 0000 0002 0000 0000 0000 1600 1702     ................
 9013a28:	d9c2 e6e2 d7dd ffdf 0000 0000 0000 0000     ................
	...
 9013a40:	0001 0000 0003 0000 0000 0000 2700 1301     .............'..
 9013a50:	e6ce e7dd d5e8 e2ed ffd9 0000 0000 0000     ................
	...
 9013a68:	0001 0000 0002 0000 0000 0000 0c00 0c01     ................
 9013a78:	e3cc d5e7 d5e2 00ff 0000 0000 0000 0000     ................
	...
 9013a90:	0001 0000 0002 0000 0000 0000 1000 1002     ................
 9013aa0:	ddcc dfd7 00ff 0000 0000 0000 0000 0000     ................
	...
 9013ab8:	0001 0000 0003 0000 0000 0000 2e00 3d03     ...............=
 9013ac8:	d5c4 d9e2 00ff 0000 0000 0000 0000 0000     ................
	...
 9013ae0:	0001 0000 0002 0000 0000 0000 0400 0301     ................
 9013af0:	e3c4 d5dc e2e2 ffd9 0000 0000 0000 0000     ................
	...
 9013b08:	0001 0000 0002 0000 0000 0000 1000 1004     ................
 9013b18:	e9c6 d5d7 00ff 0000 0000 0000 0000 0000     ................
	...
 9013b30:	0001 0000 0002 0000 0000 0000 4100 4304     .............A.C
 9013b40:	ddd1 e0e0 e7d5 00ff 0000 0000 0000 0000     ................
	...
 9013b58:	0001 0000 0002 0000 0000 0000 3200 420b     .............2.B
 9013b68:	e3c4 e2dc 00ff 0000 0000 0000 0000 0000     ................
	...
 9013b80:	0001 0000 0002 0000 0000 0000 0b00 0b00     ................
 9013b90:	e1bf e0dd ffed 0000 0000 0000 0000 0000     ................
	...
 9013ba8:	0001 0000 0002 0000 0000 0000 3100 4103     .............1.A
 9013bb8:	d5cd e6d6 e2dd ffd5 0000 0000 0000 0000     ................
	...
 9013bd0:	0001 0000 0001 0000 0000 0000 2200 2e04     ............."..
 9013be0:	e0bb e2d9 00ff 0000 0000 0000 0000 0000     ................
	...
 9013bf8:	0001 0000 0003 0000 0000 0000 1500 1604     ................
 9013c08:	d5bd e7e7 e2d5 e6d8 ffd5 0000 0000 0000     ................
	...
 9013c20:	0001 0000 0002 0000 0000 0000 2200 2e02     ............."..
 9013c30:	d5d0 d9e0 e8e2 e2dd 00ff 0000 0000 0000     ................
	...
 9013c48:	0001 0000 0002 0000 0000 0000 0200 1a0a     ................
 9013c58:	d5c2 e6e6 e2d9 d9da d8e0 00ff 0000 0000     ................
	...
 9013c70:	0007 0000 0002 0000 0000 0000 0e00 200a     ............... 
 9013c80:	e2bb e3e8 ffe2 0000 0000 0000 0000 0000     ................
	...
 9013c98:	0001 0000 0002 0000 0000 0000 0400 0301     ................
 9013ca8:	d9c0 dde0 ddee ffd5 0000 0000 0000 0000     ................
	...
 9013cc0:	0001 0000 0003 0000 0000 0000 1f00 2600     ...............&
 9013cd0:	d5c5 dde1 e0e0 ffd9 0000 0000 0000 0000     ................
	...
 9013ce8:	0001 0000 0001 0000 0000 0000 1f00 2601     ...............&
 9013cf8:	d9bc ffe2 0000 0000 0000 0000 0000 0000     ................
	...
 9013d10:	0001 0000 0002 0000 0000 0000 1c00 2380     ...............#
 9013d20:	d5c7 e8e6 d5dc 00ff 0000 0000 0000 0000     ................
	...
 9013d38:	0001 0000 0003 0000 0000 0000 1900 1e00     ................
 9013d48:	dcbd e2d5 d5e8 ffe0 0000 0000 0000 0000     ................
	...
 9013d60:	0001 0000 0002 0000 0000 0000 1f00 2609     ...............&
 9013d70:	d5c7 dde6 e7e9 00ff 0000 0000 0000 0000     ................
	...
 9013d88:	0001 0000 0002 0000 0000 0000 1f00 2609     ...............&
 9013d98:	ddc8 e7e0 00ff 0000 0000 0000 0000 0000     ................
	...
 9013db0:	0001 0000 0003 0000 0000 0000 2300 2f09     .............#./
 9013dc0:	d9c5 ddea ffe2 0000 0000 0000 0000 0000     ................
	...
 9013dd8:	0001 0000 0004 0000 0000 0000 0900 0904     ................
 9013de8:	d9cd d9e6 d5e2 00ff 0000 0000 0013 0013     ................
	...
 9013e00:	0007 0000 0004 0000 0000 0000 2000 2a04     ............. .*
 9013e10:	edc8 e1e3 d5e7 00ff 0000 0000 0000 0000     ................
	...
 9013e28:	0001 0000 0002 0000 0000 0000 1d00 2400     ...............$
 9013e38:	ddce e3e2 00ff 0000 0000 0000 0000 0000     ................
	...
 9013e50:	0001 0000 0003 0000 0000 0000 4300 5c00     .............C.\
 9013e60:	e8cd dad9 d9da ffe2 0000 0000 0000 0000     ................
	...
 9013e78:	0007 0000 0003 0000 0000 0000 2200 2e0b     ............."..
 9013e88:	e6bf d9e2 e8e7 00ff 0000 0000 0000 0000     ................
	...
 9013ea0:	0001 0000 0003 0000 0000 0000 5500 6d00     .............U.m
 9013eb0:	f6cc d9e4 00e0 add3 00ff 0000 0000 0000     ................
	...
 9013ec8:	0001 0000 0003 0000 0000 0000 0000 3980     ...............9
 9013ed8:	d5c7 dfdd ffd9 0000 0000 0000 000d 0000     ................
	...
 9013ef0:	0001 0000 0002 0000 0000 0000 0000 3981     ...............9
 9013f00:	d5c7 dfdd ffd9 0000 0000 0000 000d 0000     ................
	...
 9013f18:	0001 0000 0002 0000 0000 0000 0000 3981     ...............9
 9013f28:	d5c7 dfdd ffd9 0000 0000 0000 000d 0000     ................
	...
 9013f40:	0001 0000 0002 0000 0000 0000 0200 0001     ................
 9013f50:	d5c7 e5e6 00ff 0000 0000 0000 000d 0000     ................
	...
 9013f68:	0001 0000 0002 0000 0000 0000 4c00 1101     .............L..
 9013f78:	d8cf ffe3 0000 0000 0000 0000 0000 0000     ................
	...
 9013f90:	0001 0000 0004 0000 0000 0000 0400 0384     ................
 9013fa0:	e2bb dde2 ffd9 0000 0000 0000 0000 0000     ................
	...
 9013fb8:	0001 0000 0002 0000 0000 0000 1600 1782     ................
 9013fc8:	e3c4 d7d5 dddc ffe1 0000 0000 0000 0000     ................
	...
 9013fe0:	0001 0000 0002 0000 0000 0000 2700 3302     .............'.3
 9013ff0:	e3c6 ddd6 ffe2 0000 0000 0000 0000 0000     ................
	...
 9014008:	0001 0000 0002 0000 0000 0000 2400 3004     .............$.0
 9014018:	d5cc ffe2 0000 0000 0000 0000 0000 0000     ................
	...
 9014030:	0001 0000 0002 0000 0000 0000 4100 5a01     .............A.Z
 9014040:	e0bb dde3 ffe7 0000 0000 0000 0000 0000     ................
	...
 9014058:	0001 0000 0002 0000 0000 0000 2000 2901     ............. .)
 9014068:	d9cd e1ed e9e3 ffe6 0000 0000 0000 0000     ................
	...
 9014080:	0001 0000 0002 0000 0000 0000 3900 5201     .............9.R
 9014090:	d9c8 d8d8 00ff 0000 0000 0000 0000 0000     ................
	...
 90140a8:	0001 0000 0002 0000 0000 0000 0c00 6201     ...............b
 90140b8:	e2bb e6d8 d5d9 00ff 0000 0000 0000 0000     ................
	...
 90140d0:	0001 0000 0002 0000 0000 0000 0400 0300     ................
 90140e0:	d9c4 e2ed ffd9 0000 0000 0000 0000 0000     ................
	...
 90140f8:	0001 0000 0002 0000 0000 0000 3900 2400     .............9.$
 9014108:	dcca e0ed dde0 ffe4 0000 0000 0000 0000     ................
	...
 9014120:	0001 0000 0003 0000 0000 0000 2d00 3b80     .............-.;
 9014130:	d5c7 d5e6 00ff 0000 0000 0000 0000 0000     ................
	...
 9014148:	0001 0000 0005 0000 0000 0000 2700 3383     .............'.3
 9014158:	e0bf e3dd ffe8 0000 0000 0000 0000 0000     ................
	...
 9014170:	0001 0000 0001 0000 0000 0000 3b00 5400     .............;.T
 9014180:	dcbd e6d5 dde0 ffd9 0000 0000 0000 0000     ................
	...
 9014198:	0001 0000 0002 0000 0000 0000 0900 0801     ................
 90141a8:	d9c6 e2e3 00ff 0000 0000 0000 0000 0000     ................
	...
 90141c4:	0004 0000 0000 0000 2000 2a00 d9c1 d8e6     ......... .*....
 90141d4:	ffd5 0000 0000 0000 0000 0000 0000 0000     ................
 90141e4:	0000 0000 0001 0000 0003 0000 0000 0000     ................
 90141f4:	2700 3300 e3c6 d9e6 00ff 0000 0000 0000     .'.3............
	...
 9014210:	0001 0000 0003 0000 0000 0000 3900 2401     .............9.$
 9014220:	d9c4 dada 00ff 0000 0000 0000 0000 0000     ................
	...
 9014238:	0001 0000 0002 0000 0000 0000 3300 1301     .............3..
 9014248:	ddc7 e9db e0d9 00ff 0000 0000 0000 0000     ................
	...
 9014260:	0001 0000 0001 0000 0000 0000 2d00 3b81     .............-.;
 9014270:	e7c3 d9e1 d5e6 d8e0 ffd5 0000 0000 0000     ................
	...
 9014288:	0001 0000 0005 0000 0000 0000 3900 2400     .............9.$
 9014298:	e3cc d9d6 e8e6 00ff 0000 0000 0000 0000     ................
	...
 90142b0:	0001 0000 0002 0000 0000 0000 1f00 5e81     ...............^
 90142c0:	e0bb e2d9 00ff 0000 0000 0000 0000 0000     ................
	...
 90142d8:	0001 0000 0003 0000 0000 0000 3200 1485     .............2..
 90142e8:	d9c7 e6e6 dfdd 00ff 0000 0000 0000 0000     ................
	...
 9014300:	0007 0000 0003 0000 0000 0000 5500 4e85     .............U.N
 9014310:	f6cc d9e4 00e0 adc8 00ff 0000 0000 0000     ................
	...
 9014328:	0007 0000 0002 0000 0000 0000 2e00 3c87     ...............<
 9014338:	d9cc e9e1 ffe7 0000 0000 0000 0000 0000     ................
	...
 9014350:	0001 0000 0003 0000 0000 0000 5500 6d07     .............U.m
 9014360:	f6cc d9e4 00e0 adc7 00ff 0000 0000 0000     ................
	...
 9014378:	0001 0000 0002 0000 0000 0000 1300 5787     ...............W
 9014388:	e6bf d5e2 00ff 0000 0000 0000 0000 0000     ................
	...
 90143a0:	0001 0000 0002 0000 0000 0000 5500 4e01     .............U.N
 90143b0:	f6cc d9e4 00e0 adc3 00ff 0000 0000 0000     ................
	...
 90143c8:	0001 0000 0002 0000 0000 0000 5500 6d00     .............U.m
 90143d8:	f6cc d9e4 00e0 adca 00ff 0000 0000 0000     ................
	...
 90143f0:	0001 0000 0002 0000 0000 0000 5500 6d0b     .............U.m
 9014400:	f6cc d9e4 00e0 adc8 00ff 0000 0000 0000     ................
	...
 9014418:	0001 0000 0002 0000 0000 0000 5500 4e02     .............U.N
 9014428:	f6cc d9e4 00e0 adbe 00ff 0000 0000 0000     ................
	...
 9014440:	0001 0000 0002 0000 0000 0000 3800 1b84     .............8..
 9014450:	ddcc ffe2 0000 0000 0000 0000 0015 0017     ................
	...
 9014468:	0007 0000 0004 0000 0000 0000 4100 4308     .............A.C
 9014478:	d5bc e2e6 d6d9 ffed 0000 0000 0000 0000     ................
	...
 9014490:	0001 0000 0002 0000 0000 0000 1d00 2406     ...............$
 90144a0:	e3d1 dae0 ddda ffd9 0000 0000 0000 0000     ................
	...
 90144b8:	0001 0000 0001 0000 0000 0000 1300 5786     ...............W
 90144c8:	e3c5 dde6 e2e2 ffd5 0000 0000 0000 0000     ................
	...
 90144e0:	0001 0000 0002 0000 0000 0000 4100 5a07     .............A.Z
 90144f0:	d5c5 e0e0 dcd9 00ff 0000 0000 0000 0000     ................
	...
 9014508:	0001 0000 0003 0000 0000 0000 3100 5407     .............1.T
 9014518:	d5c5 e1e6 e2dd ffd5 0000 0000 0000 0000     ................
	...
 9014530:	0001 0000 0002 0000 0000 0000 4100 4300     .............A.C
 9014540:	d5d1 e0e0 ede8 ffe6 0000 0000 0000 0000     ................
	...
 9014558:	0001 0000 0001 0000 0000 0000 1900 5401     ...............T
 9014568:	e3cd dce4 d9dd 00ff 0000 0000 0000 0000     ................
	...
 9014580:	0001 0000 0002 0000 0000 0000 2400 3000     .............$.0
 9014590:	d5c7 d5ed 00ff 0000 0000 0000 0000 0000     ................
	...
 90145a8:	0001 0000 0003 0000 0000 0000 0400 0381     ................
 90145b8:	ddcd dfe0 d9ed 00ff 0000 0000 0000 0000     ................
	...
 90145d0:	0001 0000 0002 0000 0000 0000 4000 5902     .............@.Y
 90145e0:	d5d1 e2ed e7dd 00ff 0000 0000 0000 0000     ................
	...
 90145f8:	0001 0000 0003 0000 0000 0000 1c00 2302     ...............#
 9014608:	e6c0 e2d5 ddee dfe7 ffd5 0000 0000 0000     ................
	...
 9014620:	0001 0000 0001 0000 0000 0000 0500 040a     ................
 9014630:	e6be dbd5 ffe3 0000 0000 0000 0000 0000     ................
	...
 9014648:	0001 0000 0004 0000 0000 0000 4100 5a00     .............A.Z
 9014658:	e9cc e3d8 dae0 00ff 0000 0000 0000 0000     ................
	...
 9014670:	0001 0000 0002 0000 0000 0000 4300 5c00     .............C.\
 9014680:	d9c7 e6e6 d7d9 ffdf 0000 0000 0000 0000     ................
	...
 9014698:	0001 0000 0002 0000 0000 0000 3900 5200     .............9.R
 90146a8:	dcce e1ed ffd5 0000 0000 0000 0000 0000     ................
	...
 90146c0:	0001 0000 0003 0000 0000 0000 0000 3980     ...............9
 90146d0:	d5c7 dfdd ffd9 0000 0000 0000 0016 0016     ................
 90146e0:	0017 0017 0000 0000 0017 0000 0003 0000     ................
 90146f0:	0000 0000 0000 3980 d5c7 dfdd ffd9 0000     .......9........
 9014700:	0000 0000 0016 0016 0017 0017 0000 0000     ................
 9014710:	0017 0000 0003 0000 0000 0000 0000 3980     ...............9
 9014720:	d5c7 dfdd ffd9 0000 0000 0000 0016 0016     ................
 9014730:	0017 0017 0000 0000 0017 0000 0003 0000     ................
 9014740:	0000 0000 3100 5480 d5c4 dde2 d5e2 00ff     .....1.T........
	...
 9014760:	0001 0000 0002 0000 0000 0000 4100 5a00     .............A.Z
 9014770:	e9c1 e2e2 d5eb d8e6 00ff 0000 0000 0000     ................
	...
 9014788:	0001 0000 0002 0000 0000 0000 2d00 3b02     .............-.;
 9014798:	d9c2 e6e2 d9dd e8e8 ffd5 0000 0000 0000     ................
	...
 90147b0:	0001 0000 0005 0000 0000 0000 3300 5600     .............3.V
 90147c0:	e3cd e2e2 d5eb d8e0 00ff 0000 0000 0000     ................
	...
 90147d8:	0001 0000 0002 0000 0000 0000 0e00 3600     ...............6
 90147e8:	d5d0 d9e0 e2ed ede8 ffe2 0000 0000 0000     ................
	...
 9014800:	0001 0000 0002 0000 0000 0000 5500 4e80     .............U.N
 9014810:	f6cc d9e4 00e0 adc7 00ff 0000 0000 0000     ................
	...
 9014828:	0001 0000 0002 0000 0000 0000 2700 3380     .............'.3
 9014838:	d5c4 dde2 ffd9 0000 0000 0000 0000 0000     ................
	...
 9014850:	0001 0000 0002 0000 0000 0000 2e00 3d00     ...............=
 9014860:	e7c3 d9e1 d5e6 00ff 0000 0000 0000 0000     ................
	...
 9014878:	0001 0000 0002 0000 0000 0000 3200 5300     .............2.S
 9014888:	e9bf dee7 d5d9 ffe2 0000 0000 0000 0000     ................
	...
 90148a0:	0001 0000 0003 0000 0000 0000 0d00 0d00     ................
 90148b0:	e9cc d8d8 e6d9 d7dd ffdc 0000 0013 0013     ................
	...
 90148c8:	0001 0000 0001 0000 0000 0000 1500 1600     ................
 90148d8:	e8bb dde8 dde0 ffd5 0000 0000 0000 0000     ................
	...
 90148f0:	0001 0000 0002 0000 0000 0000 4100 5a00     .............A.Z
 9014900:	d5c1 dbe2 e0e3 ffda 0000 0000 0000 0000     ................
	...
 9014918:	0001 0000 0004 0000 0000 0000 2200 2e00     ............."..
 9014928:	d6bb e9d8 e0dc 00ff 0000 0000 0000 0000     ................
	...
 9014940:	0001 0000 0002 0000 0000 0000 0300 0100     ................
 9014950:	d9c1 e6e6 d9dd 00ff 0000 0000 0000 0000     ................
	...
 9014968:	0001 0000 0002 0000 0000 0000 0300 0280     ................
 9014978:	d5c7 dee6 ffd5 0000 0000 0000 0000 0000     ................
	...
 9014990:	0001 0000 0003 0000 0000 0000 0300 0280     ................
 90149a0:	d5bc e0e0 ffd5 0000 0000 0000 0000 0000     ................
	...
 90149b8:	0001 0000 0003 0000 0000 0000 0400 0380     ................
 90149c8:	e9cc e2d5 d5e2 00ff 0000 0000 0000 0000     ................
	...
 90149e0:	0001 0000 0002 0000 0000 0000 4400 5d00     .............D.]
 90149f0:	e3ce e1e1 e7d5 00ff 0000 0000 0000 0000     ................
	...
 9014a08:	0001 0000 0001 0000 0000 0000 0300 0200     ................
 9014a18:	d5c2 e2e2 dcd5 00ff 0000 0000 0000 0000     ................
	...
 9014a30:	0001 0000 0003 0000 0000 0000 0300 0200     ................
 9014a40:	e3cd dce4 ffed 0000 0000 0000 0000 0000     ................
	...
 9014a58:	0001 0000 0002 0000 0000 0000 0300 0100     ................
 9014a68:	d9cc e0e0 00ff 0000 0000 0000 0000 0000     ................
	...
 9014a80:	0001 0000 0003 0000 0000 0000 2400 3080     .............$.0
 9014a90:	d5c7 dbdb ffed 0000 0000 0000 0000 0000     ................
	...
 9014aa8:	0001 0000 0003 0000 0000 0000 2200 6801     .............".h
 9014ab8:	e6c5 e7dd ffe7 0000 0000 0000 0000 0000     ................
	...
 9014ad0:	0001 0000 0002 0000 0000 0000 1500 6401     ...............d
 9014ae0:	e3bd e0d5 00ff 0000 0000 0000 0000 0000     ................
	...
 9014af8:	0001 0000 0003 0000 0000 0000 1600 7b01     ...............{
 9014b08:	e6c0 e9d5 dfe2 00ff 0000 0000 0000 0000     ................
	...
 9014b20:	0001 0000 0002 0000 0000 0000 1f00 5e01     ...............^
 9014b30:	dccd e0d9 e3d8 ffe2 0000 0000 0000 0000     ................
	...
 9014b48:	0001 0000 0002 0000 0000 0000 1000 6901     ...............i
 9014b58:	d5cc dce7 ffdd 0000 0000 0000 0000 0000     ................
	...
 9014b70:	0001 0000 0001 0000 0000 0000 2400 3081     .............$.0
 9014b80:	d5c7 d5ed d5e1 00ff 0000 0000 0000 0000     ................
	...
 9014b98:	0001 0000 0002 0000 0000 0000 1f00 5e81     ...............^
 9014ba8:	e3be d5e6 ffe2 0000 0000 0000 0000 0000     ................
	...
 9014bc0:	0001 0000 0003 0000 0000 0000 1000 6981     ...............i
 9014bd0:	ddcc dcd7 e6d5 ffd8 0000 0000 0000 0000     ................
	...
 9014be8:	0001 0000 0002 0000 0000 0000 0300 0281     ................
 9014bf8:	e0bf d5e7 00ff 0000 0000 0000 0000 0000     ................
	...
 9014c10:	0001 0000 0003 0000 0000 0000 4100 5a01     .............A.Z
 9014c20:	d9c1 e6e6 d8d5 00ff 0000 0000 0000 0000     ................
	...
 9014c38:	0001 0000 0002 0000 0000 0000 3b00 5481     .............;.T
 9014c48:	ddc6 ddea ffd5 0000 0000 0000 0000 0000     ................
	...
 9014c60:	0001 0000 0002 0000 0000 0000 2400 3001     .............$.0
 9014c70:	e3c6 d9e6 e8e8 ffd5 0000 0000 0000 0000     ................
	...
 9014c88:	0001 0000 0002 0000 0000 0000 1000 6901     ...............i
 9014c98:	e3ce ddd6 dce7 00ff 0000 0000 0000 0000     ................
	...
 9014cb0:	0001 0000 0001 0000 0000 0000 2400 3081     .............$.0
 9014cc0:	dcbd dde6 e8e7 e2dd ffd5 0000 0000 0000     ................
	...
 9014cd8:	0001 0000 0003 0000 0000 0000 1000 6981     ...............i
 9014ce8:	d9c1 d8e6 00ff 0000 0000 0000 0000 0000     ................
	...
 9014d00:	0001 0000 0001 0000 0000 0000 0600 0581     ................
 9014d10:	e0bf e7dd ffd9 0000 0000 0000 0000 0000     ................
	...
 9014d28:	0001 0000 0006 0000 0000 0000 0500 0481     ................
 9014d38:	d9c0 e0e0 d7dd e3dc 00ff 0000 0000 0000     ................
	...
 9014d50:	0001 0000 0002 0000 0000 0000 1600 1700     ................
 9014d60:	ddc8 e3df d5e0 ffe7 0000 0000 0000 0000     ................
	...
 9014d78:	0001 0000 0002 0000 0000 0000 0900 6e00     ...............n
 9014d88:	e3c6 d9e6 eee2 00ff 0000 0000 0013 0013     ................
	...
 9014da0:	0001 0000 0003 0000 0000 0000 3200 4200     .............2.B
 9014db0:	ddcc dcd7 e6d5 e3d8 00ff 0000 0000 0000     ................
	...
 9014dc8:	0001 0000 0002 0000 0000 0000 3700 4780     .............7.G
 9014dd8:	e0bb e7ed d5e7 00ff 0000 0000 0000 0000     ................
	...
 9014df0:	0001 0000 0002 0000 0000 0000 3700 4800     .............7.H
 9014e00:	e0bb e7d9 e3dd ffe2 0000 0000 0000 0000     ................
	...
 9014e18:	0001 0000 0001 0000 0000 0000 4000 5900     .............@.Y
 9014e28:	d9c4 e7e7 ffd9 0000 0000 0000 0000 0000     ................
	...
 9014e40:	0001 0000 0002 0000 0000 0000 3700 4700     .............7.G
 9014e50:	e0bf d5ed 00ff 0000 0000 0000 0000 0000     ................
	...
 9014e68:	0001 0000 0002 0000 0000 0000 5500 6d00     .............U.m
 9014e78:	f6cc d9e4 00e0 adc7 00ff 0000 0000 0000     ................
	...
 9014e90:	0001 0000 0003 0000 0000 0000 5500 4e00     .............U.N
 9014ea0:	f6cc d9e4 00e0 adc4 00ff 0000 0000 0000     ................
	...
 9014eb8:	0001 0000 0001 0000 0000 0000 5500 6d80     .............U.m
 9014ec8:	f6cc d9e4 00e0 adc1 00ff 0000 0000 0000     ................
	...
 9014ee0:	0001 0000 0002 0000 0000 0000 5500 4e00     .............U.N
 9014ef0:	f6cc d9e4 00e0 adcd 00ff 0000 0000 0000     ................
	...
 9014f08:	0001 0000 0001 0000 0000 0000 5500 4900     .............U.I
 9014f18:	e0bf e8dd 00d9 add0 00ff 0000 0000 0000     ................
	...
 9014f30:	0001 0000 0003 0000 0000 0000 1200 1200     ................
 9014f40:	d5cc dce4 d9d5 ffe0 0000 0000 0000 0000     ................
	...
 9014f58:	0001 0000 0002 0000 0000 0000 3d00 5600     .............=.V
 9014f68:	d5ce e7e7 ffe3 0000 0000 0000 0000 0000     ................
	...
 9014f80:	0001 0000 0003 0000 0000 0000 0c00 6200     ...............b
 9014f90:	edbd e6d5 d5e0 00ff 0000 0000 0000 0000     ................
	...
 9014fa8:	0001 0000 0002 0000 0000 0000 1300 5780     ...............W
 9014fb8:	e7c3 dde7 d8e0 ffd9 0000 0000 0000 0000     ................
	...
 9014fd0:	0001 0000 0004 0000 0000 0000 1600 1702     ................
 9014fe0:	d9c1 d9eb e8e6 00ff 0000 0000 0000 0000     ................
	...
 9014ff8:	0001 0000 0001 0000 0000 0000 4000 5982     .............@.Y
 9015008:	e6bd e7dd dde7 d5e0 ffe7 0000 0000 0000     ................
	...
 9015020:	0001 0000 0002 0000 0000 0000 2e00 3d82     ...............=
 9015030:	d9c2 ebd8 dbdd 00ff 0000 0000 0000 0000     ................
	...
 9015048:	0001 0000 0003 0000 0000 0000 3100 5482     .............1.T
 9015058:	e9cc dce8 00ff 0000 0000 0000 0000 0000     ................
	...
 9015070:	0001 0000 0002 0000 0000 0000 4100 5a02     .............A.Z
 9015080:	e2c3 e3db 00ff 0000 0000 0000 0000 0000     ................
	...
 9015098:	0001 0000 0004 0000 0000 0000 1900 1e82     ................
 90150a8:	d5c7 dde6 d5de 00ff 0000 0000 0000 0000     ................
	...
 90150c0:	0001 0000 0001 0000 0000 0000 0900 6f82     ...............o
 90150d0:	d5c4 d5e2 00ff 0000 0000 0000 0013 0000     ................
	...
 90150e8:	0001 0000 0003 0000 0000 0000 6900 9282     .............i..
 90150f8:	d5c8 dce8 e0d5 d9dd 00ff 0000 0013 0000     ................
	...
 9015110:	0001 0000 0002 0000 0000 0000 4300 5c80     .............C.\
 9015120:	f6cc ddd8 d5db ffe6 0000 0000 0000 0000     ................
	...
 901513c:	0002 0000 0000 0000 2d00 3b80 d5c2 e2e2     .........-.;....
 901514c:	d5ed 00ff 0000 0000 0000 0000 0000 0000     ................
	...
 9015164:	0006 0000 0000 0000 4100 5a00 d5c2 dbdb     .........A.Z....
 9015174:	e3e6 ffe2 0000 0000 0000 0000 0000 0000     ................
	...
 901518c:	0002 0000 0000 0000 2700 5600 e3c4 d9e7     .........'.V....
 901519c:	e4e4 ffe3 0000 0000 0000 0000 0000 0000     ................
	...
 90151b4:	0004 0000 0000 0000 1200 1200 d5ce ede6     ................
 90151c4:	dfe9 00ff 0000 0000 0000 0000 0000 0000     ................
	...
 90151dc:	0002 0000 0000 0000 5500 6d00 f6cc d9e4     .........U.m....
 90151ec:	00e0 adc7 00ff 0000 0000 0000 0000 0000     ................
	...
 9015204:	0002 0000 0000 0000 5500 4e80 f6cc d9e4     .........U.N....
 9015214:	00e0 adcc 00ff 0000 0000 0000 0000 0000     ................
	...
 901522c:	0003 0000 0000 0000 5500 6d00 f6cc d9e4     .........U.m....
 901523c:	00e0 adc6 00ff 0000 0000 0000 0000 0000     ................
	...
 9015254:	0002 0000 0000 0000 5500 4e80 f6cc d9e4     .........U.N....
 9015264:	00e0 add3 00ff 0000 0000 0000 0000 0000     ................
	...
 901527c:	0001 0000 0000 0000 5500 4e80 f6cc d9e4     .........U.N....
 901528c:	00e0 adbe 00ff 0000 0000 0000 0000 0000     ................
	...
 90152a4:	0002 0000 0000 0000 5500 6d00 f6cc d9e4     .........U.m....
 90152b4:	00e0 adc6 00ff 0000 0000 0000 0000 0000     ................
	...
 90152cc:	0001 0000 0000 0000 0900 6f80 e9bd e6e6     ...........o....
 90152dc:	e7dd 00ff 0000 0000 0013 0013 0000 0000     ................
	...
 90152f4:	0003 0000 0000 0000 3800 6003 ddc7 e8e7     .........8.`....
 9015304:	d5e6 ffe0 0000 0000 0000 0000 0000 0000     ................
 9015314:	0001 0040 0107 0000 0002 0000 0000 0000     ..@.............
 9015324:	1d00 5203 d5be dde6 ffe3 0000 0000 0000     ...R............
	...
 9015340:	0001 0000 0004 0000 0000 0000 1200 1203     ................
 9015350:	d9c1 e6e6 e8dd 00ff 0000 0000 0000 0000     ................
	...
 9015368:	0001 0000 0003 0000 0000 0000 5500 6d03     .............U.m
 9015378:	f6cc d9e4 ffe0 0000 0000 0000 0000 0000     ................
	...
 9015390:	0001 0000 0003 0000 0000 0000 5500 4900     .............U.I
 90153a0:	e0bf e8dd 00d9 adc2 00ff 0000 0000 0000     ................
	...
 90153b8:	0001 0000 0003 0000 0000 0000 5500 4a00     .............U.J
 90153c8:	e0bf e8dd 00d9 adc7 00ff 0000 0000 0000     ................
	...
 90153e0:	0001 0000 0002 0000 0000 0000 5500 4e80     .............U.N
 90153f0:	f6cc d9e4 00e0 adc5 00ff 0000 0000 0000     ................
	...
 9015408:	0001 0000 0002 0000 0000 0000 5500 6d00     .............U.m
 9015418:	f6cc d9e4 00e0 adc1 00ff 0000 0000 0000     ................
	...
 9015430:	0001 0000 0003 0000 0000 0000 5500 4983     .............U.I
 9015440:	e0bf e8dd 00d9 adc8 00ff 0000 0000 0000     ................
	...
 9015458:	0001 0000 0003 0000 0000 0000 5100 6a00     .............Q.j
 9015468:	debc e6f5 ffe2 0000 0000 0000 0000 0000     ................
	...
 9015480:	0005 0000 0002 0000 0000 0000 5100 6a00     .............Q.j
 9015490:	debc e6f5 ffe2 0000 0000 0000 0000 0000     ................
	...
 90154a8:	0005 0000 0002 0000 0000 0000 5100 6a00     .............Q.j
 90154b8:	debc e6f5 ffe2 0000 0000 0000 0000 0000     ................
	...
 90154d0:	0005 0000 0002 0000 0000 0000 5400 7400     .............T.t
 90154e0:	d9c6 e8e7 e6d9 00ff 0000 0000 0016 0016     ................
 90154f0:	0000 0000 0000 0040 0007 0000 0003 0000     ......@.........
 9015500:	0000 0000 5400 7581 e3cc d5e7 dde0 ffd9     .....T.u........
 9015510:	0000 0000 0016 0016 0015 0017 0000 0040     ..............@.
 9015520:	0007 0000 0004 0000 0000 0000 5400 7600     .............T.v
 9015530:	d5c7 e9e2 e0d9 00ff 0000 0000 0015 0017     ................
 9015540:	0015 0016 0000 0040 0007 0000 0005 0000     ......@.........
 9015550:	0000 0000 5100 6a00 debc e6f5 ffe2 0000     .....Q.j........
 9015560:	0000 0000 0016 0016 0017 0000 0000 0000     ................
 9015570:	0007 0000 0003 0000 0000 0000 5100 6a00     .............Q.j
 9015580:	debc e6f5 ffe2 0000 0000 0000 0016 0016     ................
 9015590:	0017 0000 0000 0000 0007 0000 0003 0000     ................
 90155a0:	0000 0000 5100 6a00 debc e6f5 ffe2 0000     .....Q.j........
	...
 90155c0:	0007 0000 0003 0000 0000 0000 5100 6a00     .............Q.j
 90155d0:	debc e6f5 ffe2 0000 0000 0000 0000 0000     ................
	...
 90155e8:	0007 0000 0004 0000 0000 0000 5100 6a00     .............Q.j
 90155f8:	debc e6f5 ffe2 0000 0000 0000 0000 0000     ................
	...
 9015610:	0007 0000 0004 0000 0000 0000 5100 6a00     .............Q.j
 9015620:	debc e6f5 ffe2 0000 0000 0000 0000 0000     ................
	...
 9015638:	0007 0000 0004 0000 0000 0000 1200 1200     ................
 9015648:	e6c0 e2d9 ddee ffe7 0000 0000 0000 0000     ................
	...
 9015660:	0001 0000 0003 0000 0000 0000 0c00 0c81     ................
 9015670:	edc3 e7e0 ffd5 0000 0000 0000 0000 0000     ................
	...
 9015688:	0001 0000 0001 0000 0000 0000 3300 5600     .............3.V
 9015698:	d9c0 e6e6 e7ed 00ff 0000 0000 0000 0000     ................
	...
 90156b0:	0001 0000 0002 0000 0000 0000 1600 1701     ................
 90156c0:	e0c9 ead5 e6d9 00ff 0000 0000 0000 0000     ................
	...
 90156d8:	0001 0000 0003 0000 0000 0000 2100 2d01     .............!.-
 90156e8:	ddd0 e1e7 edd5 ffe6 0000 0000 0000 0000     ................
	...
 9015700:	0001 0000 0001 0000 0000 0000 5400 7980     .............T.y
 9015710:	dbc3 d5ea 00ff 0000 0000 0000 0015 0015     ................
 9015720:	0016 0000 0000 0040 0007 0000 0004 0000     ......@.........
 9015730:	0000 0000 1000 1002 e9ca ffdf 0000 0000     ................
	...
 9015750:	0001 0000 0002 0000 0000 0000 1f00 2600     ...............&
 9015760:	d5c6 eee2 e0d9 d8e3 00ff 0000 0000 0000     ................
	...
 9015778:	0001 0000 0003 0000 0000 0000 3200 4201     .............2.B
 9015788:	edc7 dfe6 ffe3 0000 0000 0000 0000 0000     ................
	...
 90157a0:	0001 0000 0002 0000 0000 0000 2d00 3b01     .............-.;
 90157b0:	d5c5 dce8 ffed 0000 0000 0000 0000 0000     ................
	...
 90157c8:	0001 0000 0005 0000 0000 0000 2000 2a84     ............. .*
 90157d8:	edc8 d5e2 00ff 0000 0000 0000 0000 0000     ................
	...
 90157f0:	0001 0000 0001 0000 0000 0000 2600 3281     .............&.2
 9015800:	dcce e6d9 eed9 ffd5 0000 0000 0000 0000     ................
	...
 9015818:	0001 0000 0003 0000 0000 0000 0700 0702     ................
 9015828:	d9d1 e6ed d9e2 ffe6 0000 0000 0000 0000     ................
	...
 9015840:	0001 0000 0002 0000 0000 0000 0f00 0f02     ................
 9015850:	edc5 dde0 e2d5 00ff 0000 0000 0000 0000     ................
	...
 9015868:	0001 0000 0003 0000 0000 0000 2600 3281     .............&.2
 9015878:	d9cd d9e0 d5e2 00ff 0000 0000 0000 0000     ................
	...
 9015890:	0001 0000 0002 0000 0000 0000 0f00 0f02     ................
 90158a0:	e3be dbe9 00ff 0000 0000 0000 0000 0000     ................
	...
 90158b8:	0001 0000 0003 0000 0000 0000 2000 2902     ............. .)
 90158c8:	d9c4 e2ed ffe7 0000 0000 0000 0000 0000     ................
	...
 90158e0:	0001 0000 0003 0000 0000 0000 2600 3281     .............&.2
 90158f0:	d5c7 e6d5 ffd5 0000 0000 0000 0000 0000     ................
	...
 9015908:	0001 0000 0001 0000 0000 0000 2600 3281     .............&.2
 9015918:	e0c9 eaed d5dd 00ff 0000 0000 0000 0000     ................
	...
 9015930:	0001 0000 0003 0000 0000 0000 1f00 2600     ...............&
 9015940:	d9c7 e7ed e8e9 00ff 0000 0000 0000 0000     ................
	...
 9015958:	0001 0000 0002 0000 0000 0000 0f00 0f02     ................
 9015968:	edc5 e6d5 ffe0 0000 0000 0000 0000 0000     ................
	...
 9015980:	0001 0000 0003 0000 0000 0000 0f00 0f02     ................
 9015990:	eec9 d5e0 ffea 0000 0000 0000 0000 0000     ................
	...
 90159a8:	0001 0000 0001 0000 0000 0000 2600 3281     .............&.2
 90159b8:	e6c5 d5d9 dde2 d5e8 00ff 0000 0000 0000     ................
	...
 90159d0:	0001 0000 0002 0000 0000 0000 2600 3281     .............&.2
 90159e0:	ddc8 d6e1 ffd5 0000 0000 0000 0000 0000     ................
	...
 90159f8:	0001 0000 0003 0000 0000 0000 0f00 0f02     ................
 9015a08:	edc7 e8d5 ffe8 0000 0000 0000 0000 0000     ................
	...
 9015a20:	0001 0000 0002 0000 0000 0000 2600 3281     .............&.2
 9015a30:	e3c4 d5ed e2e2 ffd5 0000 0000 0000 0000     ................
	...
 9015a48:	0001 0000 0001 0000 0000 0000 1f00 2600     ...............&
 9015a58:	d5c7 e7e8 00ff 0000 0000 0000 0000 0000     ................
	...
 9015a70:	0001 0000 0003 0000 0000 0000 0f00 0f02     ................
 9015a80:	d5c4 d7ed d6e3 00ff 0000 0000 0000 0000     ................
	...
 9015a98:	0001 0000 0002 0000 0000 0000 0f00 0f02     ................
 9015aa8:	d9c4 e4e7 e6d9 00ff 0000 0000 0000 0000     ................
	...
 9015ac0:	0001 0000 0001 0000 0000 0000 2000 2c81     ............. .,
 9015ad0:	e6c3 d5e1 00ff 0000 0000 0000 0000 0000     ................
	...
 9015ae8:	0001 0000 0002 0000 0000 0000 2600 3281     .............&.2
 9015af8:	d9c2 d9e0 e2ed ffd5 0000 0000 0000 0000     ................
	...
 9015b10:	0001 0000 0003 0000 0000 0000 2000 2b02     ............. .+
 9015b20:	d9c2 ede6 d9d6 e8e6 00ff 0000 0000 0000     ................
	...
 9015b38:	0001 0000 0003 0000 0000 0000 1000 1002     ................
 9015b48:	d5d1 eeee ede0 00ff 0000 0000 0000 0000     ................
	...
 9015b60:	0001 0000 0001 0000 0000 0000 3700 4781     .............7.G
 9015b70:	d5c8 dde1 d5e6 00ff 0000 0000 0000 0000     ................
	...
 9015b88:	0001 0000 0003 0000 0000 0000 0f00 0f02     ................
 9015b98:	dccd ead9 00ff 0000 0000 0000 0000 0000     ................
	...
 9015bb0:	0001 0000 0003 0000 0000 0000 2000 2902     ............. .)
 9015bc0:	e0bd e9d5 ffe7 0000 0000 0000 0000 0000     ................
	...
 9015bd8:	0001 0000 0002 0000 0000 0000 2600 3281     .............&.2
 9015be8:	d9c2 e6e6 ffd5 0000 0000 0000 0000 0000     ................
	...
 9015c00:	0001 0000 0001 0000 0000 0000 0f00 0f02     ................
 9015c10:	e2bb e3e8 dde2 ffe2 0000 0000 0000 0000     ................
	...
 9015c28:	0001 0000 0002 0000 0000 0000 0a00 0a01     ................
 9015c38:	edc7 e6e6 ffd5 0000 0000 0000 0000 0000     ................
	...
 9015c50:	0001 0000 0003 0000 0000 0000 1500 1501     ................
 9015c60:	d9ca e6e8 e1dd 00ff 0000 0000 0000 0000     ................
	...
 9015c78:	0001 0000 0002 0000 0000 0000 2000 2c81     ............. .,
 9015c88:	e3bd ede6 00ff 0000 0000 0000 0000 0000     ................
	...
 9015ca0:	0001 0000 0003 0000 0000 0000 2600 3281     .............&.2
 9015cb0:	e3d0 deed ffd5 0000 0000 0000 0000 0000     ................
	...
 9015cc8:	0001 0000 0002 0000 0000 0000 1f00 2600     ...............&
 9015cd8:	e9c6 d7d7 e2dd ffdd 0000 0000 0000 0000     ................
	...
 9015cf0:	0001 0000 0004 0000 0000 0000 0a00 0a81     ................
 9015d00:	e0bf d5e7 00ff 0000 0000 0000 0000 0000     ................
	...
 9015d18:	0001 0000 0003 0000 0000 0000 3200 4201     .............2.B
 9015d28:	ddbe e8e7 e7d5 00ff 0000 0000 0000 0000     ................
	...
 9015d40:	0001 0000 0002 0000 0000 0000 5b00 7e81     .............[.~
 9015d50:	e6cf ddd9 ffd5 0000 0000 0000 0000 0000     ................
	...
 9015d68:	0001 0000 0003 0000 0000 0000 0900 0802     ................
 9015d78:	d9be e8dd e6d9 00ff 0000 0000 0013 0013     ................
	...
 9015d90:	0005 0000 0003 0000 0000 0000 0a00 0a80     ................
 9015da0:	e6bf d7dd ffd5 0000 0000 0000 0000 0000     ................
	...
 9015db8:	0001 0000 0001 0000 0000 0000 1500 1500     ................
 9015dc8:	d9c8 e9e4 e9e1 ffdf 0000 0000 0000 0000     ................
	...
 9015de0:	0001 0000 0002 0000 0000 0000 5b00 7e00     .............[.~
 9015df0:	e9bb d9e6 dde0 ffd5 0000 0000 0000 0000     ................
	...
 9015e08:	0001 0000 0001 0000 0000 0000 5500 4e80     .............U.N
 9015e18:	f6cc d9e4 00e0 adc2 00ff 0000 0000 0000     ................
	...
 9015e30:	0001 0000 0003 0000 0000 0000 5500 6d00     .............U.m
 9015e40:	f6cc d9e4 00e0 adc0 00ff 0000 0000 0000     ................
	...
 9015e58:	0001 0000 0002 0000 0000 0000 1500 1500     ................
 9015e68:	d9c8 e3e1 00ff 0000 0000 0000 0000 0000     ................
	...
 9015e80:	0001 0000 0002 0000 0630 0000 1500 1500     ........0.......
 9015e90:	edc7 dfe6 ffe3 0000 0000 0000 0000 0000     ................
	...
 9015ea8:	0001 0000 0001 0000 0630 0000 1500 1500     ........0.......
 9015eb8:	d6c9 d5e6 e8e7 00ff 0000 0000 0000 0000     ................
	...
 9015ed0:	0001 0000 0003 0000 0630 0000 1500 1500     ........0.......
 9015ee0:	e3c4 d5dc e2ed 00ff 0000 0000 0000 0000     ................
	...
 9015ef8:	0001 0000 0002 0000 0630 0000 0a00 0a80     ........0.......
 9015f08:	e9c1 ede0 d5e6 00ff 0000 0000 0000 0000     ................
	...
 9015f20:	0001 0000 0002 0000 0630 0000 0a00 0a80     ........0.......
 9015f30:	d5bd e7e7 d5e2 00ff 0000 0000 0000 0000     ................
	...
 9015f48:	0001 0000 0001 0000 0630 0000 0a00 0a80     ........0.......
 9015f58:	e2bb ffd5 0000 0000 0000 0000 0000 0000     ................
	...
 9015f70:	0001 0000 0003 0000 0630 0000 0a00 0a80     ........0.......
 9015f80:	e2bb e6d8 d5d9 d5ee 00ff 0000 0000 0000     ................
	...
 9015f98:	0001 0000 0002 0000 0630 0000 1600 1700     ........0.......
 9015fa8:	d9cd dbe6 ded9 00ff 0000 0000 0000 0000     ................
	...
 9015fc0:	0001 0000 0003 0000 0630 0000 0a00 0a80     ........0.......
 9015fd0:	d9be e3d6 d5e6 00ff 0000 0000 0000 0000     ................
	...
 9015fe8:	0001 0000 0002 0000 0000 0000 0f00 0f02     ................
 9015ff8:	e6bf e2e3 00ff 0000 0000 0000 0000 0000     ................
	...
 9016010:	0001 0000 0003 0000 0000 0000 2600 3281     .............&.2
 9016020:	d5c1 d7e6 d5dd d5e0 00ff 0000 0000 0000     ................
	...
 9016038:	0001 0000 0001 0000 0000 0000 2600 3281     .............&.2
 9016048:	d6c9 e0e3 ffd5 0000 0000 0000 0013 0013     ................
	...
 9016060:	0007 0000 0003 0000 0000 0000 1f00 2600     ...............&
 9016070:	e4c9 e8d9 e6d9 00ff 0000 0000 0000 0000     ................
	...
 9016088:	0001 0000 0002 0000 0000 0000 2600 3281     .............&.2
 9016098:	d5c8 edd8 e2dd ffd9 0000 0000 0000 0000     ................
	...
 90160b0:	0001 0000 0002 0000 0000 0000 0f00 0f02     ................
 90160c0:	ddc5 ffd8 0000 0000 0000 0000 0000 0000     ................
	...
 90160d8:	0001 0000 0003 0000 0000 0000 2600 3281     .............&.2
 90160e8:	e3bd d8e6 e0e9 ffd5 0000 0000 0000 0000     ................
	...
 9016100:	0001 0000 0001 0000 0000 0000 1f00 2600     ...............&
 9016110:	e3c4 dce7 e9dc ffd5 0000 0000 0000 0000     ................
	...
 9016128:	0001 0000 0004 0000 0000 0000 2200 6800     .............".h
 9016138:	e3cc e1ed e2d5 00ff 0000 0000 0000 0000     ................
	...
 9016150:	0001 0000 0002 0000 0000 0000 0f00 0f02     ................
 9016160:	d5bc dde7 ffe0 0000 0000 0000 0000 0000     ................
	...
 9016178:	0001 0000 0003 0000 0000 0000 2900 3502     .............).5
 9016188:	e3ca d9e4 ffdd 0000 0000 0000 0000 0000     ................
	...
 90161a0:	0001 0000 0002 0000 0000 0000 2600 3281     .............&.2
 90161b0:	d5bd e1e6 e2d9 ffd5 0000 0000 0000 0000     ................
	...
 90161c8:	0001 0000 0003 0000 0000 0000 0d00 0d81     ................
 90161d8:	d9be e8ed e6d5 00ff 0000 0000 0013 0013     ................
	...
 90161f0:	0001 0000 0002 0000 0000 0000 0700 0681     ................
 9016200:	e0bb ddd5 ede7 ffd5 0000 0000 0000 0000     ................
	...
 9016218:	0001 0000 0003 0000 0000 0000 0f00 0f02     ................
 9016228:	e3ce e1e6 e2d9 00ff 0000 0000 0000 0000     ................
	...
 9016240:	0001 0000 0002 0000 0000 0000 2e00 3c81     ...............<
 9016250:	d5c7 e6dd ffd5 0000 0000 0000 0000 0000     ................
	...
 9016268:	0001 0000 0003 0000 0000 0000 3000 1981     .............0..
 9016278:	d5c2 e2e2 edd9 ffe7 0000 0000 0000 0000     ................
	...
 9016290:	0001 0000 0002 0000 0000 0000 2400 3081     .............$.0
 90162a0:	d5bc d5e0 d5e2 00ff 0000 0000 0000 0000     ................
	...
 90162b8:	0001 0000 0003 0000 0000 0000 2600 3281     .............&.2
 90162c8:	edbc e2d5 d5d7 00ff 0000 0000 0000 0000     ................
	...
 90162e0:	0001 0000 0002 0000 0000 0000 0f00 0f02     ................
 90162f0:	d5ce dae9 e0d9 00ff 0000 0000 0000 0000     ................
	...
 9016308:	0001 0000 0003 0000 0000 0000 3700 4781     .............7.G
 9016318:	d5c6 e6e9 e2d9 ffd5 0000 0000 0000 0000     ................
	...
 9016330:	0001 0000 0002 0000 0000 0000 3700 4802     .............7.H
 9016340:	e9c6 ffd7 0000 0000 0000 0000 0000 0000     ................
	...
 9016358:	0001 0000 0001 0000 0000 0000 3700 4802     .............7.H
 9016368:	d8bb e1d5 00ff 0000 0000 0000 0000 0000     ................
	...
 9016380:	0001 0000 0003 0000 0000 0000 1c00 5781     ...............W
 9016390:	edbb e2db ffd5 0000 0000 0000 0000 0000     ................
	...
 90163a8:	0001 0000 0001 0000 0000 0000 2200 2e02     ............."..
 90163b8:	d5c7 e2db e7e9 00ff 0000 0000 0000 0000     ................
	...
 90163d0:	0001 0000 0003 0000 0000 0000 2000 2902     ............. .)
 90163e0:	d5cd dddf ffe1 0000 0000 0000 0000 0000     ................
	...
 90163f8:	0001 0000 0004 0000 0000 0000 3700 4802     .............7.H
 9016408:	e3c4 d5e2 dce8 e7dd 00ff 0000 0000 0000     ................
	...
 9016420:	0001 0000 0001 0000 0000 0000 0900 6f81     ...............o
 9016430:	d5c7 dbe6 e8e3 00ff 0000 0000 0013 0015     ................
 9016440:	0017 0000 0000 0000 0001 0000 0003 0000     ................
 9016450:	0000 0000 0500 0402 d5c7 d5df ffda 0000     ................
 9016460:	0000 0000 0013 0015 0017 0000 0000 0000     ................
 9016470:	0001 0000 0002 0000 0000 0000 2e00 3d02     ...............=
 9016480:	d5c5 dee8 ffd9 0000 0000 0000 0000 0000     ................
	...
 9016498:	0001 0000 0003 0000 0000 0000 3700 4802     .............7.H
 90164a8:	ddcc dcd7 ead5 d8dd 00ff 0000 0000 0000     ................
	...
 90164c0:	0001 0000 0002 0000 0000 0000 3700 4781     .............7.G
 90164d0:	ddc7 e7e7 ffd5 0000 0000 0000 0000 0000     ................
	...
 90164e8:	0001 0000 0001 0000 0000 0000 3100 4181     .............1.A
 90164f8:	ddbc e8e6 ffd5 0000 0000 0000 0000 0000     ................
	...
 9016510:	0001 0000 0002 0000 0000 0000 3700 4781     .............7.G
 9016520:	e0bd e6d5 ffed 0000 0000 0000 0000 0000     ................
	...
 9016538:	0001 0000 0003 0000 0000 0000 0500 0402     ................
 9016548:	e3c6 e3ec e3d8 ffe2 0000 0000 0000 0000     ................
	...
 9016560:	0001 0000 0001 0000 0000 0000 1d00 5202     ...............R
 9016570:	e6c0 e8dd ffee 0000 0000 0000 0000 0000     ................
	...
 9016588:	0001 0000 0003 0000 0000 0000 3100 4181     .............1.A
 9016598:	d7cd dddc d5df 00ff 0000 0000 0000 0000     ................
	...
 90165b0:	0001 0000 0002 0000 0000 0000 3700 4802     .............7.H
 90165c0:	e3c2 d5e6 dde8 ffe3 0000 0000 0000 0000     ................
	...
 90165d8:	0001 0000 0002 0000 0000 0000 3700 4781     .............7.G
 90165e8:	d5c5 d5de 00ff 0000 0000 0000 0000 0000     ................
	...
 9016600:	0001 0000 0003 0000 0000 0000 3700 4881     .............7.H
 9016610:	dcce e6e9 d9d6 ffe2 0000 0000 0000 0000     ................
	...
 9016628:	0001 0000 0002 0000 0000 0000 3200 4281     .............2.B
 9016638:	e3c4 e0dc e3e8 ffe2 0000 0000 0000 0000     ................
	...
 9016650:	0001 0000 0004 0000 0000 0000 0400 0381     ................
 9016660:	d5c5 d5de 00ff 0000 0000 0000 0000 0000     ................
	...
 9016678:	0001 0000 0001 0000 0000 0000 2200 2e02     ............."..
 9016688:	d9d2 d9d6 ffd7 0000 0000 0000 0000 0000     ................
	...
 90166a0:	0001 0000 0002 0000 0000 0000 0c00 0c81     ................
 90166b0:	d5c8 d5e8 dce7 ffd5 0000 0000 0000 0000     ................
	...
 90166c8:	0001 0000 0003 0000 0000 0000 1500 1500     ................
 90166d8:	e2bb d9db e3e0 ffe7 0000 0000 0000 0000     ................
	...
 90166f0:	0001 0000 0002 0000 0000 0000 3700 4781     .............7.G
 9016700:	d9ca e6e8 ffd5 0000 0000 0000 0000 0000     ................
	...
 9016718:	0001 0000 0003 0000 0000 0000 1200 1200     ................
 9016728:	d9c6 dce3 00ff 0000 0000 0000 0000 0000     ................
	...
 9016740:	0001 0000 0002 0000 0000 0000 0500 0402     ................
 9016750:	e8cd e4d9 d9dc ffe2 0000 0000 0000 0000     ................
	...
 9016768:	0001 0000 0001 0000 0000 0000 2600 3281     .............&.2
 9016778:	eabf e0d5 d5ed 00ff 0000 0000 0000 0000     ................
	...
 9016790:	0001 0000 0002 0000 0000 0000 1f00 2600     ...............&
 90167a0:	e0c0 e6e3 e2d9 dde8 ffe2 0000 0000 0000     ................
	...
 90167b8:	0001 0000 0003 0000 0000 0000 0a00 0a80     ................
 90167c8:	d5c8 dce8 e0d5 d9dd ffe2 0000 0000 0000     ................
	...
 90167e0:	0001 0000 0003 0000 0000 0000 1d00 3480     ...............4
 90167f0:	e3c5 d6e6 e2dd e9dd ffe7 0000 0000 0000     ................
	...
 9016808:	0001 0000 0002 0000 0000 0000 3700 4881     .............7.H
 9016818:	e3cc ffed 0000 0000 0000 0000 0000 0000     ................
	...
 9016830:	0001 0000 0001 0000 0000 0000 1100 1181     ................
 9016840:	d5ca e0e9 00ff 0000 0000 0000 0000 0000     ................
	...
 9016858:	0001 0000 0001 0000 0000 0000 0500 0402     ................
 9016868:	e0c1 e2d9 ffe2 0000 0000 0000 0000 0000     ................
	...
 9016880:	0001 0000 0002 0000 0000 0000 3700 4781     .............7.G
 9016890:	d5d0 d8e2 ffd5 0000 0000 0000 0000 0000     ................
	...
 90168a8:	0001 0000 0001 0000 0000 0000 3000 1981     .............0..
 90168b8:	d5c4 d9d8 ffe2 0000 0000 0000 0000 0000     ................
	...
 90168d0:	0001 0000 0002 0000 0000 0000 3000 1981     .............0..
 90168e0:	e3be 00e2 d5bd e0e6 ffe3 0000 0000 0000     ................
	...
 90168f8:	0001 0000 0003 0000 0000 0000 3000 1981     .............0..
 9016908:	d5c7 e5e6 d9e9 ffee 0000 0000 0000 0000     ................
	...
 9016920:	0001 0000 0001 0000 0000 0000 3000 1981     .............0..
 9016930:	e9c4 e2d5 00ff 0000 0000 0000 0000 0000     ................
	...
 9016948:	0001 0000 0002 0000 0000 0000 3000 1981     .............0..
 9016958:	d5ca e0d6 ffe3 0000 0000 0000 0000 0000     ................
	...
 9016970:	0001 0000 0003 0000 0000 0000 3000 1981     .............0..
 9016980:	e2bf dde6 e3d7 00ff 0000 0000 0000 0000     ................
	...
 9016998:	0001 0000 0003 0000 0000 0000 0000 3981     ...............9
 90169a8:	d5c7 dfdd ffd9 0000 0000 0000 0015 0015     ................
 90169b8:	0017 0000 0000 0000 0007 0000 0004 0000     ................
 90169c8:	0000 0000 0000 3981 d5c7 dfdd ffd9 0000     .......9........
 90169d8:	0000 0000 0015 0015 0017 0000 0000 0000     ................
 90169e8:	0007 0000 0004 0000 0000 0000 0000 3981     ...............9
 90169f8:	d5c7 dfdd ffd9 0000 0000 0000 0015 0015     ................
 9016a08:	0017 0000 0000 0000 0007 0000 0004 0000     ................
 9016a18:	0000 0000 5400 7780 d9ce dcd5 00ff 0000     .....T.w........
 9016a28:	0000 0000 0015 0015 0017 0000 0000 0040     ..............@.
 9016a38:	0007 0000 0004 0000 0000 0000 1200 1281     ................
 9016a48:	edd4 e9e6 ffe7 0000 0000 0000 0000 0000     ................
	...
 9016a60:	0001 0000 0002 0000 0000 0000 4100 4381     .............A.C
 9016a70:	e9cd e0e0 ffed 0000 0000 0000 0000 0000     ................
	...
 9016a88:	0001 0000 0003 0000 0000 0000 4400 5d02     .............D.]
 9016a98:	d9c2 dde6 e2e3 00ff 0000 0000 0000 0000     ................
	...
 9016ab0:	0001 0000 0002 0000 0000 0000 4400 6802     .............D.h
 9016ac0:	e3c2 ffe4 0000 0000 0000 0000 0000 0000     ................
	...
 9016ad8:	0001 0000 0003 0000 0000 0000 2400 3081     .............$.0
 9016ae8:	e3c5 dee2 ffd5 0000 0000 0000 0000 0000     ................
	...
 9016b00:	0001 0000 0001 0000 0000 0000 0d00 0d02     ................
 9016b10:	e6cf ffe7 0000 0000 0000 0000 0000 0000     ................
	...
 9016b28:	0001 0000 0003 0000 0000 0000 0d00 0d02     ................
 9016b38:	d9bc e8e6 d5e6 ffe1 0000 0000 0013 0014     ................
	...
 9016b50:	0001 0000 0002 0000 0000 0000 2200 2e02     ............."..
 9016b60:	e3cc d5e1 e2ed 00ff 0000 0000 0000 0000     ................
	...
 9016b78:	0001 0000 0002 0000 0000 0000 1600 1700     ................
 9016b88:	d9c2 dde6 d5d6 e8e6 00ff 0000 0000 0000     ................
	...
 9016ba0:	0001 0000 0001 0000 0000 0000 2000 2a80     ............. .*
 9016bb0:	e2bb e6d8 d5d9 00ff 0000 0000 0000 0000     ................
	...
 9016bc8:	0001 0000 0002 0000 0000 0000 2000 0780     ............. ..
 9016bd8:	e6bf d7dd 00ff 0000 0000 0000 0000 0000     ................
	...
 9016bf0:	0001 0000 0003 0000 0000 0000 1f00 2600     ...............&
 9016c00:	d9ca e7e6 e9d9 ffe7 0000 0000 0000 0000     ................
	...
 9016c18:	0001 0000 0001 0000 0000 0000 2700 3380     .............'.3
 9016c28:	d5bd e0e6 ffed 0000 0000 0000 0000 0000     ................
	...
 9016c40:	0001 0000 0002 0000 0000 0000 2900 3502     .............).5
 9016c50:	e0bd dadd ffda 0000 0000 0000 0000 0000     ................
	...
 9016c68:	0001 0000 0003 0000 0000 0000 1f00 2600     ...............&
 9016c78:	e6bb e9e2 dae0 00ff 0000 0000 0000 0000     ................
	...
 9016c90:	0001 0000 0002 0000 0000 0000 1f00 2600     ...............&
 9016ca0:	d5ca e0d6 ffe3 0000 0000 0000 0000 0000     ................
	...
 9016cb8:	0001 0000 0001 0000 0000 0000 1d00 2400     ...............$
 9016cc8:	d5ca e0d6 ffe3 0000 0000 0000 0000 0000     ................
	...
 9016ce0:	0001 0000 0003 0000 0000 0000 1600 1700     ................
 9016cf0:	d5ca e0e9 e7e9 00ff 0000 0000 0000 0000     ................
	...
 9016d08:	0001 0000 0002 0000 0000 0000 2900 3500     .............).5
 9016d18:	d5c1 d5d6 ffe2 0000 0000 0000 0000 0000     ................
	...
 9016d30:	0001 0000 0002 0000 0000 0000 2600 3281     .............&.2
 9016d40:	e2bb d9db dde0 d5df 00ff 0000 0000 0000     ................
	...
 9016d58:	0001 0000 0003 0000 0000 0000 0700 0681     ................
 9016d68:	ddc1 d9ee ffe1 0000 0000 0000 0000 0000     ................
	...
 9016d80:	0001 0000 0001 0000 0000 0000 4000 5902     .............@.Y
 9016d90:	e3c8 e1e6 e2d5 00ff 0000 0000 0000 0000     ................
	...
 9016da8:	0001 0000 0003 0000 0000 0000 1f00 2600     ...............&
 9016db8:	e9c4 dde0 ffe3 0000 0000 0000 0000 0000     ................
	...
 9016dd0:	0001 0000 0002 0000 0000 0000 1f00 2600     ...............&
 9016de0:	d5c5 e0e6 ffe3 0000 0000 0000 0000 0000     ................
	...
 9016df8:	0001 0000 0002 0000 0000 0000 0f00 0f02     ................
 9016e08:	d9ca d9e4 00ff 0000 0000 0000 0000 0000     ................
	...
 9016e20:	0001 0000 0001 0000 0000 0000 2600 3281     .............&.2
 9016e30:	d8bb dde6 e2d5 ffd5 0000 0000 0000 0000     ................
	...
 9016e48:	0001 0000 0003 0000 0000 0000 0800 1881     ................
 9016e58:	e0bb e6da d8d9 00ff 0000 0000 0000 0000     ................
	...
 9016e70:	0001 0000 0002 0000 0000 0000 0800 1881     ................
 9016e80:	dcce e1e3 e7dd 00ff 0000 0000 0000 0000     ................
	...
 9016e98:	0001 0000 0003 0000 0000 0000 0800 1881     ................
 9016ea8:	d9c1 dde6 d5e1 ffe7 0000 0000 0000 0000     ................
	...
 9016ec0:	0001 0000 0001 0000 0000 0000 5500 4981     .............U.I
 9016ed0:	e0bf e8dd 00d9 adc8 00ff 0000 0000 0000     ................
	...
 9016ee8:	0001 0000 0002 0000 0000 0000 5500 4a02     .............U.J
 9016ef8:	e0bf e8dd 00d9 adc4 00ff 0000 0000 0000     ................
	...
 9016f10:	0001 0000 0002 0000 0000 0000 3800 1c02     .............8..
 9016f20:	e9c6 ddd7 e7e9 00ff 0000 0000 0013 0013     ................
 9016f30:	0013 0013 0000 0000 0007 0000 0006 0000     ................
 9016f40:	0000 0000 5100 6a02 debc e6f5 ffe2 0000     .....Q.j........
 9016f50:	0000 0000 000d 0000 0000 0000 0000 0000     ................
 9016f60:	0007 0000 0002 0000 0000 0000 5100 6a02     .............Q.j
 9016f70:	debc e6f5 ffe2 0000 0000 0000 000d 0000     ................
	...
 9016f88:	0007 0000 0002 0000 0000 0000 5100 6a02     .............Q.j
 9016f98:	debc e6f5 ffe2 0000 0000 0000 000d 0000     ................
	...
 9016fb0:	0007 0000 0002 0000 0000 0000 3200 4202     .............2.B
 9016fc0:	d5ca e8e8 00ff 0000 0000 0000 0000 0000     ................
	...
 9016fd8:	0001 0000 0002 0000 0000 0000 4c00 1102     .............L..
 9016fe8:	e6bf ddeb ffe2 0000 0000 0000 0000 0000     ................
	...
 9017000:	0001 0000 0001 0000 0000 0000 5500 4e80     .............U.N
 9017010:	f6cc d9e4 00e0 adc2 00ff 0000 0000 0000     ................
	...
 9017028:	0001 0000 0002 0000 0000 0000 2800 7f80     .............(..
 9017038:	e1bb 00ed ade9 c600 d5d9 00ff 0000 0000     ................
 9017048:	0000 0000 0001 0000 0001 0000 0002 0000     ................
 9017058:	0000 0000 1d00 5280 d9c4 d9e6 ede1 00ff     .......R........
	...
 9017078:	0001 0000 0002 0000 0000 0000 1000 6902     ...............i
 9017088:	e9c1 ffee 0000 0000 0000 0000 0000 0000     ................
	...
 90170a0:	0001 0000 0001 0000 0000 0000 4100 4302     .............A.C
 90170b0:	d9cd d5d6 e8e7 d5dd ffe2 0000 0000 0000     ................
	...
 90170c8:	0001 0000 0001 0000 0000 0000 0000 0000     ................
 90170d8:	d9c0 dde0 ffec 0000 0000 0000 0000 0000     ................
	...
 90170f0:	0007 0000 0003 0000 0000 0000 0300 0180     ................
 9017100:	e3bd e2e6 e0d9 e9dd ffe7 0000 0000 0000     ................
	...
 9017118:	0001 0000 0002 0000 0000 0000 3400 4480     .............4.D
 9017128:	e9c4 d9e0 e900 00ad d5c4 ffe2 0000 0000     ................
 9017138:	0000 0000 0001 0000 0001 0000 0004 0000     ................
 9017148:	0000 0000 0e00 2080 e6c5 e7dd e3e8 ffea     ....... ........
	...
 9017168:	0001 0000 0002 0000 0000 0000 2800 7f80     .............(..
 9017178:	eabf 00d5 ade9 bf00 e0e0 ffd5 0000 0000     ................
 9017188:	0000 0000 0001 0000 0001 0000 0004 0000     ................
 9017198:	0000 0000 2400 3081 e9c4 e8e8 ffd5 0000     .....$.0........
	...
 90171b8:	0001 0000 0002 0000 0000 0000 3400 4480     .............4.D
 90171c8:	d9bc 00d5 ade9 bc00 e2d9 00ff 0000 0000     ................
 90171d8:	0000 0000 0001 0000 0001 0000 0004 0000     ................
 90171e8:	0000 0000 5400 7980 dbc3 d5ea 00ff 0000     .....T.y........
 90171f8:	0000 0000 0015 0015 0016 0000 0000 0000     ................
 9017208:	0007 0000 0003 0000 0000 0000 5500 4e80     .............U.N
 9017218:	f6cc d9e4 00e0 adc2 00ff 0000 0000 0000     ................
	...
 9017230:	0001 0000 0002 0000 0000 0000 5500 6d80     .............U.m
 9017240:	f6cc d9e4 00e0 adbc 00ff 0000 0000 0000     ................
	...
 9017258:	0001 0000 0002 0000 0000 0000 5500 4a00     .............U.J
 9017268:	e0bf e8dd 00d9 adc0 00ff 0000 0000 0000     ................
	...
 9017280:	0001 0000 0003 0000 0000 0000 2600 3281     .............&.2
 9017290:	e2bb d9db d5e0 00ff 0000 0000 0000 0000     ................
	...
 90172a8:	0001 0000 0002 0000 0000 0000 0f00 0f02     ................
 90172b8:	e3c7 edd6 00ff 0000 0000 0000 0000 0000     ................
	...
 90172d0:	0001 0000 0002 0000 0000 0000 1500 1500     ................
 90172e0:	e0bb d9d6 e8e6 00ff 0000 0000 0000 0000     ................
	...
 90172f8:	0001 0000 0001 0000 0000 0000 3400 4400     .............4.D
 9017308:	d5c7 00ec ade9 c700 e6d5 ffd5 0000 0000     ................
 9017318:	0000 0000 0001 0000 0001 0000 0002 0000     ................
 9017328:	0000 0000 3400 4400 d9c6 00e3 ade9 c600     .....4.D........
 9017338:	e7dd ffd5 0000 0000 0000 0000 0001 0000     ................
 9017348:	0001 0000 0002 0000 0000 0000 2800 7f80     .............(..
 9017358:	d5be ede2 e900 00ad d5be ffde 0000 0000     ................
 9017368:	0000 0000 0001 0000 0001 0000 0002 0000     ................
 9017378:	0000 0000 0c00 0c81 d5c4 d5e2 e2dd ffd5     ................
	...
 9017398:	0001 0000 0002 0000 0000 0000 3300 5600     .............3.V
 90173a8:	e2bf d9db d6e0 e6d9 ffe8 0000 0000 0000     ................
	...
 90173c0:	0001 0000 0002 0000 0000 0000 3400 4400     .............4.D
 90173d0:	d8cf 00e3 ade9 c300 e1e6 ffd5 0000 0000     ................
 90173e0:	0000 0000 0001 0000 0001 0000 0002 0000     ................
 90173f0:	0000 0000 3400 4400 d9c5 00e2 ade9 ca00     .....4.D........
 9017400:	d5dd 00ff 0000 0000 0000 0000 0001 0000     ................
 9017410:	0001 0000 0004 0000 0000 0000 0a00 0a01     ................
 9017420:	d5c7 dde6 d5d6 00ff 0000 0000 0000 0000     ................
	...
 9017438:	0001 0000 0002 0000 0000 0000 0a00 0a01     ................
 9017448:	d5d1 e8e0 d5e6 d8e9 00ff 0000 0000 0000     ................
	...
 9017460:	0001 0000 0003 0000 0000 0000 0500 0402     ................
 9017470:	d5ca e0e9 e7e9 00ff 0000 0000 0000 0000     ................
	...
 9017488:	0001 0000 0002 0000 0000 0000 5b00 7e81     .............[.~
 9017498:	d5c5 d9e6 d5e2 00ff 0000 0000 0000 0000     ................
	...
 90174b0:	0001 0000 0002 0000 0000 0000 0a00 0a81     ................
 90174c0:	ddbc e2d5 d5d7 00ff 0000 0000 0000 0000     ................
	...
 90174d8:	0001 0000 0003 0000 0000 0000 5b00 7e81     .............[.~
 90174e8:	e1bb e6d5 ffd5 0000 0000 0000 0000 0000     ................
	...
 9017500:	0001 0000 0002 0000 0000 0000 3000 1981     .............0..
 9017510:	ddca ffe4 0000 0000 0000 0000 0000 0000     ................
	...
 9017528:	0001 0000 0002 0000 0000 0000 3000 1981     .............0..
 9017538:	d5ce dde6 d6e2 e6d9 ffe8 0000 0000 0000     ................
	...
 9017550:	0001 0000 0001 0000 0000 0000 3000 1981     .............0..
 9017560:	ddc1 d6e1 e6d5 ffd8 0000 0000 0000 0000     ................
	...
 9017578:	0001 0000 0002 0000 0000 0000 3000 1981     .............0..
 9017588:	e6c0 d9dd e6d8 d7dd ffdc 0000 0000 0000     ................
	...
 90175a0:	0001 0000 0002 0000 0000 0000 3000 1981     .............0..
 90175b0:	d5cd e9e1 e0d9 00ff 0000 0000 0000 0000     ................
	...
 90175c8:	0001 0000 0003 0000 0000 0000 3000 1981     .............0..
 90175d8:	e9c5 e8e6 00ff 0000 0000 0000 0000 0000     ................
	...
 90175f0:	0001 0000 0002 0000 0000 0000 3000 1981     .............0..
 9017600:	ddd1 e0e0 d9d6 e8e6 00ff 0000 0000 0000     ................
	...
 9017618:	0001 0000 0003 0000 0000 0000 3000 1981     .............0..
 9017628:	e6bf d5df ffed 0000 0000 0000 0000 0000     ................
	...
 9017640:	0001 0000 0003 0000 0000 0000 3000 1981     .............0..
 9017650:	e6ce e7dd d5e8 ffe2 0000 0000 0000 0000     ................
	...
 9017668:	0001 0000 0002 0000 0000 0000 3000 1981     .............0..
 9017678:	d9c5 ddea ffe2 0000 0000 0000 0000 0000     ................
	...
 9017690:	0001 0000 0003 0000 0000 0000 3000 1981     .............0..
 90176a0:	e0c9 eadd e6d9 00ff 0000 0000 0000 0000     ................
	...
 90176b8:	0001 0000 0003 0000 0000 0000 3000 1981     .............0..
 90176c8:	d9c5 e7d9 e9dd 00ff 0000 0000 0000 0000     ................
	...
 90176e0:	0001 0000 0002 0000 0000 0000 3000 1981     .............0..
 90176f0:	ddce e3e1 dce8 ffed 0000 0000 0000 0000     ................
	...
 9017708:	0001 0000 0002 0000 0000 0000 3000 1981     .............0..
 9017718:	d5c7 dce8 d5dd ffe7 0000 0000 0000 0000     ................
	...
 9017730:	0001 0000 0001 0000 0000 0000 3000 1981     .............0..
 9017740:	e3be dde1 dde2 ffd7 0000 0000 0000 0000     ................
	...
 9017758:	0001 0000 0003 0000 0000 0000 3000 1981     .............0..
 9017768:	d5cd e9e1 e0d9 00ff 0000 0000 0000 0000     ................
	...
 9017780:	0001 0000 0002 0000 0000 0000 3000 1981     .............0..
 9017790:	e2c3 e3db 00ff 0000 0000 0000 0000 0000     ................
	...
 90177a8:	0001 0000 0002 0000 0000 0000 3000 1981     .............0..
 90177b8:	e6c0 e8dd ffee 0000 0000 0000 0000 0000     ................
	...
 90177d0:	0001 0000 0003 0000 0000 0000 3000 1981     .............0..
 90177e0:	e6bb dde1 ffe2 0000 0000 0000 0000 0000     ................
	...
 90177f8:	0001 0000 0001 0000 0000 0000 3000 1981     .............0..
 9017808:	d5cc dce4 d9d5 ffe0 0000 0000 0000 0000     ................
	...
 9017820:	0001 0000 0004 0000 0000 0000 3000 1981     .............0..
 9017830:	ddcd e1db e6d5 00ff 0000 0000 0000 0000     ................
	...
 9017848:	0001 0000 0004 0000 0000 0000 4d00 3e02     .............M.>
 9017858:	e0bc d7d5 d6df d5d9 d8e6 00ff 0015 0017     ................
 9017868:	0015 0000 0000 0000 0007 0000 0005 0000     ................
 9017878:	0000 0000 1000 6902 d5c7 d7e6 ffe3 0000     .......i........
	...
 9017898:	0001 0000 0002 0000 0000 0000 4000 1d02     .............@..
 90178a8:	ddcd ddd7 dde0 e2e3 00ff 0000 0000 0000     ................
	...
 90178c0:	0001 0000 0001 0000 0000 0000 4100 4302     .............A.C
 90178d0:	d5c2 e3e6 d8e0 00ff 0000 0000 0000 0000     ................
	...
 90178e8:	0001 0000 0001 0000 0000 0000 1900 1e02     ................
 90178f8:	d9c0 dde0 ddd7 d5e8 ffe7 0000 0000 0000     ................
	...
 9017910:	0001 0000 0002 0000 0000 0000 1d00 5202     ...............R
 9017920:	edc0 e2e2 00ff 0000 0000 0000 0000 0000     ................
	...
 9017938:	0001 0000 0001 0000 0000 0000 1d00 5202     ...............R
 9017948:	d5ca e1dd e2e3 00ff 0000 0000 0000 0000     ................
	...
 9017960:	0001 0000 0003 0000 0000 0000 4100 4302     .............A.C
 9017970:	d9c7 d9e1 ffe8 0000 0000 0000 0000 0000     ................
	...
 9017988:	0001 0000 0001 0000 0000 0000 5400 7401     .............T.t
 9017998:	d9c6 e8e7 e6d9 00ff 0000 0000 0016 0016     ................
 90179a8:	0000 0000 0000 0040 0007 0000 0004 0000     ......@.........
 90179b8:	0000 0000 5400 7401 d9c6 e8e7 e6d9 00ff     .....T.t........
 90179c8:	0000 0000 005a 0013 0013 0013 0000 0040     ....Z.........@.
 90179d8:	0007 0000 0004 0000 0000 0000 2f00 4b01     ............./.K
 90179e8:	e3c1 d8e6 e2e3 00ff 0000 0000 005a 0059     ............Z.Y.
 90179f8:	0059 0000 0000 0000 0007 0000 0004 0000     Y...............
 9017a08:	0000 0000 5400 7501 e3cc d5e7 dde0 ffd9     .....T.u........
 9017a18:	0000 0000 0016 0016 0017 0016 0000 0040     ..............@.
 9017a28:	0007 0000 0005 0000 0000 0000 5400 7501     .............T.u
 9017a38:	e3cc d5e7 dde0 ffd9 0000 0000 005a 0013     ............Z...
 9017a48:	0013 0013 0000 0040 0007 0000 0006 0000     ......@.........
 9017a58:	0000 0000 3400 4480 ddca 00d5 ade9 ca00     .....4.D........
 9017a68:	e8d9 ffd9 0000 0000 0000 0000 0001 0000     ................
 9017a78:	0001 0000 0004 0000 0000 0000 4100 4302     .............A.C
 9017a88:	ddc4 d6e1 ffe3 0000 0000 0000 0000 0000     ................
	...
 9017aa0:	0001 0000 0003 0000 0000 0000 4100 4302     .............A.C
 9017ab0:	d5c5 e0e6 00ff 0000 0000 0000 0000 0000     ................
	...
 9017ac8:	0001 0000 0002 0000 0000 0000 4400 5d02     .............D.]
 9017ad8:	d9be e2d5 00ff 0000 0000 0000 0000 0000     ................
	...
 9017af0:	0001 0000 0003 0000 0000 0000 0a00 0a01     ................
 9017b00:	e0c9 eaed d5dd 00ff 0000 0000 0000 0000     ................
	...
 9017b18:	0001 0000 0001 0000 0000 0000 1400 1401     ................
 9017b28:	d9c4 d9e6 dde1 e7d5 00ff 0000 0000 0000     ................
	...
 9017b40:	0001 0000 0003 0000 0000 0000 4100 4301     .............A.C
 9017b50:	e3c2 e7e6 ffe8 0000 0000 0000 0000 0000     ................
	...
 9017b68:	0001 0000 0002 0000 0000 0000 2200 2e01     ............."..
 9017b78:	d8bf d5e9 d8e6 00ff 0000 0000 0000 0000     ................
	...
 9017b90:	0001 0000 0004 0000 0000 0000 2e00 3d01     ...............=
 9017ba0:	d9bc e8e6 00ff 0000 0000 0000 0016 0059     ..............Y.
	...
 9017bb8:	0001 0000 0002 0000 0000 0000 5200 6b01     .............R.k
 9017bc8:	d9c2 dbe0 ffd9 0000 0000 0000 0000 0000     ................
	...
 9017be0:	0001 0000 0001 0000 0000 0000 3100 4101     .............1.A
 9017bf0:	ead3 e8d9 d9e8 00ff 0000 0000 0000 0000     ................
	...
 9017c08:	0001 0000 0003 0000 0000 0000 3400 4401     .............4.D
 9017c18:	ddc8 e7e0 e900 00ad eabf ffd5 0000 0000     ................
	...
 9017c30:	0001 0000 0004 0000 0000 0000 2400 3081     .............$.0
 9017c40:	e3cd dce4 d9dd 00ff 0000 0000 0000 0000     ................
	...
 9017c58:	0001 0000 0002 0000 0000 0000 4100 4301     .............A.C
 9017c68:	e7c3 d6dd e0d5 ffd8 0000 0000 0000 0000     ................
	...
 9017c80:	0001 0000 0003 0000 0000 0000 0e00 2080     ............... 
 9017c90:	dcbd dde6 e8e7 d5dd ffe2 0000 0000 0000     ................
	...
 9017ca8:	0001 0000 0001 0000 0000 0000 1300 5680     ...............V
 9017cb8:	d5c7 dae2 d9e6 ffd8 0000 0000 0000 0000     ................
	...
 9017cd0:	0001 0000 0003 0000 0000 0000 1d00 5202     ...............R
 9017ce0:	e9c6 ead8 dbdd 00ff 0000 0000 0000 0000     ................
	...
 9017cf8:	0001 0000 0003 0000 0000 0000 1600 1700     ................
 9017d08:	d5cd e3e0 e3e1 ffe2 0000 0000 0000 0000     ................
	...
 9017d20:	0001 0000 0002 0000 0000 0000 2400 3081     .............$.0
 9017d30:	d5c2 e2e2 dcd5 00ff 0000 0000 0000 0000     ................
	...
 9017d48:	0001 0000 0003 0000 0000 0000 2900 3502     .............).5
 9017d58:	e3be d5e2 d8e0 00ff 0000 0000 0000 0000     ................
	...
 9017d70:	0001 0000 0001 0000 0000 0000 0300 0281     ................
 9017d80:	e0bf ddda ffd9 0000 0000 0000 0000 0000     ................
	...
 9017d98:	0001 0000 0002 0000 0000 0000 1400 4281     ...............B
 9017da8:	e8cd e4d9 d9dc ffe2 0000 0000 0000 0000     ................
	...
 9017dc0:	0001 0000 0003 0000 0000 0000 1d00 2481     ...............$
 9017dd0:	d9c4 e8e7 e6d9 00ff 0000 0000 0000 0000     ................
	...
 9017de8:	0001 0000 0001 0000 0000 0000 0c00 0c81     ................
 9017df8:	e2bb d5e2 00ff 0000 0000 0000 0000 0000     ................
	...
 9017e10:	0001 0000 0003 0000 0000 0000 2800 7f80     .............(..
 9017e20:	e7c3 00ed ade9 bb00 e1e0 ffd5 0000 0000     ................
 9017e30:	0000 0000 0001 0000 0001 0000 0004 0000     ................
 9017e40:	0000 0000 1f00 2600 d5c4 e3df ffd6 0000     .......&........
	...
 9017e60:	0001 0000 0002 0000 0000 0000 0300 0281     ................
 9017e70:	d9c2 e1e6 e2d5 ffe2 0000 0000 0000 0000     ................
	...
 9017e88:	0001 0000 0002 0000 0000 0000 1000 6902     ...............i
 9017e98:	d5c4 dfd7 00ff 0000 0000 0000 0000 0000     ................
	...
 9017eb0:	0001 0000 0003 0000 0000 0000 1000 6902     ...............i
 9017ec0:	edc0 e2e2 00ff 0000 0000 0000 0000 0000     ................
	...
 9017ed8:	0001 0000 0002 0000 0000 0000 2200 2e01     ............."..
 9017ee8:	dcce e1e3 e7d5 00ff 0000 0000 0000 0000     ................
	...
 9017f00:	0001 0000 0003 0000 0000 0000 4400 5d02     .............D.]
 9017f10:	d5c4 d9e1 ffe7 0000 0000 0000 0000 0000     ................
	...
 9017f28:	0001 0000 0002 0000 0000 0000 1400 4281     ...............B
 9017f38:	e8cd e4d9 d9dc ffe2 0000 0000 0000 0000     ................
	...
 9017f50:	0001 0000 0003 0000 0000 0000 2800 7f80     .............(..
 9017f60:	d5c5 d9e8 e900 00ad d9bc ffd5 0000 0000     ................
 9017f70:	0000 0000 0001 0000 0001 0000 0002 0000     ................
 9017f80:	0000 0000 2400 3081 d9c7 e3e6 d9e4 00ff     .....$.0........
	...
 9017fa0:	0001 0000 0003 0000 0000 0000 0d00 0d02     ................
 9017fb0:	dbc3 e6e3 00ff 0000 0000 0000 0013 0013     ................
	...
 9017fc8:	0001 0000 0004 0000 0000 0000 2f00 4b01     ............./.K
 9017fd8:	d5c4 dde1 ffd9 0000 0000 0000 005a 0059     ............Z.Y.
 9017fe8:	0059 0000 0000 0000 0007 0000 0003 0000     Y...............
 9017ff8:	0000 0000 6a00 9381 ddc4 d9e1 ffd5 0000     .....j..........
 9018008:	0000 0000 0016 000e 0059 0000 0000 0000     ........Y.......
 9018018:	0007 0000 0004 0000 0000 0000 5400 4c01     .............T.L
 9018028:	d5c7 e9e2 e0d9 00ff 0000 0000 0015 0016     ................
	...
 9018040:	0007 0000 0004 0000 0000 0000 5400 4c01     .............T.L
 9018050:	d5c7 e9e2 e0d9 00ff 0000 0000 0013 005a     ..............Z.
 9018060:	0013 0017 0000 0040 0007 0000 0006 0000     ......@.........
 9018070:	0000 0000 2400 3081 e6bc dbdd e8dd d9e8     .....$.0........
 9018080:	00ff 0000 0000 0000 0000 0000 0000 0000     ................
 9018090:	0001 0000 0003 0000 0000 0000 1000 6902     ...............i
 90180a0:	e3d0 dfe0 e6d9 00ff 0000 0000 0000 0000     ................
	...
 90180b8:	0001 0000 0001 0000 0000 0000 2400 3081     .............$.0
 90180c8:	e7c3 e0e3 d9d8 00ff 0000 0000 0000 0000     ................
	...
 90180e0:	0001 0000 0002 0000 0000 0000 1000 6902     ...............i
 90180f0:	d9c2 d6e6 e6d9 ffe8 0000 0000 0000 0000     ................
	...
 9018108:	0001 0000 0001 0000 0000 0000 1500 1680     ................
 9018118:	d9c2 d9e0 d5e2 00ff 0000 0000 0000 0000     ................
	...
 9018130:	0001 0000 0001 0000 0000 0000 1f00 2600     ...............&
 9018140:	e0bb e6da d8d9 00ff 0000 0000 0000 0000     ................
	...
 9018158:	0001 0000 0002 0000 0000 0000 1f00 2600     ...............&
 9018168:	e1c9 e6d5 00ff 0000 0000 0000 0000 0000     ................
	...
 9018180:	0001 0000 0004 0000 0000 0000 1f00 2600     ...............&
 9018190:	dbbf e2e3 00ff 0000 0000 0000 0000 0000     ................
	...
 90181a8:	0001 0000 0001 0000 0000 0000 0500 0401     ................
 90181b8:	e3ce ddd6 e7d5 00ff 0000 0000 0000 0000     ................
	...
 90181d0:	0001 0000 0003 0000 0000 0000 0400 0381     ................
 90181e0:	e0bf d5e7 00ff 0000 0000 0000 0000 0000     ................
	...
 90181f8:	0001 0000 0002 0000 0000 0000 4400 5d02     .............D.]
 9018208:	d5c7 e6e9 d7dd ffd9 0000 0000 0000 0000     ................
	...
 9018220:	0001 0000 0001 0000 0000 0000 1f00 2600     ...............&
 9018230:	e3cc dae0 00ff 0000 0000 0000 0000 0000     ................
	...
 9018248:	0001 0000 0002 0000 0000 0000 4100 4301     .............A.C
 9018258:	e2bb e3e8 dde2 ffe2 0000 0000 0000 0000     ................
	...
 9018270:	0001 0000 0003 0000 0000 0000 0000 4c01     ...............L
 9018280:	dfc3 e6d5 e7e9 00ff 0000 0000 0015 0017     ................
	...
 9018298:	0007 0000 0004 0000 0000 0000 5200 6b01     .............R.k
 90182a8:	e0bb d9d6 e8e6 00ff 0000 0000 0000 0000     ................
	...
 90182c0:	0001 0000 0004 0000 0000 0000 4400 5d02     .............D.]
 90182d0:	e2bb e3e8 dde2 ffe3 0000 0000 0000 0000     ................
	...
 90182e8:	0001 0000 0003 0000 0000 0000 4400 5d02     .............D.]
 90182f8:	d5c7 eae6 e2dd 00ff 0000 0000 0000 0000     ................
	...
 9018310:	0001 0000 0002 0000 0000 0000 3400 4480     .............4.D
 9018320:	e0bf 00dd ade9 bf00 dde6 ffdf 0000 0000     ................
 9018330:	0000 0000 0001 0000 0001 0000 0002 0000     ................
 9018340:	0000 0000 2f00 4b01 e0bb e3da e7e2 00ff     ...../.K........
 9018350:	0000 0000 005a 0059 0059 0000 0000 0000     ....Z.Y.Y.......
 9018360:	0007 0000 0004 0000 0000 0000 2e00 3c00     ...............<
 9018370:	00ff 0000 0000 0000 0000 0000 0000 0000     ................
	...
 9018388:	0001 0000 0003 0000 0630 0000 2e00 3d81     ........0......=
 9018398:	00ff 0000 0000 0000 0000 0000 0000 0000     ................
	...
 90183b0:	0001 0000 0003 0000 0630 0000 2e00 3c00     ........0......<
 90183c0:	00ff 0000 0000 0000 0000 0000 0000 0000     ................
	...
 90183d8:	0001 0000 0003 0000 0630 0000 2e00 3d81     ........0......=
 90183e8:	00ff 0000 0000 0000 0000 0000 0000 0000     ................
	...
 9018400:	0001 0000 0003 0000 0630 0000 1c00 2381     ........0......#
 9018410:	e2bb d5e2 d9e0 d5e2 00ff 0000 0000 0000     ................
	...
 9018428:	0001 0000 0005 0000 0000 0000 1c00 2381     ...............#
 9018438:	e2bb d5e2 d9e0 d5e2 00ff 0000 0000 0000     ................
	...
 9018450:	0001 0000 0005 0000 0000 0000 1c00 2381     ...............#
 9018460:	e2bb d5e2 d9e0 d5e2 00ff 0000 0000 0000     ................
	...
 9018478:	0001 0000 0005 0000 0000 0000 1c00 2381     ...............#
 9018488:	e2bb d5e2 d9e0 d5e2 00ff 0000 0000 0000     ................
	...
 90184a0:	0001 0000 0005 0000 0000 0000 1c00 2381     ...............#
 90184b0:	e2bb d5e2 d9e0 d5e2 00ff 0000 0000 0000     ................
	...
 90184c8:	0001 0000 0006 0000 0000 0000 1d00 2481     ...............$
 90184d8:	d9c6 ddeb ffe7 0000 0000 0000 0000 0000     ................
	...
 90184f0:	0001 0000 0002 0000 0000 0000 1f00 2600     ...............&
 9018500:	d9cc dddb d5e2 d8e0 00ff 0000 0000 0000     ................
	...
 9018518:	0001 0000 0003 0000 0000 0000 1000 6902     ...............i
 9018528:	ddc2 d6e0 e6d9 ffe8 0000 0000 0000 0000     ................
	...
 9018540:	0001 0000 0002 0000 0000 0000 2400 3081     .............$.0
 9018550:	ddcd e3e1 d9e2 00ff 0000 0000 0000 0000     ................
	...
 9018568:	0001 0000 0002 0000 0000 0000 1000 6902     ...............i
 9018578:	d5c5 dde7 dde1 ffe6 0000 0000 0000 0000     ................
	...
 9018590:	0001 0000 0001 0000 0000 0000 2400 3081     .............$.0
 90185a0:	e0bb ddea d5d8 00ff 0000 0000 0000 0000     ................
	...
 90185b8:	0001 0000 0001 0000 0000 0000 1500 1680     ................
 90185c8:	e6bc d8dd d9db ffe8 0000 0000 0000 0000     ................
	...
 90185e0:	0001 0000 0002 0000 0000 0000 4400 5d02     .............D.]
 90185f0:	e0c9 eadd e6d9 00ff 0000 0000 0000 0000     ................
	...
 9018608:	0001 0000 0003 0000 0000 0000 0300 0281     ................
 9018618:	dcbd e6d5 dde0 ffd9 0000 0000 0000 0000     ................
	...
 9018630:	0001 0000 0004 0000 0000 0000 2200 2e01     ............."..
 9018640:	e1c3 e2d5 d9e9 ffe0 0000 0000 0000 0000     ................
	...
 9018658:	0001 0000 0002 0000 0000 0000 1f00 2600     ...............&
 9018668:	dcce e1e3 e7d5 00ff 0000 0000 0000 0000     ................
	...
 9018680:	0001 0000 0003 0000 0000 0000 1500 1680     ................
 9018690:	dcbe e0d5 d5dd 00ff 0000 0000 0000 0000     ................
	...
 90186a8:	0001 0000 0002 0000 0000 0000 4100 4301     .............A.C
 90186b8:	d7bb dddc ffe1 0000 0000 0000 0000 0000     ................
	...
 90186d0:	0001 0000 0002 0000 0000 0000 0400 0381     ................
 90186e0:	e2bb d9db dde0 d5df 00ff 0000 0000 0000     ................
	...
 90186f8:	0001 0000 0003 0000 0000 0000 3700 4781     .............7.G
 9018708:	ddc5 d5e6 00ff 0000 0000 0000 0000 0000     ................
	...
 9018720:	0001 0000 0004 0000 0000 0000 1100 1181     ................
 9018730:	e3c4 dde2 00ff 0000 0000 0000 0000 0000     ................
	...
 9018748:	0001 0000 0002 0000 0000 0000 2e00 3d02     ...............=
 9018758:	d9bc e8d5 ffd9 0000 0000 0000 0000 0000     ................
	...
 9018770:	0001 0000 0003 0000 0000 0000 0500 0401     ................
 9018780:	dabf e6da ddd5 ffe1 0000 0000 0000 0000     ................
	...
 9018798:	0001 0000 0002 0000 0000 0000 4300 5c01     .............C.\
 90187a8:	e3c6 dce8 e6d5 00ff 0000 0000 0000 0000     ................
	...
 90187c0:	0001 0000 0001 0000 0000 0000 1f00 2600     ...............&
 90187d0:	d6bf e6d9 d5dc e8e6 00ff 0000 0000 0000     ................
	...
 90187e8:	0001 0000 0002 0000 0000 0000 2c00 1c00     .............,..
 90187f8:	d9c7 e2dd d5dc d8e6 ffe8 0000 0000 0000     ................
	...
 9018810:	0001 0000 0004 0000 0000 0000 1f00 2600     ...............&
 9018820:	e3bd edd8 00ff 0000 0000 0000 0000 0000     ................
	...
 9018838:	0001 0000 0003 0000 0000 0000 6100 4d00     .............a.M
 9018848:	d5cd ebe6 e7d9 00ff 0000 0000 0000 0000     ................
	...
 9018860:	0001 0000 0004 0000 0000 0000 2200 2e01     ............."..
 9018870:	d9c2 dde6 d5d6 d8e0 00ff 0000 0000 0000     ................
	...
 9018888:	0001 0000 0002 0000 0000 0000 0a00 0a81     ................
 9018898:	e0bb d5d6 d9e1 00ff 0000 0000 0000 0000     ................
	...
 90188b0:	0001 0000 0001 0000 0000 0000 2c00 1c00     .............,..
 90188c0:	d5c7 eee8 ffd9 0000 0000 0000 0000 0000     ................
	...
 90188d8:	0001 0000 0003 0000 0000 0000 2c00 1c00     .............,..
 90188e8:	d6bb d8d5 e2dd 00ff 0000 0000 0000 0000     ................
	...
 9018900:	0001 0000 0004 0000 0000 0000 2c00 1c00     .............,..
 9018910:	d8bf e2e3 00ff 0000 0000 0000 0000 0000     ................
	...
 9018928:	0001 0000 0005 0000 0000 0000 2c00 1c00     .............,..
 9018938:	ddbf d5e2 ffe6 0000 0000 0000 0000 0000     ................
	...
 9018950:	0001 0000 0001 0000 0000 0000 0000 0000     ................
	...
 901b06c:	2f00 7401 d9c6 e8e7 e6d9 00ff 0000 0000     ./.t............
 901b07c:	005a 0013 0013 0013 0001 0000 000f 0000     Z...............
 901b08c:	0002 0000 0000 0000                         ........

0901b094 <trainerschool_selection_species>:
 901b094:	0115 0118 011b 0000                         ........

0901b09c <trainerschool_selection_bg_configs>:
 901b09c:	01f8 0000 11ed 0000 21d6 0000 31c3 0000     .........!...1..

0901b0ac <trainerschool_selection_tboxes>:
 901b0ac:	0000 1e00 0f02 0001 0200 0811 0f02 003d     ..............=.
 901b0bc:	0b00 0812 0f02 004d 1400 0811 0f02 005d     ......M.......].

0901b0cc <graphic_trainerschool_selection_pokeball>:
 901b0cc:	0490 0826                                   ..&.

0901b0d0 <graphic_trainerschool_selection_lockschal>:
 901b0d0:	0000 0000 1000 a440                         ......@.

0901b0d8 <graphic_trainerschool_selection_weluno>:
 901b0d8:	0000 0000 1000 a441                         ......A.

0901b0e0 <graphic_trainerschool_selection_seekid>:
 901b0e0:	0000 0000 1000 a442                         ......B.

0901b0e8 <palette_trainerschool_selection_pokeball>:
 901b0e8:	04f0 0826                                   ..&.

0901b0ec <oam_template_trainerschool_lockschal>:
 901b0ec:	a440 a440 0000 0000 0000 0000 0000 0000     @.@.............
	...

0901b104 <oam_template_trainerschool_weluno>:
 901b104:	a441 a441 0000 0000 0000 0000 0000 0000     A.A.............
	...

0901b11c <oam_template_trainerschool_seekid>:
 901b11c:	a442 a442 0000 0000 0000 0000 0000 0000     B.B.............
	...

0901b134 <oam_template_trainerschool_pokeball>:
 901b134:	d6d8 d6d8 0000 0000 0000 0000 0000 0000     ................
	...

0901b14c <str_trainerschool_selection_text>:
 901b14c:	0000 00f8 0000 d9bc e8e7 e8f4 dbdd e2d9     ................
	...
 901b168:	0000 01f8 0000 d6bb e6d6 d7e9 ffdc 0000     ................

0901b178 <gfx_anim_table_trainerschool_pokeball>:
	...

0901b180 <gfx_frame_trainerschool_ball_anim_ball_1>:
 901b180:	0004 0000 ffff 0000                         ........

0901b188 <gfx_frame_trainerschool_ball_anim_ball_0>:
 901b188:	0000 0000 ffff 0000                         ........

0901b190 <sprite_trainerschool_pokeball>:
 901b190:	0000 4000 0000 0000                         ...@....

0901b198 <gfx_anim_table_trainerschool_starter>:
 901b198:	0000 0000                                   ....

0901b19c <gfx_anim_trainerschool_starter>:
 901b19c:	0000 0000 0000 0020 0040 0020 fffe 0000     ...... .@. .....

0901b1ac <sprite_trainerschool_starter>:
 901b1ac:	0000 c000 0000 0000                         ........

0901b1b4 <str_trainerschool_test_cursor>:
 901b1b4:	ffef 0000                                   ....

0901b1b8 <str_trainerschool_test_list>:
 901b1b8:	ffae 0000                                   ....

0901b1bc <trainerschool_test_fontcolmap_std>:
 901b1bc:	0600 0307                                   ....

0901b1c0 <trainerschool_test_oam_template_correct>:
 901b1c0:	a0e0 a0e0 b34c 0001 0000 0000 0000 0000     ....L...........
 901b1d0:	b260 0001 0000 0000                         `.......

0901b1d8 <trainerschool_test_oam_template_wrong>:
 901b1d8:	a0e1 a0e0 b34c 0001 0000 0000 0000 0000     ....L...........
 901b1e8:	b260 0001 0000 0000                         `.......

0901b1f0 <trainerschool_test_bg_configs>:
 901b1f0:	11f8 0000 01e5 0000 21d2 0000               .........!..

0901b1fc <trainerschool_test_tboxes>:
 901b1fc:	0800 0c01 0008 0001 0900 0e0a 0002 0061     ..............a.
 901b20c:	0900 0e0c 0002 007d 0900 0e0e 0002 0099     ......}.........
 901b21c:	0900 0e10 0002 00b5 0900 0e12 0002 00d1     ................
 901b22c:	00ff 0000 0000 0000                         ........

0901b234 <trainerschool_test_graphic_correct>:
 901b234:	0000 0000 0800 a0e0                         ........

0901b23c <trainerschool_test_graphic_wrong>:
 901b23c:	0000 0000 0800 a0e1                         ........

0901b244 <trainerschool_test_oam_template_clock>:
 901b244:	ffff a0e2 b344 0001 b29c 0001 b2ac 0001     ....D...........
 901b254:	b25c 0001 0000 0000                         \.......

0901b25c <trainerschool_clock_rotscale_animations>:
 901b25c:	b264 0001                                   d...

0901b260 <trainerschool_test_rotscale_table>:
 901b260:	b32c 0001                                   ,...

0901b264 <trainerschool_clock_rotscale_animation>:
 901b264:	0100 0100 0000 0000 0000 0000 0301 0000     ................
 901b274:	0000 0000 1800 0000 0000 0000 06ff 0000     ................
 901b284:	0000 0000 1800 0000 0000 0000 0301 0000     ................
 901b294:	7ffe 0001 0000 0000                         ........

0901b29c <trainerschool_clock_gfx_animations>:
 901b29c:	b2ec 0001 b2fc 0001 b30c 0001 b31c 0001     ................

0901b2ac <trainerschool_clock_gfx_table>:
 901b2ac:	0000 0000 0400 0000 0400 0000 0400 0000     ................
 901b2bc:	0800 0000 0400 0000 0c00 0000 0400 0000     ................
 901b2cc:	1000 0000 0400 0000 1400 0000 0400 0000     ................
 901b2dc:	1800 0000 0400 0000 1c00 0000 0400 0000     ................

0901b2ec <trainerschool_clock_gfx_animation>:
 901b2ec:	0000 0000 0000 0008 0001 0008 fffe 0000     ................
 901b2fc:	0002 0000 0002 0008 0003 0008 fffe 0000     ................
 901b30c:	0004 0000 0004 0008 0005 0008 fffe 0000     ................
 901b31c:	0006 0000 0006 0008 0007 0008 fffe 0000     ................

0901b32c <trainerschool_test_rotscal_anim>:
 901b32c:	0200 0200 0000 0000 ffdc ffdc 0c00 0000     ................
 901b33c:	7fff 0000 0000 0000                         ........

0901b344 <trainerschool_clock_sprite>:
 901b344:	8300 c000 0000 0000                         ........

0901b34c <trainerschool_test_sprite>:
 901b34c:	0300 c000 0000 0000                         ........

0901b354 <str_trainerschool_test_question_9_answers>:
	...

0901b364 <str_trainerschool_test_question_9_answer_3>:
 901b364:	e3d0 e8e0 e2d9 e3e7 00b8 d5c5 d5d8 e6d6     ................
 901b374:	ffd5 0000                                   ....

0901b378 <str_trainerschool_test_question_9_answer_2>:
 901b378:	e9ca e3d8 b8ec cc00 e4d9 d5e8 e2dd 00ff     ................

0901b388 <str_trainerschool_test_question_9_answer_1>:
 901b388:	ddd0 dde4 dde8 b8e7 ca00 e6d9 e9e0 00ff     ................

0901b398 <str_trainerschool_test_question_9_answer_0>:
 901b398:	d5c6 eae6 e8dd e6d5 00b8 e6bc e2e3 d9ee     ................
 901b3a8:	ffe0 0000                                   ....

0901b3ac <str_trainerschool_test_question_9>:
 901b3ac:	d9d1 d7e0 d9dc d800 d9dd d9e7 fee6 d5ca     ................
 901b3bc:	e6d5 00d9 d9d6 dde7 eee8 e2d9 d8fe e7d5     ................
 901b3cc:	db00 d9e0 d7dd d9dc c1fe ebd9 d7dd e8dc     ................
 901b3dc:	ffac 0000                                   ....

0901b3e0 <str_trainerschool_test_question_8_answers>:
	...

0901b3f0 <str_trainerschool_test_question_8_answer_3>:
 901b3f0:	d9cd e4d9 e6d9 00ff                         ........

0901b3f8 <str_trainerschool_test_question_8_answer_2>:
 901b3f8:	d5c5 e9d6 e3e8 00ff                         ........

0901b400 <str_trainerschool_test_question_8_answer_1>:
 901b400:	d5d1 e0dd d9e1 ffe6                         ........

0901b408 <str_trainerschool_test_question_8_answer_0>:
 901b408:	dccd e4e9 d9e4 ffe8                         ........

0901b410 <str_trainerschool_test_question_8>:
 901b410:	d9d1 d7e0 d9dc 00e7 ddd8 e7d9 e6d9 cafe     ................
 901b420:	dfe3 e11b e2e3 d600 e2d9 e8f5 dbdd fee8     ................
 901b430:	e1d5 e000 e2f4 e7db d9e8 fee2 e9ee 00e1     ................
 901b440:	d7cd e0dc e4f6 d9da ace2 00ff               ............

0901b44c <str_trainerschool_test_question_7_answers>:
	...

0901b45c <str_trainerschool_test_question_7_answer_3>:
 901b45c:	e1bb d9e4 e0e0 e9d9 dcd7 d9e8 00ff 0000     ................

0901b46c <str_trainerschool_test_question_7_answer_2>:
 901b46c:	e9bb e3e6 d5e6 e8e7 d5e6 e0dc 00ff 0000     ................

0901b47c <str_trainerschool_test_question_7_answer_1>:
 901b47c:	e2bb dde8 aedf e6c5 dad5 ffe8               ............

0901b488 <str_trainerschool_test_question_7_answer_0>:
 901b488:	ddc1 e8da d5ee e2dc 00ff 0000               ............

0901b494 <str_trainerschool_test_question_7>:
 901b494:	d9d1 d7e0 d9dc 00e6 ddd8 e7d9 e6d9 bbfe     ................
 901b4a4:	dbe2 dde6 dada fed9 d9ea e9e6 e7e6 d7d5     ................
 901b4b4:	e8dc d800 e2d9 e1fe ddd9 e8e7 e2d9 cd00     ................
 901b4c4:	dcd7 d8d5 e2d9 ffac                         ........

0901b4cc <str_trainerschool_test_question_6_answers>:
	...

0901b4d8 <str_trainerschool_test_question_6_answer_2>:
 901b4d8:	ddd4 e6e8 e7e9 d9db d6e0 00ff               ............

0901b4e4 <str_trainerschool_test_question_6_answer_1>:
 901b4e4:	e6bc e9d5 ffe2 0000                         ........

0901b4ec <str_trainerschool_test_question_6_answer_0>:
 901b4ec:	ddca dfe2 00ff 0000                         ........

0901b4f4 <str_trainerschool_test_question_6>:
 901b4f4:	d5d1 00e7 e7dd 00e8 d5c0 e2e9 fee7 ddc6     ................
 901b504:	d6d9 dde0 dbe2 dae7 e6d5 d9d6 ffac 0000     ................

0901b514 <str_trainerschool_test_question_5_answers>:
	...

0901b528 <str_trainerschool_test_question_5_answer_4>:
 901b528:	ddbf e9e2 d8e2 ebee e2d5 ddee ffdb 0000     ................

0901b538 <str_trainerschool_test_question_5_answer_3>:
 901b538:	ebd4 e2d5 ddee ffdb                         ........

0901b540 <str_trainerschool_test_question_5_answer_2>:
 901b540:	f6c0 dae2 d9ee e2dc 00ff 0000               ............

0901b54c <str_trainerschool_test_question_5_answer_1>:
 901b54c:	d7bb e8dc d9ee e2dc 00ff 0000               ............

0901b558 <str_trainerschool_test_question_5_answer_0>:
 901b558:	d9cd dcd7 d9ee e2dc 00ff 0000               ............

0901b564 <str_trainerschool_test_question_5>:
 901b564:	ddd1 00d9 ddea e0d9 fed9 e8cd e2e9 d9d8     ................
 901b574:	00e2 d9d6 f5e2 dde8 e8db befe d5e6 e3db     ................
 901b584:	d5e6 00e2 e9ee fee6 d9d1 e8e0 e1e9 e9e6     ................
 901b594:	d8e2 e2e9 acdb 00ff                         ........

0901b59c <str_trainerschool_test_question_4_answers>:
	...

0901b5ac <str_trainerschool_test_question_4_answer_3>:
 901b5ac:	e5bb d5e9 d5e2 00ff                         ........

0901b5b4 <str_trainerschool_test_question_4_answer_2>:
 901b5b4:	d5c8 dcd7 d5e8 d5e6 00ff 0000               ............

0901b5c0 <str_trainerschool_test_question_4_answer_1>:
 901b5c0:	e0c1 eed5 e3dd d5e0 00ff 0000               ............

0901b5cc <str_trainerschool_test_question_4_answer_0>:
 901b5cc:	e0c0 e1d5 e6d5 ffd5                         ........

0901b5d4 <str_trainerschool_test_question_4>:
 901b5d4:	d9d1 d7e0 d9dc 00e7 ddd8 e7d9 e6d9 cafe     ................
 901b5e4:	dfe3 e11b e2e3 d600 e7d9 e8dd e8ee d8fe     ................
 901b5f4:	e2d9 dc00 d7f5 e7dc d9e8 fee2 d5bc dde7     ................
 901b604:	aee7 e2bb e6db dadd acda 00ff               ............

0901b610 <str_trainerschool_test_question_3_answers>:
	...

0901b624 <str_trainerschool_test_question_3_answer_4>:
 901b624:	e3be e2e2 e6d9 e8e7 ddd9 ffe2               ............

0901b630 <str_trainerschool_test_question_3_answer_3>:
 901b630:	d5c6 e6ec e9d5 dcd7 00ff 0000               ............

0901b63c <str_trainerschool_test_question_3_answer_2>:
 901b63c:	d5cd dae2 dbe8 e3e0 dfd7 ffd9               ............

0901b648 <str_trainerschool_test_question_3_answer_1>:
 901b648:	d6bb e7ed eee7 dcd5 ffe2 0000               ............

0901b654 <str_trainerschool_test_question_3_answer_0>:
 901b654:	d5c7 e3e6 d6e2 d9d9 d9e6 00ff               ............

0901b660 <str_trainerschool_test_question_3>:
 901b660:	d9d1 d7e0 d9dc 00e7 ddd8 e7d9 e6d9 c3fe     ................
 901b670:	d9e8 e7e1 dc00 e8d5 d800 e2d9 dcfe d7f5     ................
 901b680:	e7dc d9e8 00e2 d9d1 e8e6 ffac               ............

0901b68c <str_trainerschool_test_question_2_answers>:
	...

0901b698 <str_trainerschool_test_question_2_answer_2>:
 901b698:	d9bc ddee eee6 e6d9 00ff 0000               ............

0901b6a4 <str_trainerschool_test_question_2_answer_1>:
 901b6a4:	e0cd e1d5 00ff 0000                         ........

0901b6ac <str_trainerschool_test_question_2_answer_0>:
 901b6ac:	e6bc e0f6 d9e0 ffe6                         ........

0901b6b4 <str_trainerschool_test_question_2>:
 901b6b4:	d9d1 d7e0 d9dc 00e6 e2bb e6db dadd feda     ................
 901b6c4:	ddeb d8e6 ea00 e2e3 cc00 e0d9 ecd5 fee3     ................
 901b6d4:	e6d9 d9e0 e2e6 ace8 00ff 0000               ............

0901b6e0 <str_trainerschool_test_question_1_answers>:
	...

0901b6f0 <str_trainerschool_test_question_1_answer_3>:
 901b6f0:	f6c0 dae2 00ff 0000                         ........

0901b6f8 <str_trainerschool_test_question_1_answer_2>:
 901b6f8:	e0bb d9e0 00ff 0000                         ........

0901b700 <str_trainerschool_test_question_1_answer_1>:
 901b700:	f4c2 dae0 d9e8 00ff                         ........

0901b708 <str_trainerschool_test_question_1_answer_0>:
 901b708:	ddd0 e6d9 00ff 0000                         ........

0901b710 <str_trainerschool_test_question_1>:
 901b710:	ddd1 00d9 ddea e0d9 00d9 cabb eafe e6d9     ................
 901b720:	dde0 e6d9 00e8 d5d8 00e7 ddd4 e0d9 d8fe     ................
 901b730:	e6e9 dcd7 d800 d9dd bb00 e8e8 d7d5 d9df     ................
 901b740:	c1fe e3e6 e0e0 ffac                         ........

0901b748 <str_trainerschool_test_question_0_answers>:
	...

0901b758 <str_trainerschool_test_question_0_answer_3>:
 901b758:	d5c1 d5e6 e3d8 ffe7                         ........

0901b760 <str_trainerschool_test_question_0_answer_2>:
 901b760:	d5d1 e0dd e6e3 ffd8                         ........

0901b768 <str_trainerschool_test_question_0_answer_1>:
 901b768:	e8cd dcd5 e3e0 ffe7                         ........

0901b770 <str_trainerschool_test_question_0_answer_0>:
 901b770:	e6c1 e9e3 e3d8 ffe2                         ........

0901b778 <str_trainerschool_test_question_0>:
 901b778:	d9d1 d7e0 d9dc 00e7 e7dd 00e8 d5d8 fee7     ................
 901b788:	e6c1 15f5 d9e8 d500 e0e0 e6d9 cafe dfe3     ................
 901b798:	e11b e2e3 ffac 0000 0204 0000 0000 0000     ................
 901b7a8:	0000 0000 0004 0000 0000 0000 0000 0000     ................
 901b7b8:	0203 0000 0000 0000 0000 0000 0305 0000     ................
	...
 901b7d0:	0004 0000 0000 0000 0000 0000 0005 0000     ................
	...
 901b7e8:	0003 0000 0000 0000 0000 0000 0304 0000     ................
	...
 901b800:	0104 0000 0000 0000 0000 0000 0104 0000     ................
	...
 901b854:	0000 0100 0000 0000 0000 0000 0000 0000     ................
 901b864:	0000 0000 0101 0101 0101 0101 0101 0101     ................
 901b874:	0101 0201 0000 0000 0000 0000 0000 0100     ................
 901b884:	0101 0101 0101 0101 0201 0202 0202 0202     ................
 901b894:	0202 0302 0000 0000 0000 0000 0101 0101     ................
 901b8a4:	0101 0101 0202 0202 0202 0202 0303 0303     ................
 901b8b4:	0303 0403 0000 0000 0000 0100 0101 0101     ................
 901b8c4:	0201 0202 0202 0302 0303 0303 0403 0404     ................
 901b8d4:	0404 0504 0000 0000 0000 0101 0101 0201     ................
 901b8e4:	0202 0202 0303 0303 0403 0404 0404 0505     ................
 901b8f4:	0505 0605 0000 0000 0100 0101 0201 0202     ................
 901b904:	0202 0303 0303 0404 0404 0504 0505 0605     ................
 901b914:	0606 0706 0000 0000 0101 0101 0202 0202     ................
 901b924:	0303 0303 0404 0404 0505 0505 0606 0606     ................
 901b934:	0707 0807 0000 0000 0101 0201 0202 0302     ................
 901b944:	0303 0404 0404 0505 0605 0606 0706 0707     ................
 901b954:	0808 0908 0000 0000 0101 0201 0202 0303     ................
 901b964:	0403 0404 0505 0605 0606 0707 0807 0808     ................
 901b974:	0909 0a09 0000 0100 0101 0202 0302 0303     ................
 901b984:	0404 0504 0605 0606 0707 0807 0808 0909     ................
 901b994:	0a09 0b0a 0000 0100 0101 0202 0303 0403     ................
 901b9a4:	0504 0505 0606 0706 0807 0808 0909 0a0a     ................
 901b9b4:	0b0a 0c0b 0000 0100 0201 0202 0303 0404     ................
 901b9c4:	0505 0605 0706 0707 0808 0909 0a0a 0b0a     ................
 901b9d4:	0c0b 0d0c 0000 0100 0201 0302 0403 0404     ................
 901b9e4:	0505 0606 0707 0808 0909 0a09 0b0a 0c0b     ................
 901b9f4:	0d0c 0e0d 0000 0100 0201 0302 0403 0504     ................
 901ba04:	0605 0706 0807 0908 0a09 0b0a 0c0b 0d0c     ................
 901ba14:	0e0d 0f0e 0000 0101 0202 0303 0404 0505     ................
 901ba24:	0606 0707 0808 0909 0a0a 0b0b 0c0c 0d0d     ................
 901ba34:	0e0e 100f 0000 0101 0202 0303 0404 0605     ................
 901ba44:	0706 0807 0908 0a09 0b0a 0c0c 0d0d 0e0e     ................
 901ba54:	0f0f 1110 0000 0101 0202 0403 0504 0605     ................
 901ba64:	0706 0808 0909 0b0a 0c0b 0d0c 0e0d 0f0f     ................
 901ba74:	1010 1211 0000 0101 0302 0403 0504 0606     ................
 901ba84:	0707 0908 0a09 0b0b 0c0c 0e0d 0f0e 100f     ................
 901ba94:	1111 1312 0000 0101 0302 0403 0505 0706     ................
 901baa4:	0807 0909 0a0a 0c0b 0d0c 0e0e 100f 1110     ................
 901bab4:	1212 1413 0000 0201 0302 0404 0605 0706     ................
 901bac4:	0808 0a09 0b0a 0c0c 0e0d 0f0e 1010 1211     ................
 901bad4:	1312 1514 0000 0201 0302 0404 0605 0707     ................
 901bae4:	0908 0a09 0c0b 0d0c 0e0e 100f 1111 1312     ................
 901baf4:	1413 1615 0000 0201 0302 0504 0605 0807     ................
 901bb04:	0908 0b0a 0c0b 0e0d 0f0e 1110 1211 1413     ................
 901bb14:	1514 1716 0000 0201 0303 0504 0606 0807     ................
 901bb24:	0a09 0b0a 0d0c 0e0d 100f 1111 1312 1414     ................
 901bb34:	1615 1817 0000 0201 0403 0504 0706 0808     ................
 901bb44:	0a09 0c0b 0d0c 0f0e 1010 1211 1413 1514     ................
 901bb54:	1716 1918 0000 0201 0403 0505 0706 0908     ................
 901bb64:	0a0a 0c0b 0e0d 0f0f 1110 1312 1414 1615     ................
 901bb74:	1817 1a19 0000 0201 0403 0605 0706 0908     ................
 901bb84:	0b0a 0d0c 0e0d 100f 1211 1413 1514 1716     ................
 901bb94:	1918 1b1a 0000 0201 0403 0605 0807 0909     ................
 901bba4:	0b0a 0d0c 0f0e 1110 1212 1413 1615 1817     ................
 901bbb4:	1a19 1c1b 0000 0201 0403 0605 0807 0a09     ................
 901bbc4:	0c0b 0e0d 0f0e 1110 1312 1514 1716 1918     ................
 901bbd4:	1b1a 1d1c 0000 0201 0403 0605 0807 0a09     ................
 901bbe4:	0c0b 0e0d 100f 1211 1413 1615 1817 1a19     ................
 901bbf4:	1c1b 1e1d 0100 0302 0504 0706 0908 0b0a     ................
 901bc04:	0d0c 0f0e 1110 1312 1514 1716 1918 1b1a     ................
 901bc14:	1d1c 1f1e                                   ....

0901bc18 <pokedex_order_old>:
 901bc18:	0001 0002 0003 0004 0005 0006 0007 0008     ................
 901bc28:	0009 000a 000b 000c 000d 000e 000f 0010     ................
 901bc38:	0011 0012 0013 0014 0015 0016 0017 0018     ................
 901bc48:	0019 001a 001b 001c 001d 001e 001f 0020     .............. .
 901bc58:	0021 0022 0023 0024 0025 0026 0027 0028     !.".#.$.%.&.'.(.
 901bc68:	0029 002a 002b 002c 002d 002e 002f 0030     ).*.+.,.-.../.0.
 901bc78:	0031 0032 0033 0034 0035 0036 0037 0038     1.2.3.4.5.6.7.8.
 901bc88:	0039 003a 003b 003c 003d 003e 003f 0040     9.:.;.<.=.>.?.@.
 901bc98:	0041 0042 0043 0044 0045 0046 0047 0048     A.B.C.D.E.F.G.H.
 901bca8:	0049 004a 004b 004c 004d 004e 004f 0050     I.J.K.L.M.N.O.P.
 901bcb8:	0051 0052 0053 0054 0055 0056 0057 0058     Q.R.S.T.U.V.W.X.
 901bcc8:	0059 005a 005b 005c 005d 005e 005f 0060     Y.Z.[.\.].^._.`.
 901bcd8:	0061 0062 0063 0064 0065 0066 0067 0068     a.b.c.d.e.f.g.h.
 901bce8:	0069 006a 006b 006c 006d 006e 006f 0070     i.j.k.l.m.n.o.p.
 901bcf8:	0071 0072 0073 0074 0075 0076 0077 0078     q.r.s.t.u.v.w.x.
 901bd08:	0079 007a 007b 007c 007d 007e 007f 0080     y.z.{.|.}.~.....
 901bd18:	0081 0082 0083 0084 0085 0086 0087 0088     ................
 901bd28:	0089 008a 008b 008c 008d 008e 008f 0090     ................
 901bd38:	0091 0092 0093 0094 0095 0096 0097 0098     ................
 901bd48:	0099 009a 009b 009c 009d 009e 009f 00a0     ................
 901bd58:	00a1 00a2 00a3 00a4 00a5 00a6 00a7 00a8     ................
 901bd68:	00a9 00aa 00ab 00ac 00ad 00ae 00af 00b0     ................
 901bd78:	00b1 00b2 00b3 00b4 00b5 00b6 00b7 00b8     ................
 901bd88:	00b9 00ba 00bb 00bc 00bd 00be 00bf 00c0     ................
 901bd98:	00c1 00c2 00c3 00c4 00c5 00c6 00c7 00c8     ................
 901bda8:	00c9 00ca 00cb 00cc 00cd 00ce 00cf 00d0     ................
 901bdb8:	00d1 00d2 00d3 00d4 00d5 00d6 00d7 00d8     ................
 901bdc8:	00d9 00da 00db 00dc 00dd 00de 00df 00e0     ................
 901bdd8:	00e1 00e2 00e3 00e4 00e5 00e6 00e7 00e8     ................
 901bde8:	00e9 00ea 00eb 00ec 00ed 00ee 00ef 00f0     ................
 901bdf8:	00f1 00f2 00f3 00f4 00f5 00f6 00f7 00f8     ................
 901be08:	00f9 00fa 00fb 0000 0000 0000 0000 0000     ................
	...
 901be40:	00fc 00fd 00fe 00ff 0100 0101 0102 0103     ................
 901be50:	0104 0105 0106 0107 0108 0109 010a 010b     ................
 901be60:	010c 010d 010e 010f 0110 0111 0112 0113     ................
 901be70:	0122 0123 0124 0114 0115 011d 011e 0147     ".#.$.........G.
 901be80:	0116 0117 011b 011c 0140 0141 012c 012d     ........@.A.,.-.
 901be90:	0160 0157 0158 012b 0144 012e 0153 0154     `.W.X.+.D...S.T.
 901bea0:	0172 0155 0156 015d 015e 013e 013f 0148     r.U.V.].^.>.?.H.
 901beb0:	0149 014a 0128 0129 0135 0136 0142 0143     I.J.(.).5.6.B.C.
 901bec0:	016b 016c 016d 014b 014c 0169 016a 0151     k.l.m.K.L.i.j.Q.
 901bed0:	0152 012a 0145 0146 0137 0138 012f 0133     R.*.E.F.7.8./.3.
 901bee0:	0134 014d 014e 0168 0163 0164 013b 011f     4.M.N.h.c.d.;...
 901bef0:	0120 0121 013c 013d 0165 0125 0126 0127      .!.<.=.e.%.&.'.
 901bf00:	016e 016f 0170 0167 0161 0162 0150 014f     n.o.p.g.a.b.P.O.
 901bf10:	0171 0130 0131 0132 015f 0139 013a 0159     q.0.1.2._.9.:.Y.
 901bf20:	015a 015b 015c 0118 0119 011a 0173 0174     Z.[.\.......s.t.
 901bf30:	0175 0176 0177 0178 0179 017a 017b 017e     u.v.w.x.y.z.{.~.
 901bf40:	017f 0180 017c 017d 0181 0182 0166 0000     ....|.}.....f...
	...

0901bf8c <str_version_alpha_1_0>:
 901bf8c:	d9c2 eee6 dde0 dcd7 e2d9 c100 f6e0 dfd7     ................
 901bf9c:	e9eb e7e2 dcd7 feab d9be e2dd 00d9 d9d0     ................
 901bfac:	e7e6 e3dd 00e2 e9eb d8e6 00d9 e3ea fae2     ................
 901bfbc:	02fd d2ad d500 dae9 fd00 ad03 fad2 d9db     ................
 901bfcc:	e4e9 d5d8 d9e8 add8 cdfb e8d9 d9ee d800     ................
 901bfdc:	ddd9 00e2 d6bb e2d9 d9e8 d9e9 00e6 e1dd     ................
 901bfec:	c900 e8e7 e2d9 d8fe e6d9 c000 e0d9 dde7     ................
 901bffc:	d9db 00e2 d8f2 dde2 00e7 e3da e8e6 ffad     ................

0901c00c <__bss_start__>:
	...

0901c014 <item_effects>:
	...

0901c29c <roamer_species>:
	...

0901c2a4 <ev_menu_tboxes>:
	...

0901c31c <ev_menu_bg_configs>:
	...

0901c330 <incubator_tboxes>:
	...

0901c368 <pokedex_order>:
	...

0901c6e0 <dungeon2_lscr>:
	...

0901c6e8 <dungeon2_connections>:
	...

0901c6f0 <dg2_cross_neighbourhood>:
	...

0901c710 <dungeon_locations>:
	...

0901c720 <wild_pokemon_other_pdf>:
	...

0901c728 <wild_pokemon_super_rod_pdf>:
	...

0901c730 <wild_pokemon_good_rod_pdf>:
 901c730:	0000 0000                                   ....

0901c734 <wild_pokemon_rod_pdf>:
 901c734:	0000 0000                                   ....

0901c738 <wild_pokemon_water_pdf>:
	...

0901c740 <wild_pokemon_grass_pdf>:
	...

0901c900 <any_grass_tags>:
	...

0901c902 <gamma_types>:
	...

0901c904 <color_multiplication_lut>:
	...

0901cd04 <person_names>:
	...
 9020c70:	0000 cdab 0000 0000 0000 0000 0000 0000     ................
	...
 9022578:	0000 cdab 0000 0000                         ........

09022580 <palette_item_finder_arrow>:
	...

09023e80 <tm_hm_to_attack>:
	...

09023f00 <items>:
	...

09028e34 <sin_lut>:
	...

0902a238 <trainer_class_money_multipliers>:
	...

0902a2a4 <trainer_class_names>:
	...

0902a814 <trainers>:
	...

09055bd4 <attack_descriptions>:
	...

0905624c <attack_names>:
	...

09057760 <attacks>:
	...
 9058c80:	0000 cdab 0000 0000 0000 0000 0000 0000     ................
	...
 905ab68:	0000 ab00 0000 0000 0000 0000 0000 0000     ................
	...

0905d4f8 <pokemon_linked>:
	...

0905de80 <basestats>:
	...

09060ef4 <trainerschool_test_questions>:
	...
 9068988:	ab00 abcd 0000 0000 0000 0000 0000 0000     ................
	...
 906a280:	0000 cdab 0000 0000 0000 0000 0000 0000     ................
	...

090708b4 <worldmap_positions>:
	...

09070cb4 <namespace_worldmap_associations>:
 9070cb4:	0000 0000                                   ....

09070cb8 <worldmap_tilemaps>:
	...

09070cc8 <flight_position_associations>:
	...

09070e10 <flight_positions>:
	...

09070e80 <worldmap_shape_associations>:
	...

09070e94 <healing_place_target_coordinates>:
	...

09070ecc <healing_place_target_persons>:
	...

09070edc <healing_place_maps>:
	...
